
mytest.exe:     file format elf32-littleriscv


Disassembly of section .text:

00000000 <_start>:
       0:	5f5552b7          	lui	t0,0x5f555
       4:	55528293          	addi	t0,t0,1365 # 5f555555 <STACK+0x5f53d2c5>
       8:	7c029073          	csrw	0x7c0,t0
       c:	00018117          	auipc	sp,0x18
      10:	28410113          	addi	sp,sp,644 # 18290 <STACK>
      14:	0b0030ef          	jal	ra,30c4 <main>

00000018 <_finish>:
      18:	d05802b7          	lui	t0,0xd0580
      1c:	0ff00313          	li	t1,255
      20:	00628023          	sb	t1,0(t0) # d0580000 <STACK+0xd0567d70>
      24:	fe000ae3          	beqz	zero,18 <_finish>
      28:	0001                	nop
      2a:	0001                	nop
      2c:	0001                	nop
      2e:	0001                	nop
      30:	0001                	nop
      32:	0001                	nop
      34:	0001                	nop
      36:	0001                	nop
      38:	0001                	nop
      3a:	0001                	nop

0000003c <calc_func>:
        , list_head *memblock_end, list_data *datablock_end);
typedef ee_s32(*list_cmp)(list_data *a, list_data *b, core_results *res);
list_head *core_list_mergesort(list_head *list, list_cmp cmp, core_results *res);

ee_s16 calc_func(ee_s16 *pdata, core_results *res) {
        ee_s16 data=*pdata;
      3c:	00051703          	lh	a4,0(a0)
ee_s16 calc_func(ee_s16 *pdata, core_results *res) {
      40:	86aa                	mv	a3,a0
        ee_s16 retval;
        ee_u8 optype=(data>>7) & 1; /* bit 7 indicates if the function result has been cached */
      42:	40775793          	srai	a5,a4,0x7
        if (optype) /* if cached, use cache */
      46:	0017f293          	andi	t0,a5,1
                return (data & 0x007f);
      4a:	07f77513          	andi	a0,a4,127

0000004e <.LVL2>:
        if (optype) /* if cached, use cache */
      4e:	26029263          	bnez	t0,2b2 <.L2>

00000052 <.LBB103>:
                dtype |= dtype << 4; /* replicate the lower 4 bits to get an 8b value */

                //linked list
                retval=data;

                res->crc=crcu16(retval,res->crc);
      52:	0285d383          	lhu	t2,40(a1)

00000056 <.LBB104>:
                   crc &= 0x7fff;
    }
        return crc;
}
ee_u16 crcu16(ee_u16 newval, ee_u16 crc) {
        crc=crcu8( (ee_u8) (newval)                             ,crc);
      56:	0ff77813          	andi	a6,a4,255

0000005a <.LBE104>:
                res->crc=crcu16(retval,res->crc);
      5a:	01071613          	slli	a2,a4,0x10

0000005e <.LBB106>:
                x16 = (ee_u8)((data & 1) ^ ((ee_u8)crc & 1));
      5e:	00e3c8b3          	xor	a7,t2,a4
                if (x16 == 1)
      62:	0018fe93          	andi	t4,a7,1

00000066 <.LBE106>:
                res->crc=crcu16(retval,res->crc);
      66:	01065e13          	srli	t3,a2,0x10

0000006a <.LBB110>:
                data >>= 1;
      6a:	00185313          	srli	t1,a6,0x1

0000006e <.LVL5>:
                crc >>= 1;
      6e:	0013d393          	srli	t2,t2,0x1

00000072 <.LVL6>:
                if (x16 == 1)
      72:	240e9163          	bnez	t4,2b4 <.L68>

00000076 <.L3>:
                x16 = (ee_u8)((data & 1) ^ ((ee_u8)crc & 1));
      76:	0063c633          	xor	a2,t2,t1
                if (x16 == 1)
      7a:	00167e93          	andi	t4,a2,1
                data >>= 1;
      7e:	00285893          	srli	a7,a6,0x2

00000082 <.LVL8>:
                crc >>= 1;
      82:	0013d293          	srli	t0,t2,0x1
                if (x16 == 1)
      86:	000e8b63          	beqz	t4,9c <.L4>

0000008a <.LVL9>:
                   crc |= 0x8000;
      8a:	7369                	lui	t1,0xffffa
      8c:	00130f13          	addi	t5,t1,1 # ffffa001 <STACK+0xfffe1d71>
      90:	01e2cfb3          	xor	t6,t0,t5

00000094 <.LVL10>:
      94:	010f9793          	slli	a5,t6,0x10
      98:	0107d293          	srli	t0,a5,0x10

0000009c <.L4>:
                x16 = (ee_u8)((data & 1) ^ ((ee_u8)crc & 1));
      9c:	0112c3b3          	xor	t2,t0,a7
                if (x16 == 1)
      a0:	0013f613          	andi	a2,t2,1
                data >>= 1;
      a4:	00385e93          	srli	t4,a6,0x3

000000a8 <.LVL12>:
                crc >>= 1;
      a8:	0012d793          	srli	a5,t0,0x1
                if (x16 == 1)
      ac:	ca11                	beqz	a2,c0 <.L5>

000000ae <.LVL13>:
                   crc |= 0x8000;
      ae:	78e9                	lui	a7,0xffffa
      b0:	00188313          	addi	t1,a7,1 # ffffa001 <STACK+0xfffe1d71>
      b4:	0067cf33          	xor	t5,a5,t1

000000b8 <.LVL14>:
      b8:	010f1f93          	slli	t6,t5,0x10
      bc:	010fd793          	srli	a5,t6,0x10

000000c0 <.L5>:
                x16 = (ee_u8)((data & 1) ^ ((ee_u8)crc & 1));
      c0:	01d7c2b3          	xor	t0,a5,t4
                if (x16 == 1)
      c4:	0012f393          	andi	t2,t0,1
                data >>= 1;
      c8:	00485613          	srli	a2,a6,0x4

000000cc <.LVL16>:
                crc >>= 1;
      cc:	0017df93          	srli	t6,a5,0x1
                if (x16 == 1)
      d0:	00038b63          	beqz	t2,e6 <.L6>

000000d4 <.LVL17>:
                   crc |= 0x8000;
      d4:	7ee9                	lui	t4,0xffffa
      d6:	001e8893          	addi	a7,t4,1 # ffffa001 <STACK+0xfffe1d71>
      da:	011fc333          	xor	t1,t6,a7

000000de <.LVL18>:
      de:	01031f13          	slli	t5,t1,0x10
      e2:	010f5f93          	srli	t6,t5,0x10

000000e6 <.L6>:
                x16 = (ee_u8)((data & 1) ^ ((ee_u8)crc & 1));
      e6:	00cfc7b3          	xor	a5,t6,a2
                if (x16 == 1)
      ea:	0017f293          	andi	t0,a5,1
                data >>= 1;
      ee:	00585393          	srli	t2,a6,0x5

000000f2 <.LVL20>:
                crc >>= 1;
      f2:	001fdf13          	srli	t5,t6,0x1
                if (x16 == 1)
      f6:	00028b63          	beqz	t0,10c <.L7>

000000fa <.LVL21>:
                   crc |= 0x8000;
      fa:	7669                	lui	a2,0xffffa
      fc:	00160e93          	addi	t4,a2,1 # ffffa001 <STACK+0xfffe1d71>
     100:	01df48b3          	xor	a7,t5,t4

00000104 <.LVL22>:
     104:	01089313          	slli	t1,a7,0x10
     108:	01035f13          	srli	t5,t1,0x10

0000010c <.L7>:
                x16 = (ee_u8)((data & 1) ^ ((ee_u8)crc & 1));
     10c:	007f4fb3          	xor	t6,t5,t2
                if (x16 == 1)
     110:	001ff293          	andi	t0,t6,1
                data >>= 1;
     114:	00685393          	srli	t2,a6,0x6
                crc >>= 1;
     118:	001f5313          	srli	t1,t5,0x1
                if (x16 == 1)
     11c:	00028b63          	beqz	t0,132 <.L8>

00000120 <.LVL25>:
                   crc |= 0x8000;
     120:	7669                	lui	a2,0xffffa
     122:	00160e93          	addi	t4,a2,1 # ffffa001 <STACK+0xfffe1d71>
     126:	01d347b3          	xor	a5,t1,t4

0000012a <.LVL26>:
     12a:	01079893          	slli	a7,a5,0x10
     12e:	0108d313          	srli	t1,a7,0x10

00000132 <.L8>:
                x16 = (ee_u8)((data & 1) ^ ((ee_u8)crc & 1));
     132:	00734f33          	xor	t5,t1,t2
                if (x16 == 1)
     136:	001f7f93          	andi	t6,t5,1
                data >>= 1;
     13a:	00785813          	srli	a6,a6,0x7

0000013e <.LVL28>:
                crc >>= 1;
     13e:	00135793          	srli	a5,t1,0x1
                if (x16 == 1)
     142:	000f8b63          	beqz	t6,158 <.L9>

00000146 <.LVL29>:
                   crc |= 0x8000;
     146:	72e9                	lui	t0,0xffffa
     148:	00128393          	addi	t2,t0,1 # ffffa001 <STACK+0xfffe1d71>
     14c:	0077c633          	xor	a2,a5,t2

00000150 <.LVL30>:
     150:	01061e93          	slli	t4,a2,0x10
     154:	010ed793          	srli	a5,t4,0x10

00000158 <.L9>:
                if (x16 == 1)
     158:	0017f893          	andi	a7,a5,1
                crc >>= 1;
     15c:	0017d293          	srli	t0,a5,0x1
                if (x16 == 1)
     160:	01088b63          	beq	a7,a6,176 <.L10>

00000164 <.LVL32>:
                   crc |= 0x8000;
     164:	7369                	lui	t1,0xffffa
     166:	00130f13          	addi	t5,t1,1 # ffffa001 <STACK+0xfffe1d71>
     16a:	01e2cfb3          	xor	t6,t0,t5

0000016e <.LVL33>:
     16e:	010f9813          	slli	a6,t6,0x10
     172:	01085293          	srli	t0,a6,0x10

00000176 <.L10>:
        crc=crcu8( (ee_u8) ((newval)>>8)        ,crc);
     176:	008e5393          	srli	t2,t3,0x8

0000017a <.LBB111>:
                x16 = (ee_u8)((data & 1) ^ ((ee_u8)crc & 1));
     17a:	0053c633          	xor	a2,t2,t0
                if (x16 == 1)
     17e:	00167e93          	andi	t4,a2,1

00000182 <.LBE111>:
        crc=crcu8( (ee_u8) ((newval)>>8)        ,crc);
     182:	008e5313          	srli	t1,t3,0x8

00000186 <.LBB114>:
                data >>= 1;
     186:	0012d813          	srli	a6,t0,0x1
     18a:	009e5e13          	srli	t3,t3,0x9

0000018e <.LVL36>:
                if (x16 == 1)
     18e:	000e8b63          	beqz	t4,1a4 <.L11>

00000192 <.LVL37>:
                   crc |= 0x8000;
     192:	78e9                	lui	a7,0xffffa
     194:	00188f13          	addi	t5,a7,1 # ffffa001 <STACK+0xfffe1d71>
     198:	01e847b3          	xor	a5,a6,t5

0000019c <.LVL38>:
     19c:	01079f93          	slli	t6,a5,0x10
     1a0:	010fd813          	srli	a6,t6,0x10

000001a4 <.L11>:
                x16 = (ee_u8)((data & 1) ^ ((ee_u8)crc & 1));
     1a4:	010e42b3          	xor	t0,t3,a6
                if (x16 == 1)
     1a8:	0012f393          	andi	t2,t0,1
                data >>= 1;
     1ac:	00235e93          	srli	t4,t1,0x2

000001b0 <.LVL40>:
                if (x16 == 1)
     1b0:	00185793          	srli	a5,a6,0x1
     1b4:	00038b63          	beqz	t2,1ca <.L12>

000001b8 <.LVL41>:
                   crc |= 0x8000;
     1b8:	7669                	lui	a2,0xffffa
     1ba:	00160e13          	addi	t3,a2,1 # ffffa001 <STACK+0xfffe1d71>
     1be:	01c7c8b3          	xor	a7,a5,t3

000001c2 <.LVL42>:
     1c2:	01089f13          	slli	t5,a7,0x10
     1c6:	010f5793          	srli	a5,t5,0x10

000001ca <.L12>:
                x16 = (ee_u8)((data & 1) ^ ((ee_u8)crc & 1));
     1ca:	01d7cfb3          	xor	t6,a5,t4
                if (x16 == 1)
     1ce:	001ff813          	andi	a6,t6,1
                data >>= 1;
     1d2:	00335293          	srli	t0,t1,0x3

000001d6 <.LVL44>:
                if (x16 == 1)
     1d6:	0017df13          	srli	t5,a5,0x1
     1da:	00080b63          	beqz	a6,1f0 <.L13>

000001de <.LVL45>:
                   crc |= 0x8000;
     1de:	73e9                	lui	t2,0xffffa
     1e0:	00138e93          	addi	t4,t2,1 # ffffa001 <STACK+0xfffe1d71>
     1e4:	01df4633          	xor	a2,t5,t4

000001e8 <.LVL46>:
     1e8:	01061e13          	slli	t3,a2,0x10
     1ec:	010e5f13          	srli	t5,t3,0x10

000001f0 <.L13>:
                x16 = (ee_u8)((data & 1) ^ ((ee_u8)crc & 1));
     1f0:	01e2c8b3          	xor	a7,t0,t5
                if (x16 == 1)
     1f4:	0018ff93          	andi	t6,a7,1
                data >>= 1;
     1f8:	00435813          	srli	a6,t1,0x4

000001fc <.LVL48>:
                if (x16 == 1)
     1fc:	001f5e13          	srli	t3,t5,0x1
     200:	000f8b63          	beqz	t6,216 <.L14>

00000204 <.LVL49>:
                   crc |= 0x8000;
     204:	72e9                	lui	t0,0xffffa
     206:	00128393          	addi	t2,t0,1 # ffffa001 <STACK+0xfffe1d71>
     20a:	007e47b3          	xor	a5,t3,t2

0000020e <.LVL50>:
     20e:	01079e93          	slli	t4,a5,0x10
     212:	010ede13          	srli	t3,t4,0x10

00000216 <.L14>:
                x16 = (ee_u8)((data & 1) ^ ((ee_u8)crc & 1));
     216:	010e4633          	xor	a2,t3,a6
                if (x16 == 1)
     21a:	00167f13          	andi	t5,a2,1
                data >>= 1;
     21e:	00535893          	srli	a7,t1,0x5

00000222 <.LVL52>:
                if (x16 == 1)
     222:	001e5793          	srli	a5,t3,0x1
     226:	000f0b63          	beqz	t5,23c <.L15>

0000022a <.LVL53>:
                   crc |= 0x8000;
     22a:	7fe9                	lui	t6,0xffffa
     22c:	001f8813          	addi	a6,t6,1 # ffffa001 <STACK+0xfffe1d71>
     230:	0107c2b3          	xor	t0,a5,a6

00000234 <.LVL54>:
     234:	01029393          	slli	t2,t0,0x10
     238:	0103d793          	srli	a5,t2,0x10

0000023c <.L15>:
                x16 = (ee_u8)((data & 1) ^ ((ee_u8)crc & 1));
     23c:	0117ceb3          	xor	t4,a5,a7
                if (x16 == 1)
     240:	001efe13          	andi	t3,t4,1
                data >>= 1;
     244:	00635613          	srli	a2,t1,0x6

00000248 <.LVL56>:
                if (x16 == 1)
     248:	0017d293          	srli	t0,a5,0x1
     24c:	000e0b63          	beqz	t3,262 <.L16>

00000250 <.LVL57>:
                   crc |= 0x8000;
     250:	7f69                	lui	t5,0xffffa
     252:	001f0893          	addi	a7,t5,1 # ffffa001 <STACK+0xfffe1d71>
     256:	0112cfb3          	xor	t6,t0,a7

0000025a <.LVL58>:
     25a:	010f9813          	slli	a6,t6,0x10
     25e:	01085293          	srli	t0,a6,0x10

00000262 <.L16>:
                x16 = (ee_u8)((data & 1) ^ ((ee_u8)crc & 1));
     262:	00c2c3b3          	xor	t2,t0,a2
                if (x16 == 1)
     266:	0013fe93          	andi	t4,t2,1
                data >>= 1;
     26a:	00735313          	srli	t1,t1,0x7

0000026e <.LVL60>:
                if (x16 == 1)
     26e:	0012d893          	srli	a7,t0,0x1
     272:	000e8b63          	beqz	t4,288 <.L17>

00000276 <.LVL61>:
                   crc |= 0x8000;
     276:	7e69                	lui	t3,0xffffa
     278:	001e0613          	addi	a2,t3,1 # ffffa001 <STACK+0xfffe1d71>
     27c:	00c8c7b3          	xor	a5,a7,a2

00000280 <.LVL62>:
     280:	01079f13          	slli	t5,a5,0x10
     284:	010f5893          	srli	a7,t5,0x10

00000288 <.L17>:
                if (x16 == 1)
     288:	0018ff93          	andi	t6,a7,1
     28c:	0018de13          	srli	t3,a7,0x1
     290:	006f8b63          	beq	t6,t1,2a6 <.L18>

00000294 <.LVL64>:
                   crc |= 0x8000;
     294:	7869                	lui	a6,0xffffa
     296:	00180293          	addi	t0,a6,1 # ffffa001 <STACK+0xfffe1d71>
     29a:	005e43b3          	xor	t2,t3,t0
     29e:	01039e93          	slli	t4,t2,0x10
     2a2:	010ede13          	srli	t3,t4,0x10

000002a6 <.L18>:
                res->crc=crcu16(retval,res->crc);
     2a6:	03c59423          	sh	t3,40(a1)

000002aa <.LVL66>:
                *pdata = (data & 0xff00) | 0x0080 | retval; /* cache the result */
     2aa:	08076593          	ori	a1,a4,128

000002ae <.LVL67>:
     2ae:	00b69023          	sh	a1,0(a3)

000002b2 <.L2>:
}
     2b2:	8082                	ret

000002b4 <.L68>:
                   crc |= 0x8000;
     2b4:	7f69                	lui	t5,0xffffa
     2b6:	001f0f93          	addi	t6,t5,1 # ffffa001 <STACK+0xfffe1d71>
     2ba:	01f3c7b3          	xor	a5,t2,t6

000002be <.LVL70>:
     2be:	01079293          	slli	t0,a5,0x10
     2c2:	0102d393          	srli	t2,t0,0x10

000002c6 <.LVL71>:
     2c6:	bb45                	j	76 <.L3>

000002c8 <cmp_complex>:
        ee_s16 data=*pdata;
     2c8:	00051703          	lh	a4,0(a0)
        ee_u8 optype=(data>>7) & 1; /* bit 7 indicates if the function result has been cached */
     2cc:	40775793          	srai	a5,a4,0x7
        if (optype) /* if cached, use cache */
     2d0:	0017f293          	andi	t0,a5,1

000002d4 <.LVL73>:
                return (data & 0x007f);
     2d4:	07f77813          	andi	a6,a4,127
        if (optype) /* if cached, use cache */
     2d8:	24029c63          	bnez	t0,530 <.L70>

000002dc <.LBB143>:
                res->crc=crcu16(retval,res->crc);
     2dc:	02865383          	lhu	t2,40(a2)
     2e0:	01071693          	slli	a3,a4,0x10

000002e4 <.LBB144>:
        crc=crcu8( (ee_u8) (newval)                             ,crc);
     2e4:	0ff77893          	andi	a7,a4,255

000002e8 <.LBB146>:
                x16 = (ee_u8)((data & 1) ^ ((ee_u8)crc & 1));
     2e8:	00e3c333          	xor	t1,t2,a4
                if (x16 == 1)
     2ec:	00137f13          	andi	t5,t1,1

000002f0 <.LBE144>:
                res->crc=crcu16(retval,res->crc);
     2f0:	0106de93          	srli	t4,a3,0x10

000002f4 <.LBB150>:
                data >>= 1;
     2f4:	0018de13          	srli	t3,a7,0x1

000002f8 <.LVL76>:
                crc >>= 1;
     2f8:	0013d693          	srli	a3,t2,0x1
                if (x16 == 1)
     2fc:	4a0f1a63          	bnez	t5,7b0 <.L200>

00000300 <.L71>:
                x16 = (ee_u8)((data & 1) ^ ((ee_u8)crc & 1));
     300:	01c6c333          	xor	t1,a3,t3
                if (x16 == 1)
     304:	00137f13          	andi	t5,t1,1
                data >>= 1;
     308:	0028df93          	srli	t6,a7,0x2

0000030c <.LVL78>:
                crc >>= 1;
     30c:	8285                	srli	a3,a3,0x1
                if (x16 == 1)
     30e:	000f0b63          	beqz	t5,324 <.L72>

00000312 <.LVL79>:
                   crc |= 0x8000;
     312:	7e69                	lui	t3,0xffffa
     314:	001e0293          	addi	t0,t3,1 # ffffa001 <STACK+0xfffe1d71>
     318:	0056c7b3          	xor	a5,a3,t0

0000031c <.LVL80>:
     31c:	01079393          	slli	t2,a5,0x10
     320:	0103d693          	srli	a3,t2,0x10

00000324 <.L72>:
                x16 = (ee_u8)((data & 1) ^ ((ee_u8)crc & 1));
     324:	01f6c333          	xor	t1,a3,t6
                if (x16 == 1)
     328:	00137f13          	andi	t5,t1,1
                data >>= 1;
     32c:	0038df93          	srli	t6,a7,0x3
                crc >>= 1;
     330:	8285                	srli	a3,a3,0x1
                if (x16 == 1)
     332:	000f0b63          	beqz	t5,348 <.L73>

00000336 <.LVL83>:
                   crc |= 0x8000;
     336:	7e69                	lui	t3,0xffffa
     338:	001e0293          	addi	t0,t3,1 # ffffa001 <STACK+0xfffe1d71>
     33c:	0056c7b3          	xor	a5,a3,t0

00000340 <.LVL84>:
     340:	01079393          	slli	t2,a5,0x10
     344:	0103d693          	srli	a3,t2,0x10

00000348 <.L73>:
                x16 = (ee_u8)((data & 1) ^ ((ee_u8)crc & 1));
     348:	01f6c333          	xor	t1,a3,t6
                if (x16 == 1)
     34c:	00137f13          	andi	t5,t1,1
                data >>= 1;
     350:	0048df93          	srli	t6,a7,0x4
                crc >>= 1;
     354:	8285                	srli	a3,a3,0x1
                if (x16 == 1)
     356:	000f0b63          	beqz	t5,36c <.L74>

0000035a <.LVL87>:
                   crc |= 0x8000;
     35a:	7e69                	lui	t3,0xffffa
     35c:	001e0293          	addi	t0,t3,1 # ffffa001 <STACK+0xfffe1d71>
     360:	0056c7b3          	xor	a5,a3,t0

00000364 <.LVL88>:
     364:	01079393          	slli	t2,a5,0x10
     368:	0103d693          	srli	a3,t2,0x10

0000036c <.L74>:
                x16 = (ee_u8)((data & 1) ^ ((ee_u8)crc & 1));
     36c:	01f6c333          	xor	t1,a3,t6
                if (x16 == 1)
     370:	00137f13          	andi	t5,t1,1
                data >>= 1;
     374:	0058df93          	srli	t6,a7,0x5
                crc >>= 1;
     378:	8285                	srli	a3,a3,0x1
                if (x16 == 1)
     37a:	000f0b63          	beqz	t5,390 <.L75>

0000037e <.LVL91>:
                   crc |= 0x8000;
     37e:	7e69                	lui	t3,0xffffa
     380:	001e0293          	addi	t0,t3,1 # ffffa001 <STACK+0xfffe1d71>
     384:	0056c7b3          	xor	a5,a3,t0

00000388 <.LVL92>:
     388:	01079393          	slli	t2,a5,0x10
     38c:	0103d693          	srli	a3,t2,0x10

00000390 <.L75>:
                x16 = (ee_u8)((data & 1) ^ ((ee_u8)crc & 1));
     390:	01f6c333          	xor	t1,a3,t6
                if (x16 == 1)
     394:	00137f13          	andi	t5,t1,1
                data >>= 1;
     398:	0068df93          	srli	t6,a7,0x6
                crc >>= 1;
     39c:	8285                	srli	a3,a3,0x1
                if (x16 == 1)
     39e:	000f0b63          	beqz	t5,3b4 <.L76>

000003a2 <.LVL95>:
                   crc |= 0x8000;
     3a2:	7e69                	lui	t3,0xffffa
     3a4:	001e0293          	addi	t0,t3,1 # ffffa001 <STACK+0xfffe1d71>
     3a8:	0056c7b3          	xor	a5,a3,t0

000003ac <.LVL96>:
     3ac:	01079393          	slli	t2,a5,0x10
     3b0:	0103d693          	srli	a3,t2,0x10

000003b4 <.L76>:
                x16 = (ee_u8)((data & 1) ^ ((ee_u8)crc & 1));
     3b4:	01f6c333          	xor	t1,a3,t6
                if (x16 == 1)
     3b8:	00137f13          	andi	t5,t1,1
                data >>= 1;
     3bc:	0078d893          	srli	a7,a7,0x7

000003c0 <.LVL98>:
                crc >>= 1;
     3c0:	0016d393          	srli	t2,a3,0x1
                if (x16 == 1)
     3c4:	000f0b63          	beqz	t5,3da <.L77>

000003c8 <.LVL99>:
                   crc |= 0x8000;
     3c8:	7fe9                	lui	t6,0xffffa
     3ca:	001f8e13          	addi	t3,t6,1 # ffffa001 <STACK+0xfffe1d71>
     3ce:	01c3c2b3          	xor	t0,t2,t3

000003d2 <.LVL100>:
     3d2:	01029793          	slli	a5,t0,0x10
     3d6:	0107d393          	srli	t2,a5,0x10

000003da <.L77>:
                if (x16 == 1)
     3da:	0013f693          	andi	a3,t2,1
                crc >>= 1;
     3de:	0013de13          	srli	t3,t2,0x1
                if (x16 == 1)
     3e2:	01168b63          	beq	a3,a7,3f8 <.L78>

000003e6 <.LVL102>:
                   crc |= 0x8000;
     3e6:	7369                	lui	t1,0xffffa
     3e8:	00130f13          	addi	t5,t1,1 # ffffa001 <STACK+0xfffe1d71>
     3ec:	01ee48b3          	xor	a7,t3,t5

000003f0 <.LVL103>:
     3f0:	01089f93          	slli	t6,a7,0x10
     3f4:	010fde13          	srli	t3,t6,0x10

000003f8 <.L78>:
        crc=crcu8( (ee_u8) ((newval)>>8)        ,crc);
     3f8:	008ed293          	srli	t0,t4,0x8

000003fc <.LBB151>:
                x16 = (ee_u8)((data & 1) ^ ((ee_u8)crc & 1));
     3fc:	005e47b3          	xor	a5,t3,t0
                if (x16 == 1)
     400:	0017f393          	andi	t2,a5,1

00000404 <.LBE151>:
        crc=crcu8( (ee_u8) ((newval)>>8)        ,crc);
     404:	008edf13          	srli	t5,t4,0x8

00000408 <.LBB154>:
                data >>= 1;
     408:	001e5e13          	srli	t3,t3,0x1
     40c:	009ede93          	srli	t4,t4,0x9

00000410 <.LVL106>:
                if (x16 == 1)
     410:	00038b63          	beqz	t2,426 <.L79>

00000414 <.LVL107>:
                   crc |= 0x8000;
     414:	76e9                	lui	a3,0xffffa
     416:	00168313          	addi	t1,a3,1 # ffffa001 <STACK+0xfffe1d71>
     41a:	006e48b3          	xor	a7,t3,t1

0000041e <.LVL108>:
     41e:	01089f93          	slli	t6,a7,0x10
     422:	010fde13          	srli	t3,t6,0x10

00000426 <.L79>:
                x16 = (ee_u8)((data & 1) ^ ((ee_u8)crc & 1));
     426:	01de42b3          	xor	t0,t3,t4
                if (x16 == 1)
     42a:	0012f393          	andi	t2,t0,1
                data >>= 1;
     42e:	002f5e93          	srli	t4,t5,0x2
                if (x16 == 1)
     432:	001e5f93          	srli	t6,t3,0x1
     436:	00038b63          	beqz	t2,44c <.L80>

0000043a <.LVL111>:
                   crc |= 0x8000;
     43a:	76e9                	lui	a3,0xffffa
     43c:	00168313          	addi	t1,a3,1 # ffffa001 <STACK+0xfffe1d71>
     440:	006fc7b3          	xor	a5,t6,t1

00000444 <.LVL112>:
     444:	01079893          	slli	a7,a5,0x10
     448:	0108df93          	srli	t6,a7,0x10

0000044c <.L80>:
                x16 = (ee_u8)((data & 1) ^ ((ee_u8)crc & 1));
     44c:	01dfce33          	xor	t3,t6,t4
                if (x16 == 1)
     450:	001e7293          	andi	t0,t3,1
                data >>= 1;
     454:	003f5393          	srli	t2,t5,0x3

00000458 <.LVL114>:
                if (x16 == 1)
     458:	001fd893          	srli	a7,t6,0x1
     45c:	00028b63          	beqz	t0,472 <.L81>

00000460 <.LVL115>:
                   crc |= 0x8000;
     460:	7ee9                	lui	t4,0xffffa
     462:	001e8693          	addi	a3,t4,1 # ffffa001 <STACK+0xfffe1d71>
     466:	00d8c333          	xor	t1,a7,a3

0000046a <.LVL116>:
     46a:	01031793          	slli	a5,t1,0x10
     46e:	0107d893          	srli	a7,a5,0x10

00000472 <.L81>:
                x16 = (ee_u8)((data & 1) ^ ((ee_u8)crc & 1));
     472:	0078cfb3          	xor	t6,a7,t2
                if (x16 == 1)
     476:	001ffe13          	andi	t3,t6,1
                data >>= 1;
     47a:	004f5293          	srli	t0,t5,0x4

0000047e <.LVL118>:
                if (x16 == 1)
     47e:	0018d793          	srli	a5,a7,0x1
     482:	000e0b63          	beqz	t3,498 <.L82>

00000486 <.LVL119>:
                   crc |= 0x8000;
     486:	73e9                	lui	t2,0xffffa
     488:	00138e93          	addi	t4,t2,1 # ffffa001 <STACK+0xfffe1d71>
     48c:	01d7c6b3          	xor	a3,a5,t4

00000490 <.LVL120>:
     490:	01069313          	slli	t1,a3,0x10
     494:	01035793          	srli	a5,t1,0x10

00000498 <.L82>:
                x16 = (ee_u8)((data & 1) ^ ((ee_u8)crc & 1));
     498:	0057c8b3          	xor	a7,a5,t0
                if (x16 == 1)
     49c:	0018ff93          	andi	t6,a7,1
                data >>= 1;
     4a0:	005f5e13          	srli	t3,t5,0x5

000004a4 <.LVL122>:
                if (x16 == 1)
     4a4:	8385                	srli	a5,a5,0x1
     4a6:	000f8b63          	beqz	t6,4bc <.L83>

000004aa <.LVL123>:
                   crc |= 0x8000;
     4aa:	72e9                	lui	t0,0xffffa
     4ac:	00128393          	addi	t2,t0,1 # ffffa001 <STACK+0xfffe1d71>
     4b0:	0077ceb3          	xor	t4,a5,t2

000004b4 <.LVL124>:
     4b4:	010e9693          	slli	a3,t4,0x10
     4b8:	0106d793          	srli	a5,a3,0x10

000004bc <.L83>:
                x16 = (ee_u8)((data & 1) ^ ((ee_u8)crc & 1));
     4bc:	01c7c333          	xor	t1,a5,t3
                if (x16 == 1)
     4c0:	00137893          	andi	a7,t1,1
                data >>= 1;
     4c4:	006f5f93          	srli	t6,t5,0x6

000004c8 <.LVL126>:
                if (x16 == 1)
     4c8:	8385                	srli	a5,a5,0x1
     4ca:	00088b63          	beqz	a7,4e0 <.L84>

000004ce <.LVL127>:
                   crc |= 0x8000;
     4ce:	7e69                	lui	t3,0xffffa
     4d0:	001e0293          	addi	t0,t3,1 # ffffa001 <STACK+0xfffe1d71>
     4d4:	0057c3b3          	xor	t2,a5,t0

000004d8 <.LVL128>:
     4d8:	01039e93          	slli	t4,t2,0x10
     4dc:	010ed793          	srli	a5,t4,0x10

000004e0 <.L84>:
                x16 = (ee_u8)((data & 1) ^ ((ee_u8)crc & 1));
     4e0:	01f7c6b3          	xor	a3,a5,t6
                if (x16 == 1)
     4e4:	0016f313          	andi	t1,a3,1
                data >>= 1;
     4e8:	007f5f13          	srli	t5,t5,0x7

000004ec <.LVL130>:
                if (x16 == 1)
     4ec:	0017d393          	srli	t2,a5,0x1
     4f0:	00030b63          	beqz	t1,506 <.L85>

000004f4 <.LVL131>:
                   crc |= 0x8000;
     4f4:	78e9                	lui	a7,0xffffa
     4f6:	00188f93          	addi	t6,a7,1 # ffffa001 <STACK+0xfffe1d71>
     4fa:	01f3ce33          	xor	t3,t2,t6

000004fe <.LVL132>:
     4fe:	010e1293          	slli	t0,t3,0x10
     502:	0102d393          	srli	t2,t0,0x10

00000506 <.L85>:
                if (x16 == 1)
     506:	0013fe93          	andi	t4,t2,1
     50a:	0013d893          	srli	a7,t2,0x1
     50e:	01ee8b63          	beq	t4,t5,524 <.L86>

00000512 <.LVL134>:
                   crc |= 0x8000;
     512:	76e9                	lui	a3,0xffffa
     514:	00168313          	addi	t1,a3,1 # ffffa001 <STACK+0xfffe1d71>
     518:	0068c7b3          	xor	a5,a7,t1
     51c:	01079f13          	slli	t5,a5,0x10
     520:	010f5893          	srli	a7,t5,0x10

00000524 <.L86>:
                res->crc=crcu16(retval,res->crc);
     524:	03161423          	sh	a7,40(a2)

00000528 <.LVL136>:
                *pdata = (data & 0xff00) | 0x0080 | retval; /* cache the result */
     528:	08076713          	ori	a4,a4,128

0000052c <.LVL137>:
     52c:	00e51023          	sh	a4,0(a0)

00000530 <.L70>:
        ee_s16 data=*pdata;
     530:	00059f83          	lh	t6,0(a1)

00000534 <.LVL139>:
        ee_u8 optype=(data>>7) & 1; /* bit 7 indicates if the function result has been cached */
     534:	407fd513          	srai	a0,t6,0x7

00000538 <.LVL140>:
        if (optype) /* if cached, use cache */
     538:	00157e13          	andi	t3,a0,1
                return (data & 0x007f);
     53c:	07fff293          	andi	t0,t6,127
        if (optype) /* if cached, use cache */
     540:	240e1b63          	bnez	t3,796 <.L87>

00000544 <.LBB164>:
                res->crc=crcu16(retval,res->crc);
     544:	02865383          	lhu	t2,40(a2)
     548:	010f9693          	slli	a3,t6,0x10

0000054c <.LBB165>:
        crc=crcu8( (ee_u8) (newval)                             ,crc);
     54c:	0ffffe93          	andi	t4,t6,255

00000550 <.LBB167>:
                x16 = (ee_u8)((data & 1) ^ ((ee_u8)crc & 1));
     550:	007fc333          	xor	t1,t6,t2
                if (x16 == 1)
     554:	00137893          	andi	a7,t1,1

00000558 <.LBE165>:
                res->crc=crcu16(retval,res->crc);
     558:	0106df13          	srli	t5,a3,0x10

0000055c <.LBB171>:
                data >>= 1;
     55c:	001ed713          	srli	a4,t4,0x1

00000560 <.LVL143>:
                if (x16 == 1)
     560:	0013d693          	srli	a3,t2,0x1
     564:	22089c63          	bnez	a7,79c <.L201>

00000568 <.L88>:
                x16 = (ee_u8)((data & 1) ^ ((ee_u8)crc & 1));
     568:	00d74333          	xor	t1,a4,a3
                if (x16 == 1)
     56c:	00137893          	andi	a7,t1,1
                data >>= 1;
     570:	002ed713          	srli	a4,t4,0x2
                if (x16 == 1)
     574:	8285                	srli	a3,a3,0x1
     576:	00088b63          	beqz	a7,58c <.L89>

0000057a <.LVL146>:
                   crc |= 0x8000;
     57a:	7569                	lui	a0,0xffffa
     57c:	00150e13          	addi	t3,a0,1 # ffffa001 <STACK+0xfffe1d71>
     580:	01c6c7b3          	xor	a5,a3,t3

00000584 <.LVL147>:
     584:	01079393          	slli	t2,a5,0x10
     588:	0103d693          	srli	a3,t2,0x10

0000058c <.L89>:
                x16 = (ee_u8)((data & 1) ^ ((ee_u8)crc & 1));
     58c:	00e6c333          	xor	t1,a3,a4
                if (x16 == 1)
     590:	00137893          	andi	a7,t1,1
                data >>= 1;
     594:	003ed713          	srli	a4,t4,0x3
                if (x16 == 1)
     598:	8285                	srli	a3,a3,0x1
     59a:	00088b63          	beqz	a7,5b0 <.L90>

0000059e <.LVL150>:
                   crc |= 0x8000;
     59e:	7569                	lui	a0,0xffffa
     5a0:	00150e13          	addi	t3,a0,1 # ffffa001 <STACK+0xfffe1d71>
     5a4:	01c6c7b3          	xor	a5,a3,t3

000005a8 <.LVL151>:
     5a8:	01079393          	slli	t2,a5,0x10
     5ac:	0103d693          	srli	a3,t2,0x10

000005b0 <.L90>:
                x16 = (ee_u8)((data & 1) ^ ((ee_u8)crc & 1));
     5b0:	00e6c333          	xor	t1,a3,a4
                if (x16 == 1)
     5b4:	00137893          	andi	a7,t1,1
                data >>= 1;
     5b8:	004ed713          	srli	a4,t4,0x4
                if (x16 == 1)
     5bc:	8285                	srli	a3,a3,0x1
     5be:	00088b63          	beqz	a7,5d4 <.L91>

000005c2 <.LVL154>:
                   crc |= 0x8000;
     5c2:	7569                	lui	a0,0xffffa
     5c4:	00150e13          	addi	t3,a0,1 # ffffa001 <STACK+0xfffe1d71>
     5c8:	01c6c7b3          	xor	a5,a3,t3

000005cc <.LVL155>:
     5cc:	01079393          	slli	t2,a5,0x10
     5d0:	0103d693          	srli	a3,t2,0x10

000005d4 <.L91>:
                x16 = (ee_u8)((data & 1) ^ ((ee_u8)crc & 1));
     5d4:	00e6c333          	xor	t1,a3,a4
                if (x16 == 1)
     5d8:	00137893          	andi	a7,t1,1
                data >>= 1;
     5dc:	005ed713          	srli	a4,t4,0x5
                if (x16 == 1)
     5e0:	8285                	srli	a3,a3,0x1
     5e2:	00088b63          	beqz	a7,5f8 <.L92>

000005e6 <.LVL158>:
                   crc |= 0x8000;
     5e6:	7569                	lui	a0,0xffffa
     5e8:	00150e13          	addi	t3,a0,1 # ffffa001 <STACK+0xfffe1d71>
     5ec:	01c6c7b3          	xor	a5,a3,t3

000005f0 <.LVL159>:
     5f0:	01079393          	slli	t2,a5,0x10
     5f4:	0103d693          	srli	a3,t2,0x10

000005f8 <.L92>:
                x16 = (ee_u8)((data & 1) ^ ((ee_u8)crc & 1));
     5f8:	00e6c333          	xor	t1,a3,a4
                if (x16 == 1)
     5fc:	00137893          	andi	a7,t1,1
                data >>= 1;
     600:	006ed713          	srli	a4,t4,0x6
                if (x16 == 1)
     604:	8285                	srli	a3,a3,0x1
     606:	00088b63          	beqz	a7,61c <.L93>

0000060a <.LVL162>:
                   crc |= 0x8000;
     60a:	7569                	lui	a0,0xffffa
     60c:	00150e13          	addi	t3,a0,1 # ffffa001 <STACK+0xfffe1d71>
     610:	01c6c7b3          	xor	a5,a3,t3

00000614 <.LVL163>:
     614:	01079393          	slli	t2,a5,0x10
     618:	0103d693          	srli	a3,t2,0x10

0000061c <.L93>:
                x16 = (ee_u8)((data & 1) ^ ((ee_u8)crc & 1));
     61c:	00e6c333          	xor	t1,a3,a4
                if (x16 == 1)
     620:	00137713          	andi	a4,t1,1

00000624 <.LVL165>:
                data >>= 1;
     624:	007ede93          	srli	t4,t4,0x7

00000628 <.LVL166>:
                if (x16 == 1)
     628:	0016d393          	srli	t2,a3,0x1
     62c:	cb11                	beqz	a4,640 <.L94>

0000062e <.LVL167>:
                   crc |= 0x8000;
     62e:	78e9                	lui	a7,0xffffa
     630:	00188513          	addi	a0,a7,1 # ffffa001 <STACK+0xfffe1d71>
     634:	00a3ce33          	xor	t3,t2,a0

00000638 <.LVL168>:
     638:	010e1793          	slli	a5,t3,0x10
     63c:	0107d393          	srli	t2,a5,0x10

00000640 <.L94>:
                if (x16 == 1)
     640:	0013f693          	andi	a3,t2,1
     644:	0013de13          	srli	t3,t2,0x1
     648:	01d68b63          	beq	a3,t4,65e <.L95>

0000064c <.LVL170>:
                   crc |= 0x8000;
     64c:	7369                	lui	t1,0xffffa
     64e:	00130713          	addi	a4,t1,1 # ffffa001 <STACK+0xfffe1d71>
     652:	00ee4eb3          	xor	t4,t3,a4

00000656 <.LVL171>:
     656:	010e9893          	slli	a7,t4,0x10
     65a:	0108de13          	srli	t3,a7,0x10

0000065e <.L95>:
        crc=crcu8( (ee_u8) ((newval)>>8)        ,crc);
     65e:	008f5513          	srli	a0,t5,0x8

00000662 <.LBB172>:
                x16 = (ee_u8)((data & 1) ^ ((ee_u8)crc & 1));
     662:	01c547b3          	xor	a5,a0,t3
                if (x16 == 1)
     666:	0017f393          	andi	t2,a5,1

0000066a <.LBE172>:
        crc=crcu8( (ee_u8) ((newval)>>8)        ,crc);
     66a:	008f5693          	srli	a3,t5,0x8

0000066e <.LBB175>:
                data >>= 1;
     66e:	001e5e13          	srli	t3,t3,0x1
     672:	009f5f13          	srli	t5,t5,0x9

00000676 <.LVL174>:
                if (x16 == 1)
     676:	00038b63          	beqz	t2,68c <.L96>

0000067a <.LVL175>:
                   crc |= 0x8000;
     67a:	7369                	lui	t1,0xffffa
     67c:	00130713          	addi	a4,t1,1 # ffffa001 <STACK+0xfffe1d71>
     680:	00ee4eb3          	xor	t4,t3,a4

00000684 <.LVL176>:
     684:	010e9893          	slli	a7,t4,0x10
     688:	0108de13          	srli	t3,a7,0x10

0000068c <.L96>:
                x16 = (ee_u8)((data & 1) ^ ((ee_u8)crc & 1));
     68c:	01ee4533          	xor	a0,t3,t5
                if (x16 == 1)
     690:	00157393          	andi	t2,a0,1
                data >>= 1;
     694:	0026df13          	srli	t5,a3,0x2
                if (x16 == 1)
     698:	001e5893          	srli	a7,t3,0x1
     69c:	00038b63          	beqz	t2,6b2 <.L97>

000006a0 <.LVL179>:
                   crc |= 0x8000;
     6a0:	7369                	lui	t1,0xffffa
     6a2:	00130713          	addi	a4,t1,1 # ffffa001 <STACK+0xfffe1d71>
     6a6:	00e8c7b3          	xor	a5,a7,a4

000006aa <.LVL180>:
     6aa:	01079e93          	slli	t4,a5,0x10
     6ae:	010ed893          	srli	a7,t4,0x10

000006b2 <.L97>:
                x16 = (ee_u8)((data & 1) ^ ((ee_u8)crc & 1));
     6b2:	011f4e33          	xor	t3,t5,a7
                if (x16 == 1)
     6b6:	001e7513          	andi	a0,t3,1
                data >>= 1;
     6ba:	0036d393          	srli	t2,a3,0x3

000006be <.LVL182>:
                if (x16 == 1)
     6be:	0018de93          	srli	t4,a7,0x1
     6c2:	c911                	beqz	a0,6d6 <.L98>

000006c4 <.LVL183>:
                   crc |= 0x8000;
     6c4:	7f69                	lui	t5,0xffffa
     6c6:	001f0313          	addi	t1,t5,1 # ffffa001 <STACK+0xfffe1d71>
     6ca:	006ec733          	xor	a4,t4,t1

000006ce <.LVL184>:
     6ce:	01071793          	slli	a5,a4,0x10
     6d2:	0107de93          	srli	t4,a5,0x10

000006d6 <.L98>:
                x16 = (ee_u8)((data & 1) ^ ((ee_u8)crc & 1));
     6d6:	01d3c8b3          	xor	a7,t2,t4
                if (x16 == 1)
     6da:	0018fe13          	andi	t3,a7,1
                data >>= 1;
     6de:	0046d513          	srli	a0,a3,0x4

000006e2 <.LVL186>:
                if (x16 == 1)
     6e2:	001ed793          	srli	a5,t4,0x1
     6e6:	000e0b63          	beqz	t3,6fc <.L99>

000006ea <.LVL187>:
                   crc |= 0x8000;
     6ea:	73e9                	lui	t2,0xffffa
     6ec:	00138f13          	addi	t5,t2,1 # ffffa001 <STACK+0xfffe1d71>
     6f0:	01e7c333          	xor	t1,a5,t5

000006f4 <.LVL188>:
     6f4:	01031713          	slli	a4,t1,0x10
     6f8:	01075793          	srli	a5,a4,0x10

000006fc <.L99>:
                x16 = (ee_u8)((data & 1) ^ ((ee_u8)crc & 1));
     6fc:	00a7ceb3          	xor	t4,a5,a0
                if (x16 == 1)
     700:	001ef893          	andi	a7,t4,1
                data >>= 1;
     704:	0056de13          	srli	t3,a3,0x5

00000708 <.LVL190>:
                if (x16 == 1)
     708:	0017d713          	srli	a4,a5,0x1
     70c:	00088b63          	beqz	a7,722 <.L100>

00000710 <.LVL191>:
                   crc |= 0x8000;
     710:	7569                	lui	a0,0xffffa
     712:	00150393          	addi	t2,a0,1 # ffffa001 <STACK+0xfffe1d71>
     716:	00774f33          	xor	t5,a4,t2

0000071a <.LVL192>:
     71a:	010f1313          	slli	t1,t5,0x10
     71e:	01035713          	srli	a4,t1,0x10

00000722 <.L100>:
                x16 = (ee_u8)((data & 1) ^ ((ee_u8)crc & 1));
     722:	01c747b3          	xor	a5,a4,t3
                if (x16 == 1)
     726:	0017fe93          	andi	t4,a5,1
                data >>= 1;
     72a:	0066d893          	srli	a7,a3,0x6

0000072e <.LVL194>:
                if (x16 == 1)
     72e:	00175313          	srli	t1,a4,0x1
     732:	000e8b63          	beqz	t4,748 <.L101>

00000736 <.LVL195>:
                   crc |= 0x8000;
     736:	7e69                	lui	t3,0xffffa
     738:	001e0513          	addi	a0,t3,1 # ffffa001 <STACK+0xfffe1d71>
     73c:	00a343b3          	xor	t2,t1,a0

00000740 <.LVL196>:
     740:	01039f13          	slli	t5,t2,0x10
     744:	010f5313          	srli	t1,t5,0x10

00000748 <.L101>:
                x16 = (ee_u8)((data & 1) ^ ((ee_u8)crc & 1));
     748:	01134733          	xor	a4,t1,a7
                if (x16 == 1)
     74c:	00177e93          	andi	t4,a4,1
                data >>= 1;
     750:	829d                	srli	a3,a3,0x7

00000752 <.LVL198>:
                if (x16 == 1)
     752:	00135393          	srli	t2,t1,0x1
     756:	000e8b63          	beqz	t4,76c <.L102>

0000075a <.LVL199>:
                   crc |= 0x8000;
     75a:	78e9                	lui	a7,0xffffa
     75c:	00188e13          	addi	t3,a7,1 # ffffa001 <STACK+0xfffe1d71>
     760:	01c3c7b3          	xor	a5,t2,t3

00000764 <.LVL200>:
     764:	01079513          	slli	a0,a5,0x10
     768:	01055393          	srli	t2,a0,0x10

0000076c <.L102>:
                if (x16 == 1)
     76c:	0013ff13          	andi	t5,t2,1
     770:	0013d893          	srli	a7,t2,0x1
     774:	00df0b63          	beq	t5,a3,78a <.L103>

00000778 <.LVL202>:
                   crc |= 0x8000;
     778:	7369                	lui	t1,0xffffa
     77a:	00130713          	addi	a4,t1,1 # ffffa001 <STACK+0xfffe1d71>
     77e:	00e8ceb3          	xor	t4,a7,a4
     782:	010e9693          	slli	a3,t4,0x10
     786:	0106d893          	srli	a7,a3,0x10

0000078a <.L103>:
                res->crc=crcu16(retval,res->crc);
     78a:	03161423          	sh	a7,40(a2)

0000078e <.LVL204>:
                *pdata = (data & 0xff00) | 0x0080 | retval; /* cache the result */
     78e:	080fe613          	ori	a2,t6,128

00000792 <.LVL205>:
     792:	00c59023          	sh	a2,0(a1)

00000796 <.L87>:
}
     796:	40580533          	sub	a0,a6,t0
     79a:	8082                	ret

0000079c <.L201>:
                   crc |= 0x8000;
     79c:	7569                	lui	a0,0xffffa
     79e:	00150e13          	addi	t3,a0,1 # ffffa001 <STACK+0xfffe1d71>
     7a2:	01c6c7b3          	xor	a5,a3,t3

000007a6 <.LVL208>:
     7a6:	01079393          	slli	t2,a5,0x10

000007aa <.LVL209>:
     7aa:	0103d693          	srli	a3,t2,0x10

000007ae <.LVL210>:
     7ae:	bb6d                	j	568 <.L88>

000007b0 <.L200>:
     7b0:	7fe9                	lui	t6,0xffffa
     7b2:	001f8293          	addi	t0,t6,1 # ffffa001 <STACK+0xfffe1d71>
     7b6:	0056c7b3          	xor	a5,a3,t0

000007ba <.LVL212>:
     7ba:	01079393          	slli	t2,a5,0x10

000007be <.LVL213>:
     7be:	0103d693          	srli	a3,t2,0x10

000007c2 <.LVL214>:
     7c2:	be3d                	j	300 <.L71>

000007c4 <cmp_idx>:
        if (res==NULL) {
     7c4:	c619                	beqz	a2,7d2 <.L204>
        return a->idx - b->idx;
     7c6:	00251503          	lh	a0,2(a0)

000007ca <.LVL216>:
     7ca:	00259583          	lh	a1,2(a1)

000007ce <.LVL217>:
}
     7ce:	8d0d                	sub	a0,a0,a1
     7d0:	8082                	ret

000007d2 <.L204>:
                a->data16 = (a->data16 & 0xff00) | (0x00ff & (a->data16>>8));
     7d2:	00051783          	lh	a5,0(a0)
     7d6:	01079713          	slli	a4,a5,0x10
     7da:	01075293          	srli	t0,a4,0x10
     7de:	f007f313          	andi	t1,a5,-256
     7e2:	0082d393          	srli	t2,t0,0x8
     7e6:	00736633          	or	a2,t1,t2

000007ea <.LVL219>:
     7ea:	00c51023          	sh	a2,0(a0)
                b->data16 = (b->data16 & 0xff00) | (0x00ff & (b->data16>>8));
     7ee:	00059683          	lh	a3,0(a1)
        return a->idx - b->idx;
     7f2:	00251503          	lh	a0,2(a0)

000007f6 <.LVL220>:
                b->data16 = (b->data16 & 0xff00) | (0x00ff & (b->data16>>8));
     7f6:	01069813          	slli	a6,a3,0x10
     7fa:	01085893          	srli	a7,a6,0x10
     7fe:	f006fe13          	andi	t3,a3,-256
     802:	0088de93          	srli	t4,a7,0x8
     806:	01de6f33          	or	t5,t3,t4
     80a:	01e59023          	sh	t5,0(a1)
        return a->idx - b->idx;
     80e:	00259583          	lh	a1,2(a1)

00000812 <.LVL221>:
}
     812:	8d0d                	sub	a0,a0,a1
     814:	8082                	ret

00000816 <copy_info>:
        to->data16=from->data16;
     816:	00059703          	lh	a4,0(a1)
        to->idx=from->idx;
     81a:	00259783          	lh	a5,2(a1)
        to->data16=from->data16;
     81e:	00e51023          	sh	a4,0(a0)
        to->idx=from->idx;
     822:	00f51123          	sh	a5,2(a0)
}
     826:	8082                	ret

00000828 <core_bench_list>:
        ee_s16 find_num=res->seed3;
     828:	00451e03          	lh	t3,4(a0)
ee_u16 core_bench_list(core_results *res, ee_s16 finder_idx) {
     82c:	7139                	addi	sp,sp,-64
     82e:	dc22                	sw	s0,56(sp)
     830:	c66e                	sw	s11,12(sp)
     832:	de06                	sw	ra,60(sp)
     834:	da26                	sw	s1,52(sp)
     836:	d84a                	sw	s2,48(sp)
     838:	d64e                	sw	s3,44(sp)
     83a:	d452                	sw	s4,40(sp)
     83c:	d256                	sw	s5,36(sp)
     83e:	d05a                	sw	s6,32(sp)
     840:	ce5e                	sw	s7,28(sp)
     842:	cc62                	sw	s8,24(sp)
     844:	ca66                	sw	s9,20(sp)
     846:	c86a                	sw	s10,16(sp)
        list_head *list=res->list;
     848:	5140                	lw	s0,36(a0)
ee_u16 core_bench_list(core_results *res, ee_s16 finder_idx) {
     84a:	8daa                	mv	s11,a0

0000084c <.LVL224>:
     84c:	832e                	mv	t1,a1

0000084e <.LVL225>:
        for (i=0; i<find_num; i++) {
     84e:	0fc05de3          	blez	t3,1148 <.L299>
        info.idx=finder_idx;
     852:	8bae                	mv	s7,a1
        for (i=0; i<find_num; i++) {
     854:	4501                	li	a0,0

00000856 <.LVL226>:
        ee_u16 found=0,missed=0;
     856:	4e81                	li	t4,0
     858:	4c01                	li	s8,0
        ee_u16 retval=0;
     85a:	4f01                	li	t5,0

0000085c <.L220>:
                info.data16= (i & 0xff) ;
     85c:	0ff57c93          	andi	s9,a0,255

00000860 <.LBB221>:
        if (info->idx>=0) {
     860:	3a0bc163          	bltz	s7,c02 <.L551>
                while (list && (list->info->idx != info->idx))
     864:	0e0406e3          	beqz	s0,1150 <.L209>
     868:	87a2                	mv	a5,s0
     86a:	a019                	j	870 <.L211>

0000086c <.L213>:
                        list=list->next;
     86c:	439c                	lw	a5,0(a5)
                while (list && (list->info->idx != info->idx))
     86e:	c799                	beqz	a5,87c <.L212>

00000870 <.L211>:
     870:	0047a283          	lw	t0,4(a5)
     874:	00229383          	lh	t2,2(t0)
     878:	ff739ae3          	bne	t2,s7,86c <.L213>

0000087c <.L212>:
                while (list && ((list->info->data16 & 0xff) != info->data16))
     87c:	8a22                	mv	s4,s0

0000087e <.LBB233>:
                tmp=list->next;
     87e:	000a2603          	lw	a2,0(s4)
        list_head *next=NULL, *tmp;
     882:	4b01                	li	s6,0

00000884 <.LVL233>:
                list->next=next;
     884:	016a2023          	sw	s6,0(s4)
     888:	8452                	mv	s0,s4

0000088a <.LVL234>:
        while (list) {
     88a:	c63d                	beqz	a2,8f8 <.L541>

0000088c <.L301>:
                tmp=list->next;
     88c:	420c                	lw	a1,0(a2)
                list->next=next;
     88e:	01462023          	sw	s4,0(a2)
     892:	8b52                	mv	s6,s4
                tmp=list->next;
     894:	8432                	mv	s0,a2
        while (list) {
     896:	c1ad                	beqz	a1,8f8 <.L541>
                tmp=list->next;
     898:	4194                	lw	a3,0(a1)
                list->next=next;
     89a:	c190                	sw	a2,0(a1)
     89c:	8b32                	mv	s6,a2
                tmp=list->next;
     89e:	842e                	mv	s0,a1
        while (list) {
     8a0:	cea1                	beqz	a3,8f8 <.L541>
                tmp=list->next;
     8a2:	4284                	lw	s1,0(a3)
                list->next=next;
     8a4:	c28c                	sw	a1,0(a3)
     8a6:	8b2e                	mv	s6,a1
                tmp=list->next;
     8a8:	8436                	mv	s0,a3
        while (list) {
     8aa:	c4b9                	beqz	s1,8f8 <.L541>
                tmp=list->next;
     8ac:	0004a903          	lw	s2,0(s1)
                list->next=next;
     8b0:	c094                	sw	a3,0(s1)
     8b2:	8b36                	mv	s6,a3
                tmp=list->next;
     8b4:	8426                	mv	s0,s1
        while (list) {
     8b6:	04090163          	beqz	s2,8f8 <.L541>
                tmp=list->next;
     8ba:	00092803          	lw	a6,0(s2)
                list->next=next;
     8be:	00992023          	sw	s1,0(s2)
     8c2:	8b26                	mv	s6,s1
                tmp=list->next;
     8c4:	844a                	mv	s0,s2
        while (list) {
     8c6:	02080963          	beqz	a6,8f8 <.L541>
                tmp=list->next;
     8ca:	00082983          	lw	s3,0(a6)
                list->next=next;
     8ce:	01282023          	sw	s2,0(a6)
     8d2:	8b4a                	mv	s6,s2
                tmp=list->next;
     8d4:	8442                	mv	s0,a6
        while (list) {
     8d6:	02098163          	beqz	s3,8f8 <.L541>
                tmp=list->next;
     8da:	0009aa03          	lw	s4,0(s3)
                list->next=next;
     8de:	0109a023          	sw	a6,0(s3)
     8e2:	8b42                	mv	s6,a6
                tmp=list->next;
     8e4:	844e                	mv	s0,s3
        while (list) {
     8e6:	000a0963          	beqz	s4,8f8 <.L541>
                tmp=list->next;
     8ea:	000a2603          	lw	a2,0(s4)
     8ee:	8b4e                	mv	s6,s3

000008f0 <.LVL236>:
                list->next=next;
     8f0:	016a2023          	sw	s6,0(s4)
     8f4:	8452                	mv	s0,s4

000008f6 <.LVL237>:
        while (list) {
     8f6:	fa59                	bnez	a2,88c <.L301>

000008f8 <.L541>:
                if (this_find==NULL) {
     8f8:	32078263          	beqz	a5,c1c <.L552>
                        if (this_find->info->data16 & 0x1) /* use found value */
     8fc:	0047aa83          	lw	s5,4(a5)
                        found++;
     900:	001c0893          	addi	a7,s8,1
     904:	01089b13          	slli	s6,a7,0x10
                        if (this_find->info->data16 & 0x1) /* use found value */
     908:	000a9d03          	lh	s10,0(s5)
                        found++;
     90c:	010b5c13          	srli	s8,s6,0x10
                        if (this_find->info->data16 & 0x1) /* use found value */
     910:	001d7f93          	andi	t6,s10,1
     914:	000f8b63          	beqz	t6,92a <.L218>
                                retval+=(this_find->info->data16 >> 9) & 1;
     918:	409d5713          	srai	a4,s10,0x9
     91c:	00177093          	andi	ra,a4,1
     920:	9f06                	add	t5,t5,ra

00000922 <.LVL239>:
     922:	010f1293          	slli	t0,t5,0x10
     926:	0102df13          	srli	t5,t0,0x10

0000092a <.L218>:
                        if (this_find->next != NULL) {
     92a:	0007a383          	lw	t2,0(a5)
     92e:	00038a63          	beqz	t2,942 <.L217>

00000932 <.LVL241>:
                                this_find->next = finder->next;
     932:	0003a603          	lw	a2,0(t2)
     936:	c390                	sw	a2,0(a5)
                                finder->next=list->next;
     938:	401c                	lw	a5,0(s0)

0000093a <.LVL242>:
     93a:	00f3a023          	sw	a5,0(t2)
                                list->next=finder;
     93e:	00742023          	sw	t2,0(s0)

00000942 <.L217>:
                if (info.idx>=0)
     942:	000bc763          	bltz	s7,950 <.L219>
                        info.idx++;
     946:	0b85                	addi	s7,s7,1

00000948 <.LVL244>:
     948:	010b9a13          	slli	s4,s7,0x10
     94c:	410a5b93          	srai	s7,s4,0x10

00000950 <.L219>:
        for (i=0; i<find_num; i++) {
     950:	0505                	addi	a0,a0,1

00000952 <.LVL246>:
     952:	01051a93          	slli	s5,a0,0x10
     956:	410ad513          	srai	a0,s5,0x10

0000095a <.LVL247>:
     95a:	f0ae11e3          	bne	t3,a0,85c <.L220>
        retval+=found*4-missed;
     95e:	002c1e13          	slli	t3,s8,0x2

00000962 <.LVL248>:
     962:	41de08b3          	sub	a7,t3,t4
     966:	011f0b33          	add	s6,t5,a7
     96a:	010b1c13          	slli	s8,s6,0x10

0000096e <.LVL249>:
     96e:	010c5493          	srli	s1,s8,0x10

00000972 <.L207>:
        if (finder_idx>0)
     972:	6c604163          	bgtz	t1,1034 <.L553>

00000976 <.L221>:
        remover=core_list_remove(list->next);
     976:	00042d83          	lw	s11,0(s0)

0000097a <.LBB234>:
        list_head *ret=item->next;
     97a:	87a2                	mv	a5,s0

0000097c <.LBB243>:
     97c:	000da503          	lw	a0,0(s11)

00000980 <.LVL253>:
        tmp=item->info;
     980:	004daa03          	lw	s4,4(s11)

00000984 <.LVL254>:
        item->info=ret->info;
     984:	414c                	lw	a1,4(a0)
        item->next=item->next->next;
     986:	00052e83          	lw	t4,0(a0)
        item->info=ret->info;
     98a:	00bda223          	sw	a1,4(s11)
        ret->info=tmp;
     98e:	01452223          	sw	s4,4(a0)
        item->next=item->next->next;
     992:	01dda023          	sw	t4,0(s11)
        ret->next=NULL;
     996:	00052023          	sw	zero,0(a0)

0000099a <.LBB244>:
        if (info->idx>=0) {
     99a:	240bc163          	bltz	s7,bdc <.L554>

0000099e <.L238>:
                while (list && (list->info->idx != info->idx))
     99e:	0047ac83          	lw	s9,4(a5)
                        list=list->next;
     9a2:	439c                	lw	a5,0(a5)

000009a4 <.LVL257>:
                while (list && (list->info->idx != info->idx))
     9a4:	002c9803          	lh	a6,2(s9)
     9a8:	25780863          	beq	a6,s7,bf8 <.L242>

000009ac <.LVL258>:
     9ac:	fbed                	bnez	a5,99e <.L238>

000009ae <.L240>:
                finder=list->next;
     9ae:	00042d03          	lw	s10,0(s0)

000009b2 <.LBB245>:
        item_removed->next=item_modified->next;
     9b2:	000d2783          	lw	a5,0(s10)
     9b6:	80be                	mv	ra,a5

000009b8 <.L298>:
                retval=crc16(list->info->data16,retval);
     9b8:	00442a83          	lw	s5,4(s0)

000009bc <.LBB250>:
                   crc |= 0x8000;
     9bc:	7e69                	lui	t3,0xffffa
     9be:	001e0713          	addi	a4,t3,1 # ffffa001 <STACK+0xfffe1d71>

000009c2 <.LBE250>:
                retval=crc16(list->info->data16,retval);
     9c2:	000a9c03          	lh	s8,0(s5)

000009c6 <.LBB270>:
        crc=crcu8( (ee_u8) ((newval)>>8)        ,crc);
     9c6:	010c1893          	slli	a7,s8,0x10
     9ca:	0108db13          	srli	s6,a7,0x10
     9ce:	008b5f93          	srli	t6,s6,0x8
        crc=crcu8( (ee_u8) (newval)                             ,crc);
     9d2:	0ffc7313          	andi	t1,s8,255

000009d6 <.LBB259>:
                x16 = (ee_u8)((data & 1) ^ ((ee_u8)crc & 1));
     9d6:	018c1293          	slli	t0,s8,0x18

000009da <.LBB260>:
     9da:	018f9f13          	slli	t5,t6,0x18

000009de <.LBB264>:
     9de:	00135593          	srli	a1,t1,0x1
     9e2:	00235813          	srli	a6,t1,0x2
     9e6:	00335b93          	srli	s7,t1,0x3

000009ea <.LVL262>:
     9ea:	00435993          	srli	s3,t1,0x4
     9ee:	00535913          	srli	s2,t1,0x5
     9f2:	00635393          	srli	t2,t1,0x6
     9f6:	00735613          	srli	a2,t1,0x7
     9fa:	4182dd93          	srai	s11,t0,0x18

000009fe <.LBB265>:
     9fe:	418f5a93          	srai	s5,t5,0x18
     a02:	009b5c13          	srli	s8,s6,0x9
     a06:	00ab5893          	srli	a7,s6,0xa
     a0a:	00bb5f93          	srli	t6,s6,0xb
     a0e:	00cb5e93          	srli	t4,s6,0xc
     a12:	00db5e13          	srli	t3,s6,0xd
     a16:	00eb5313          	srli	t1,s6,0xe
     a1a:	00fb5693          	srli	a3,s6,0xf

00000a1e <.L261>:
     a1e:	009dccb3          	xor	s9,s11,s1
                if (x16 == 1)
     a22:	001cfb13          	andi	s6,s9,1
                crc >>= 1;
     a26:	0014df13          	srli	t5,s1,0x1
                if (x16 == 1)
     a2a:	000b0863          	beqz	s6,a3a <.L244>

00000a2e <.LVL264>:
                   crc |= 0x8000;
     a2e:	00ef44b3          	xor	s1,t5,a4

00000a32 <.LVL265>:
     a32:	01049293          	slli	t0,s1,0x10
     a36:	0102df13          	srli	t5,t0,0x10

00000a3a <.L244>:
                x16 = (ee_u8)((data & 1) ^ ((ee_u8)crc & 1));
     a3a:	01e5ccb3          	xor	s9,a1,t5
                if (x16 == 1)
     a3e:	001cfb13          	andi	s6,s9,1
     a42:	001f5f13          	srli	t5,t5,0x1
     a46:	000b0863          	beqz	s6,a56 <.L245>

00000a4a <.LVL267>:
                   crc |= 0x8000;
     a4a:	00ef44b3          	xor	s1,t5,a4

00000a4e <.LVL268>:
     a4e:	01049293          	slli	t0,s1,0x10
     a52:	0102df13          	srli	t5,t0,0x10

00000a56 <.L245>:
                x16 = (ee_u8)((data & 1) ^ ((ee_u8)crc & 1));
     a56:	01e84cb3          	xor	s9,a6,t5
                if (x16 == 1)
     a5a:	001cfb13          	andi	s6,s9,1
     a5e:	001f5f13          	srli	t5,t5,0x1
     a62:	000b0863          	beqz	s6,a72 <.L246>

00000a66 <.LVL270>:
                   crc |= 0x8000;
     a66:	00ef44b3          	xor	s1,t5,a4

00000a6a <.LVL271>:
     a6a:	01049293          	slli	t0,s1,0x10
     a6e:	0102df13          	srli	t5,t0,0x10

00000a72 <.L246>:
                x16 = (ee_u8)((data & 1) ^ ((ee_u8)crc & 1));
     a72:	01ebccb3          	xor	s9,s7,t5
                if (x16 == 1)
     a76:	001cfb13          	andi	s6,s9,1
     a7a:	001f5f13          	srli	t5,t5,0x1
     a7e:	000b0863          	beqz	s6,a8e <.L247>

00000a82 <.LVL273>:
                   crc |= 0x8000;
     a82:	00ef44b3          	xor	s1,t5,a4

00000a86 <.LVL274>:
     a86:	01049293          	slli	t0,s1,0x10
     a8a:	0102df13          	srli	t5,t0,0x10

00000a8e <.L247>:
                x16 = (ee_u8)((data & 1) ^ ((ee_u8)crc & 1));
     a8e:	01e9ccb3          	xor	s9,s3,t5
                if (x16 == 1)
     a92:	001cfb13          	andi	s6,s9,1
     a96:	001f5f13          	srli	t5,t5,0x1
     a9a:	000b0863          	beqz	s6,aaa <.L248>

00000a9e <.LVL276>:
                   crc |= 0x8000;
     a9e:	00ef44b3          	xor	s1,t5,a4

00000aa2 <.LVL277>:
     aa2:	01049293          	slli	t0,s1,0x10
     aa6:	0102df13          	srli	t5,t0,0x10

00000aaa <.L248>:
                x16 = (ee_u8)((data & 1) ^ ((ee_u8)crc & 1));
     aaa:	01e94cb3          	xor	s9,s2,t5
                if (x16 == 1)
     aae:	001cfb13          	andi	s6,s9,1
     ab2:	001f5f13          	srli	t5,t5,0x1
     ab6:	000b0863          	beqz	s6,ac6 <.L249>

00000aba <.LVL279>:
                   crc |= 0x8000;
     aba:	00ef44b3          	xor	s1,t5,a4

00000abe <.LVL280>:
     abe:	01049293          	slli	t0,s1,0x10
     ac2:	0102df13          	srli	t5,t0,0x10

00000ac6 <.L249>:
                x16 = (ee_u8)((data & 1) ^ ((ee_u8)crc & 1));
     ac6:	01e3ccb3          	xor	s9,t2,t5
                if (x16 == 1)
     aca:	001cfb13          	andi	s6,s9,1
     ace:	001f5f13          	srli	t5,t5,0x1
     ad2:	000b0863          	beqz	s6,ae2 <.L250>

00000ad6 <.LVL282>:
                   crc |= 0x8000;
     ad6:	00ef44b3          	xor	s1,t5,a4

00000ada <.LVL283>:
     ada:	01049293          	slli	t0,s1,0x10
     ade:	0102df13          	srli	t5,t0,0x10

00000ae2 <.L250>:
                if (x16 == 1)
     ae2:	001f7c93          	andi	s9,t5,1
     ae6:	001f5293          	srli	t0,t5,0x1
     aea:	00cc8863          	beq	s9,a2,afa <.L251>

00000aee <.LVL285>:
                   crc |= 0x8000;
     aee:	00e2cb33          	xor	s6,t0,a4

00000af2 <.LVL286>:
     af2:	010b1493          	slli	s1,s6,0x10
     af6:	0104d293          	srli	t0,s1,0x10

00000afa <.L251>:
                x16 = (ee_u8)((data & 1) ^ ((ee_u8)crc & 1));
     afa:	005acf33          	xor	t5,s5,t0
                if (x16 == 1)
     afe:	001f7c93          	andi	s9,t5,1
     b02:	0012d293          	srli	t0,t0,0x1
     b06:	000c8863          	beqz	s9,b16 <.L252>

00000b0a <.LVL288>:
                   crc |= 0x8000;
     b0a:	00e2cb33          	xor	s6,t0,a4

00000b0e <.LVL289>:
     b0e:	010b1493          	slli	s1,s6,0x10
     b12:	0104d293          	srli	t0,s1,0x10

00000b16 <.L252>:
                x16 = (ee_u8)((data & 1) ^ ((ee_u8)crc & 1));
     b16:	005c4f33          	xor	t5,s8,t0
                if (x16 == 1)
     b1a:	001f7c93          	andi	s9,t5,1
     b1e:	0012d293          	srli	t0,t0,0x1
     b22:	000c8863          	beqz	s9,b32 <.L253>

00000b26 <.LVL291>:
                   crc |= 0x8000;
     b26:	00e2cb33          	xor	s6,t0,a4

00000b2a <.LVL292>:
     b2a:	010b1493          	slli	s1,s6,0x10
     b2e:	0104d293          	srli	t0,s1,0x10

00000b32 <.L253>:
                x16 = (ee_u8)((data & 1) ^ ((ee_u8)crc & 1));
     b32:	0058cf33          	xor	t5,a7,t0
                if (x16 == 1)
     b36:	001f7c93          	andi	s9,t5,1
     b3a:	0012d293          	srli	t0,t0,0x1
     b3e:	000c8863          	beqz	s9,b4e <.L254>

00000b42 <.LVL294>:
                   crc |= 0x8000;
     b42:	00e2cb33          	xor	s6,t0,a4

00000b46 <.LVL295>:
     b46:	010b1493          	slli	s1,s6,0x10
     b4a:	0104d293          	srli	t0,s1,0x10

00000b4e <.L254>:
                x16 = (ee_u8)((data & 1) ^ ((ee_u8)crc & 1));
     b4e:	005fcf33          	xor	t5,t6,t0
                if (x16 == 1)
     b52:	001f7c93          	andi	s9,t5,1
     b56:	0012d293          	srli	t0,t0,0x1
     b5a:	000c8863          	beqz	s9,b6a <.L255>

00000b5e <.LVL297>:
                   crc |= 0x8000;
     b5e:	00e2cb33          	xor	s6,t0,a4

00000b62 <.LVL298>:
     b62:	010b1493          	slli	s1,s6,0x10
     b66:	0104d293          	srli	t0,s1,0x10

00000b6a <.L255>:
                x16 = (ee_u8)((data & 1) ^ ((ee_u8)crc & 1));
     b6a:	005ecf33          	xor	t5,t4,t0
                if (x16 == 1)
     b6e:	001f7c93          	andi	s9,t5,1
     b72:	0012d293          	srli	t0,t0,0x1
     b76:	000c8863          	beqz	s9,b86 <.L256>

00000b7a <.LVL300>:
                   crc |= 0x8000;
     b7a:	00e2cb33          	xor	s6,t0,a4

00000b7e <.LVL301>:
     b7e:	010b1493          	slli	s1,s6,0x10
     b82:	0104d293          	srli	t0,s1,0x10

00000b86 <.L256>:
                x16 = (ee_u8)((data & 1) ^ ((ee_u8)crc & 1));
     b86:	005e4f33          	xor	t5,t3,t0
                if (x16 == 1)
     b8a:	001f7c93          	andi	s9,t5,1
     b8e:	0012d293          	srli	t0,t0,0x1
     b92:	000c8863          	beqz	s9,ba2 <.L257>

00000b96 <.LVL303>:
                   crc |= 0x8000;
     b96:	00e2cb33          	xor	s6,t0,a4

00000b9a <.LVL304>:
     b9a:	010b1493          	slli	s1,s6,0x10
     b9e:	0104d293          	srli	t0,s1,0x10

00000ba2 <.L257>:
                x16 = (ee_u8)((data & 1) ^ ((ee_u8)crc & 1));
     ba2:	00534f33          	xor	t5,t1,t0
                if (x16 == 1)
     ba6:	001f7c93          	andi	s9,t5,1
     baa:	0012d293          	srli	t0,t0,0x1
     bae:	000c8863          	beqz	s9,bbe <.L258>

00000bb2 <.LVL306>:
                   crc |= 0x8000;
     bb2:	00e2cb33          	xor	s6,t0,a4

00000bb6 <.LVL307>:
     bb6:	010b1493          	slli	s1,s6,0x10
     bba:	0104d293          	srli	t0,s1,0x10

00000bbe <.L258>:
                if (x16 == 1)
     bbe:	0012ff13          	andi	t5,t0,1
     bc2:	0012d493          	srli	s1,t0,0x1

00000bc6 <.LVL309>:
     bc6:	00df0863          	beq	t5,a3,bd6 <.L259>

00000bca <.LVL310>:
                   crc |= 0x8000;
     bca:	00e4ccb3          	xor	s9,s1,a4

00000bce <.LVL311>:
     bce:	010c9b13          	slli	s6,s9,0x10
     bd2:	010b5493          	srli	s1,s6,0x10

00000bd6 <.L259>:
        while (finder) {
     bd6:	c7ad                	beqz	a5,c40 <.L260>
                finder=finder->next;
     bd8:	439c                	lw	a5,0(a5)
     bda:	b591                	j	a1e <.L261>

00000bdc <.L554>:
                while (list && ((list->info->data16 & 0xff) != info->data16))
     bdc:	43d4                	lw	a3,4(a5)
                        list=list->next;
     bde:	439c                	lw	a5,0(a5)
                while (list && ((list->info->data16 & 0xff) != info->data16))
     be0:	0006c903          	lbu	s2,0(a3)
     be4:	01990a63          	beq	s2,s9,bf8 <.L242>

00000be8 <.L243>:
     be8:	dc0783e3          	beqz	a5,9ae <.L240>

00000bec <.LVL315>:
     bec:	43d4                	lw	a3,4(a5)
                        list=list->next;
     bee:	439c                	lw	a5,0(a5)

00000bf0 <.LVL316>:
                while (list && ((list->info->data16 & 0xff) != info->data16))
     bf0:	0006c903          	lbu	s2,0(a3)
     bf4:	ff991ae3          	bne	s2,s9,be8 <.L243>

00000bf8 <.L242>:
        remover=core_list_undo_remove(remover,list->next);
     bf8:	00042d03          	lw	s10,0(s0)

00000bfc <.LBB277>:
        item_removed->next=item_modified->next;
     bfc:	000d2083          	lw	ra,0(s10)
     c00:	bb65                	j	9b8 <.L298>

00000c02 <.L551>:
                while (list && ((list->info->data16 & 0xff) != info->data16))
     c02:	54040763          	beqz	s0,1150 <.L209>
     c06:	87a2                	mv	a5,s0
     c08:	a021                	j	c10 <.L210>

00000c0a <.L214>:
                        list=list->next;
     c0a:	439c                	lw	a5,0(a5)
                while (list && ((list->info->data16 & 0xff) != info->data16))
     c0c:	c60788e3          	beqz	a5,87c <.L212>

00000c10 <.L210>:
     c10:	43d8                	lw	a4,4(a5)
     c12:	00074083          	lbu	ra,0(a4)
     c16:	ff909ae3          	bne	ra,s9,c0a <.L214>
     c1a:	b18d                	j	87c <.L212>

00000c1c <.L552>:
                        retval+=(list->next->info->data16 >> 8) & 1;
     c1c:	004b2583          	lw	a1,4(s6)
                        missed++;
     c20:	0e85                	addi	t4,t4,1

00000c22 <.LVL323>:
     c22:	010e9693          	slli	a3,t4,0x10
                        retval+=(list->next->info->data16 >> 8) & 1;
     c26:	00158483          	lb	s1,1(a1)
                        missed++;
     c2a:	0106de93          	srli	t4,a3,0x10

00000c2e <.LVL324>:
                        retval+=(list->next->info->data16 >> 8) & 1;
     c2e:	0014f913          	andi	s2,s1,1
     c32:	012f0833          	add	a6,t5,s2
     c36:	01081993          	slli	s3,a6,0x10
     c3a:	0109df13          	srli	t5,s3,0x10
     c3e:	b311                	j	942 <.L217>

00000c40 <.L260>:
        item_removed->info=item_modified->info;
     c40:	004d2783          	lw	a5,4(s10)

00000c44 <.LBB280>:
        tail = NULL;
     c44:	4681                	li	a3,0
        list = NULL;
     c46:	4e81                	li	t4,0

00000c48 <.LBB285>:
        item_removed->info=item_modified->info;
     c48:	c15c                	sw	a5,4(a0)
        item_modified->info=tmp;
     c4a:	014d2223          	sw	s4,4(s10)
        item_removed->next=item_modified->next;
     c4e:	00152023          	sw	ra,0(a0)
        item_modified->next=item_removed;
     c52:	00ad2023          	sw	a0,0(s10)

00000c56 <.LBB286>:
    insize = 1;
     c56:	4905                	li	s2,1
        nmerges = 0;  /* count number of merges we do in this pass */
     c58:	4b01                	li	s6,0
        if (nmerges <= 1)   /* allow for nmerges==0, the empty list case */
     c5a:	4a85                	li	s5,1

00000c5c <.L262>:
            nmerges++;  /* there exists a merge to be done */
     c5c:	00797513          	andi	a0,s2,7
     c60:	0b05                	addi	s6,s6,1

00000c62 <.LVL329>:
     c62:	8ba2                	mv	s7,s0
            psize = 0;
     c64:	4981                	li	s3,0
     c66:	c925                	beqz	a0,cd6 <.L265>
     c68:	4a05                	li	s4,1
     c6a:	05450f63          	beq	a0,s4,cc8 <.L479>
     c6e:	4d09                	li	s10,2
     c70:	05a50763          	beq	a0,s10,cbe <.L480>
     c74:	408d                	li	ra,3
     c76:	02150f63          	beq	a0,ra,cb4 <.L481>
     c7a:	4711                	li	a4,4
     c7c:	02e50763          	beq	a0,a4,caa <.L482>
     c80:	4d95                	li	s11,5
     c82:	01b50f63          	beq	a0,s11,ca0 <.L483>
     c86:	4599                	li	a1,6
     c88:	00b50763          	beq	a0,a1,c96 <.L484>

00000c8c <.LVL330>:
                            q = q->next;
     c8c:	00042b83          	lw	s7,0(s0)
                psize++;
     c90:	4985                	li	s3,1

00000c92 <.LVL331>:
                if (!q) break;
     c92:	0a0b8163          	beqz	s7,d34 <.L266>

00000c96 <.L484>:
                            q = q->next;
     c96:	000bab83          	lw	s7,0(s7)

00000c9a <.LVL333>:
                psize++;
     c9a:	0985                	addi	s3,s3,1

00000c9c <.LVL334>:
                if (!q) break;
     c9c:	080b8c63          	beqz	s7,d34 <.L266>

00000ca0 <.L483>:
                            q = q->next;
     ca0:	000bab83          	lw	s7,0(s7)

00000ca4 <.LVL336>:
                psize++;
     ca4:	0985                	addi	s3,s3,1

00000ca6 <.LVL337>:
                if (!q) break;
     ca6:	080b8763          	beqz	s7,d34 <.L266>

00000caa <.L482>:
                            q = q->next;
     caa:	000bab83          	lw	s7,0(s7)

00000cae <.LVL339>:
                psize++;
     cae:	0985                	addi	s3,s3,1

00000cb0 <.LVL340>:
                if (!q) break;
     cb0:	080b8263          	beqz	s7,d34 <.L266>

00000cb4 <.L481>:
                            q = q->next;
     cb4:	000bab83          	lw	s7,0(s7)

00000cb8 <.LVL342>:
                psize++;
     cb8:	0985                	addi	s3,s3,1

00000cba <.LVL343>:
                if (!q) break;
     cba:	060b8d63          	beqz	s7,d34 <.L266>

00000cbe <.L480>:
                            q = q->next;
     cbe:	000bab83          	lw	s7,0(s7)

00000cc2 <.LVL345>:
                psize++;
     cc2:	0985                	addi	s3,s3,1

00000cc4 <.LVL346>:
                if (!q) break;
     cc4:	060b8863          	beqz	s7,d34 <.L266>

00000cc8 <.L479>:
                            q = q->next;
     cc8:	000bab83          	lw	s7,0(s7)

00000ccc <.LVL348>:
                psize++;
     ccc:	0985                	addi	s3,s3,1

00000cce <.LVL349>:
                if (!q) break;
     cce:	060b8363          	beqz	s7,d34 <.L266>

00000cd2 <.L549>:
            for (i = 0; i < insize; i++) {
     cd2:	07390163          	beq	s2,s3,d34 <.L266>

00000cd6 <.L265>:
                            q = q->next;
     cd6:	000bab83          	lw	s7,0(s7)

00000cda <.LVL352>:
                psize++;
     cda:	0985                	addi	s3,s3,1
     cdc:	884e                	mv	a6,s3

00000cde <.LVL353>:
                if (!q) break;
     cde:	040b8b63          	beqz	s7,d34 <.L266>

00000ce2 <.LVL354>:
                            q = q->next;
     ce2:	000bab83          	lw	s7,0(s7)

00000ce6 <.LVL355>:
                psize++;
     ce6:	0985                	addi	s3,s3,1

00000ce8 <.LVL356>:
                if (!q) break;
     ce8:	040b8663          	beqz	s7,d34 <.L266>

00000cec <.LVL357>:
                            q = q->next;
     cec:	000bab83          	lw	s7,0(s7)

00000cf0 <.LVL358>:
                psize++;
     cf0:	00280993          	addi	s3,a6,2

00000cf4 <.LVL359>:
                if (!q) break;
     cf4:	040b8063          	beqz	s7,d34 <.L266>

00000cf8 <.LVL360>:
                            q = q->next;
     cf8:	000bab83          	lw	s7,0(s7)

00000cfc <.LVL361>:
                psize++;
     cfc:	00380993          	addi	s3,a6,3

00000d00 <.LVL362>:
                if (!q) break;
     d00:	020b8a63          	beqz	s7,d34 <.L266>

00000d04 <.LVL363>:
                            q = q->next;
     d04:	000bab83          	lw	s7,0(s7)

00000d08 <.LVL364>:
                psize++;
     d08:	00480993          	addi	s3,a6,4

00000d0c <.LVL365>:
                if (!q) break;
     d0c:	020b8463          	beqz	s7,d34 <.L266>

00000d10 <.LVL366>:
                            q = q->next;
     d10:	000bab83          	lw	s7,0(s7)

00000d14 <.LVL367>:
                psize++;
     d14:	00580993          	addi	s3,a6,5

00000d18 <.LVL368>:
                if (!q) break;
     d18:	000b8e63          	beqz	s7,d34 <.L266>

00000d1c <.LVL369>:
                            q = q->next;
     d1c:	000bab83          	lw	s7,0(s7)

00000d20 <.LVL370>:
                psize++;
     d20:	00680993          	addi	s3,a6,6

00000d24 <.LVL371>:
                if (!q) break;
     d24:	000b8863          	beqz	s7,d34 <.L266>

00000d28 <.LVL372>:
                            q = q->next;
     d28:	000bab83          	lw	s7,0(s7)

00000d2c <.LVL373>:
                psize++;
     d2c:	00780993          	addi	s3,a6,7

00000d30 <.LVL374>:
                if (!q) break;
     d30:	fa0b91e3          	bnez	s7,cd2 <.L549>

00000d34 <.L266>:
                                    list = e;
     d34:	85ca                	mv	a1,s2

00000d36 <.LVL376>:
            while (psize > 0 || (qsize > 0 && q)) {
     d36:	06098663          	beqz	s3,da2 <.L555>

00000d3a <.L272>:
                                } else if (qsize == 0 || !q) {
     d3a:	cdbd                	beqz	a1,db8 <.L550>
     d3c:	060b8e63          	beqz	s7,db8 <.L550>
                                } else if (cmp(p->info,q->info,res) <= 0) {
     d40:	405c                	lw	a5,4(s0)
     d42:	004bad03          	lw	s10,4(s7)

00000d46 <.LBB282>:
                a->data16 = (a->data16 & 0xff00) | (0x00ff & (a->data16>>8));
     d46:	00079083          	lh	ra,0(a5)
        return a->idx - b->idx;
     d4a:	002d1283          	lh	t0,2(s10)
     d4e:	00279d83          	lh	s11,2(a5)
                a->data16 = (a->data16 & 0xff00) | (0x00ff & (a->data16>>8));
     d52:	01009513          	slli	a0,ra,0x10
     d56:	01055f13          	srli	t5,a0,0x10
     d5a:	f000f813          	andi	a6,ra,-256
     d5e:	008f5313          	srli	t1,t5,0x8
     d62:	00686733          	or	a4,a6,t1
     d66:	00e79023          	sh	a4,0(a5)
                b->data16 = (b->data16 & 0xff00) | (0x00ff & (b->data16>>8));
     d6a:	000d1f83          	lh	t6,0(s10)
        return a->idx - b->idx;
     d6e:	405d8e33          	sub	t3,s11,t0
                b->data16 = (b->data16 & 0xff00) | (0x00ff & (b->data16>>8));
     d72:	010f9a13          	slli	s4,t6,0x10
     d76:	010a5393          	srli	t2,s4,0x10
     d7a:	f00ffc13          	andi	s8,t6,-256
     d7e:	0083d613          	srli	a2,t2,0x8
     d82:	00cc6cb3          	or	s9,s8,a2
     d86:	019d1023          	sh	s9,0(s10)

00000d8a <.LBE282>:
                                } else if (cmp(p->info,q->info,res) <= 0) {
     d8a:	03c05763          	blez	t3,db8 <.L550>

00000d8e <.LVL379>:
                                    e = q; q = q->next; qsize--;
     d8e:	88de                	mv	a7,s7
     d90:	000bab83          	lw	s7,0(s7)

00000d94 <.LVL380>:
     d94:	15fd                	addi	a1,a1,-1

00000d96 <.L267>:
                                if (tail) {
     d96:	ce91                	beqz	a3,db2 <.L305>

00000d98 <.L556>:
                                    tail->next = e;
     d98:	0116a023          	sw	a7,0(a3)
                                    list = e;
     d9c:	86c6                	mv	a3,a7

00000d9e <.L557>:
            while (psize > 0 || (qsize > 0 && q)) {
     d9e:	f8099ee3          	bnez	s3,d3a <.L272>

00000da2 <.L555>:
     da2:	cd99                	beqz	a1,dc0 <.L273>
     da4:	020b8263          	beqz	s7,dc8 <.L275>

00000da8 <.LVL384>:
                                    e = q; q = q->next; qsize--;
     da8:	88de                	mv	a7,s7
     daa:	15fd                	addi	a1,a1,-1
     dac:	000bab83          	lw	s7,0(s7)

00000db0 <.LVL386>:
                                if (tail) {
     db0:	f6e5                	bnez	a3,d98 <.L556>

00000db2 <.L305>:
                                    list = e;
     db2:	8ec6                	mv	t4,a7
     db4:	86c6                	mv	a3,a7

00000db6 <.LVL387>:
     db6:	b7e5                	j	d9e <.L557>

00000db8 <.L550>:
                                    e = p; p = p->next; psize--;
     db8:	88a2                	mv	a7,s0
     dba:	19fd                	addi	s3,s3,-1

00000dbc <.LVL389>:
     dbc:	4000                	lw	s0,0(s0)

00000dbe <.LVL390>:
     dbe:	bfe1                	j	d96 <.L267>

00000dc0 <.L273>:
        while (p) {
     dc0:	000b8463          	beqz	s7,dc8 <.L275>

00000dc4 <.LVL392>:
        nmerges = 0;  /* count number of merges we do in this pass */
     dc4:	845e                	mv	s0,s7
     dc6:	bd59                	j	c5c <.L262>

00000dc8 <.L275>:
            tail->next = NULL;
     dc8:	0006a023          	sw	zero,0(a3)
        if (nmerges <= 1)   /* allow for nmerges==0, the empty list case */
     dcc:	015b0e63          	beq	s6,s5,de8 <.L558>
        insize *= 2;
     dd0:	0906                	slli	s2,s2,0x1

00000dd2 <.LVL394>:
        while (p) {
     dd2:	000e8863          	beqz	t4,de2 <.L545>
     dd6:	8bf6                	mv	s7,t4

00000dd8 <.LVL395>:
        tail = NULL;
     dd8:	4681                	li	a3,0
        list = NULL;
     dda:	4e81                	li	t4,0

00000ddc <.LVL396>:
        nmerges = 0;  /* count number of merges we do in this pass */
     ddc:	4b01                	li	s6,0

00000dde <.LVL397>:
     dde:	845e                	mv	s0,s7
     de0:	bdb5                	j	c5c <.L262>

00000de2 <.L545>:
            tail->next = NULL;
     de2:	00002023          	sw	zero,0(zero) # 0 <_start>
     de6:	9002                	ebreak

00000de8 <.L558>:
        finder=list->next;
     de8:	000ea683          	lw	a3,0(t4)

00000dec <.LVL400>:
        while (finder) {
     dec:	22068463          	beqz	a3,1014 <.L544>
                retval=crc16(list->info->data16,retval);
     df0:	004ea403          	lw	s0,4(t4)

00000df4 <.LBB287>:
                   crc |= 0x8000;
     df4:	73e9                	lui	t2,0xffffa
     df6:	00138a93          	addi	s5,t2,1 # ffffa001 <STACK+0xfffe1d71>

00000dfa <.LBE287>:
                retval=crc16(list->info->data16,retval);
     dfa:	00041c03          	lh	s8,0(s0)

00000dfe <.LBB307>:
        crc=crcu8( (ee_u8) ((newval)>>8)        ,crc);
     dfe:	010c1613          	slli	a2,s8,0x10
     e02:	01065c93          	srli	s9,a2,0x10
     e06:	008cde93          	srli	t4,s9,0x8

00000e0a <.LVL401>:
        crc=crcu8( (ee_u8) (newval)                             ,crc);
     e0a:	0ffc7893          	andi	a7,s8,255

00000e0e <.LBB296>:
                x16 = (ee_u8)((data & 1) ^ ((ee_u8)crc & 1));
     e0e:	018c1f93          	slli	t6,s8,0x18

00000e12 <.LBB297>:
     e12:	018e9e13          	slli	t3,t4,0x18

00000e16 <.LBB301>:
     e16:	418fdb13          	srai	s6,t6,0x18
     e1a:	0018d793          	srli	a5,a7,0x1
     e1e:	0028dd13          	srli	s10,a7,0x2
     e22:	0038d093          	srli	ra,a7,0x3
     e26:	0048dd93          	srli	s11,a7,0x4
     e2a:	0058d293          	srli	t0,a7,0x5
     e2e:	0068d593          	srli	a1,a7,0x6
     e32:	0078db93          	srli	s7,a7,0x7

00000e36 <.LBB302>:
     e36:	418e5513          	srai	a0,t3,0x18
     e3a:	009cdf13          	srli	t5,s9,0x9
     e3e:	00acd993          	srli	s3,s9,0xa
     e42:	00bcd913          	srli	s2,s9,0xb
     e46:	00ccd313          	srli	t1,s9,0xc
     e4a:	00dcd413          	srli	s0,s9,0xd
     e4e:	00ecd813          	srli	a6,s9,0xe
     e52:	00fcd713          	srli	a4,s9,0xf

00000e56 <.L297>:
     e56:	009b4a33          	xor	s4,s6,s1
                if (x16 == 1)
     e5a:	001a7393          	andi	t2,s4,1
     e5e:	0014d613          	srli	a2,s1,0x1
     e62:	00038863          	beqz	t2,e72 <.L281>

00000e66 <.LVL403>:
                   crc |= 0x8000;
     e66:	015644b3          	xor	s1,a2,s5

00000e6a <.LVL404>:
     e6a:	01049c13          	slli	s8,s1,0x10
     e6e:	010c5613          	srli	a2,s8,0x10

00000e72 <.L281>:
                x16 = (ee_u8)((data & 1) ^ ((ee_u8)crc & 1));
     e72:	00c7ccb3          	xor	s9,a5,a2
                if (x16 == 1)
     e76:	001cf893          	andi	a7,s9,1
     e7a:	00165e13          	srli	t3,a2,0x1
     e7e:	00088863          	beqz	a7,e8e <.L282>

00000e82 <.LVL406>:
                   crc |= 0x8000;
     e82:	015e4eb3          	xor	t4,t3,s5

00000e86 <.LVL407>:
     e86:	010e9f93          	slli	t6,t4,0x10
     e8a:	010fde13          	srli	t3,t6,0x10

00000e8e <.L282>:
                x16 = (ee_u8)((data & 1) ^ ((ee_u8)crc & 1));
     e8e:	01cd4a33          	xor	s4,s10,t3
                if (x16 == 1)
     e92:	001a7393          	andi	t2,s4,1
     e96:	001e5613          	srli	a2,t3,0x1
     e9a:	00038863          	beqz	t2,eaa <.L283>

00000e9e <.LVL409>:
                   crc |= 0x8000;
     e9e:	015644b3          	xor	s1,a2,s5

00000ea2 <.LVL410>:
     ea2:	01049c13          	slli	s8,s1,0x10
     ea6:	010c5613          	srli	a2,s8,0x10

00000eaa <.L283>:
                x16 = (ee_u8)((data & 1) ^ ((ee_u8)crc & 1));
     eaa:	00c0ccb3          	xor	s9,ra,a2
                if (x16 == 1)
     eae:	001cf893          	andi	a7,s9,1
     eb2:	00165e13          	srli	t3,a2,0x1
     eb6:	00088863          	beqz	a7,ec6 <.L284>

00000eba <.LVL412>:
                   crc |= 0x8000;
     eba:	015e4eb3          	xor	t4,t3,s5

00000ebe <.LVL413>:
     ebe:	010e9f93          	slli	t6,t4,0x10
     ec2:	010fde13          	srli	t3,t6,0x10

00000ec6 <.L284>:
                x16 = (ee_u8)((data & 1) ^ ((ee_u8)crc & 1));
     ec6:	01cdca33          	xor	s4,s11,t3
                if (x16 == 1)
     eca:	001a7393          	andi	t2,s4,1
     ece:	001e5613          	srli	a2,t3,0x1
     ed2:	00038863          	beqz	t2,ee2 <.L285>

00000ed6 <.LVL415>:
                   crc |= 0x8000;
     ed6:	015644b3          	xor	s1,a2,s5

00000eda <.LVL416>:
     eda:	01049c13          	slli	s8,s1,0x10
     ede:	010c5613          	srli	a2,s8,0x10

00000ee2 <.L285>:
                x16 = (ee_u8)((data & 1) ^ ((ee_u8)crc & 1));
     ee2:	00c2ccb3          	xor	s9,t0,a2
                if (x16 == 1)
     ee6:	001cf893          	andi	a7,s9,1
     eea:	00165e13          	srli	t3,a2,0x1
     eee:	00088863          	beqz	a7,efe <.L286>

00000ef2 <.LVL418>:
                   crc |= 0x8000;
     ef2:	015e4eb3          	xor	t4,t3,s5

00000ef6 <.LVL419>:
     ef6:	010e9f93          	slli	t6,t4,0x10
     efa:	010fde13          	srli	t3,t6,0x10

00000efe <.L286>:
                x16 = (ee_u8)((data & 1) ^ ((ee_u8)crc & 1));
     efe:	01c5ca33          	xor	s4,a1,t3
                if (x16 == 1)
     f02:	001a7393          	andi	t2,s4,1
     f06:	001e5613          	srli	a2,t3,0x1
     f0a:	00038863          	beqz	t2,f1a <.L287>

00000f0e <.LVL421>:
                   crc |= 0x8000;
     f0e:	015644b3          	xor	s1,a2,s5

00000f12 <.LVL422>:
     f12:	01049c13          	slli	s8,s1,0x10
     f16:	010c5613          	srli	a2,s8,0x10

00000f1a <.L287>:
                if (x16 == 1)
     f1a:	00167c93          	andi	s9,a2,1
     f1e:	00165f93          	srli	t6,a2,0x1
     f22:	017c8863          	beq	s9,s7,f32 <.L288>

00000f26 <.LVL424>:
                   crc |= 0x8000;
     f26:	015fc8b3          	xor	a7,t6,s5

00000f2a <.LVL425>:
     f2a:	01089e93          	slli	t4,a7,0x10
     f2e:	010edf93          	srli	t6,t4,0x10

00000f32 <.L288>:
                x16 = (ee_u8)((data & 1) ^ ((ee_u8)crc & 1));
     f32:	01f54e33          	xor	t3,a0,t6
                if (x16 == 1)
     f36:	001e7a13          	andi	s4,t3,1
     f3a:	001fdc13          	srli	s8,t6,0x1
     f3e:	000a0863          	beqz	s4,f4e <.L289>

00000f42 <.LVL427>:
                   crc |= 0x8000;
     f42:	015c43b3          	xor	t2,s8,s5

00000f46 <.LVL428>:
     f46:	01039493          	slli	s1,t2,0x10
     f4a:	0104dc13          	srli	s8,s1,0x10

00000f4e <.L289>:
                x16 = (ee_u8)((data & 1) ^ ((ee_u8)crc & 1));
     f4e:	018f4633          	xor	a2,t5,s8
                if (x16 == 1)
     f52:	00167c93          	andi	s9,a2,1
     f56:	001c5f93          	srli	t6,s8,0x1
     f5a:	000c8863          	beqz	s9,f6a <.L290>

00000f5e <.LVL430>:
                   crc |= 0x8000;
     f5e:	015fc8b3          	xor	a7,t6,s5

00000f62 <.LVL431>:
     f62:	01089e93          	slli	t4,a7,0x10
     f66:	010edf93          	srli	t6,t4,0x10

00000f6a <.L290>:
                x16 = (ee_u8)((data & 1) ^ ((ee_u8)crc & 1));
     f6a:	01f9ce33          	xor	t3,s3,t6
                if (x16 == 1)
     f6e:	001e7a13          	andi	s4,t3,1
     f72:	001fdc13          	srli	s8,t6,0x1
     f76:	000a0863          	beqz	s4,f86 <.L291>

00000f7a <.LVL433>:
                   crc |= 0x8000;
     f7a:	015c43b3          	xor	t2,s8,s5

00000f7e <.LVL434>:
     f7e:	01039493          	slli	s1,t2,0x10
     f82:	0104dc13          	srli	s8,s1,0x10

00000f86 <.L291>:
                x16 = (ee_u8)((data & 1) ^ ((ee_u8)crc & 1));
     f86:	01894633          	xor	a2,s2,s8
                if (x16 == 1)
     f8a:	00167c93          	andi	s9,a2,1
     f8e:	001c5f93          	srli	t6,s8,0x1
     f92:	000c8863          	beqz	s9,fa2 <.L292>

00000f96 <.LVL436>:
                   crc |= 0x8000;
     f96:	015fc8b3          	xor	a7,t6,s5

00000f9a <.LVL437>:
     f9a:	01089e93          	slli	t4,a7,0x10
     f9e:	010edf93          	srli	t6,t4,0x10

00000fa2 <.L292>:
                x16 = (ee_u8)((data & 1) ^ ((ee_u8)crc & 1));
     fa2:	01f34e33          	xor	t3,t1,t6
                if (x16 == 1)
     fa6:	001e7a13          	andi	s4,t3,1
     faa:	001fdc13          	srli	s8,t6,0x1
     fae:	000a0863          	beqz	s4,fbe <.L293>

00000fb2 <.LVL439>:
                   crc |= 0x8000;
     fb2:	015c43b3          	xor	t2,s8,s5

00000fb6 <.LVL440>:
     fb6:	01039493          	slli	s1,t2,0x10
     fba:	0104dc13          	srli	s8,s1,0x10

00000fbe <.L293>:
                x16 = (ee_u8)((data & 1) ^ ((ee_u8)crc & 1));
     fbe:	01844633          	xor	a2,s0,s8
                if (x16 == 1)
     fc2:	00167c93          	andi	s9,a2,1
     fc6:	001c5f93          	srli	t6,s8,0x1
     fca:	000c8863          	beqz	s9,fda <.L294>

00000fce <.LVL442>:
                   crc |= 0x8000;
     fce:	015fc8b3          	xor	a7,t6,s5

00000fd2 <.LVL443>:
     fd2:	01089e93          	slli	t4,a7,0x10
     fd6:	010edf93          	srli	t6,t4,0x10

00000fda <.L294>:
                x16 = (ee_u8)((data & 1) ^ ((ee_u8)crc & 1));
     fda:	01f84e33          	xor	t3,a6,t6
                if (x16 == 1)
     fde:	001e7a13          	andi	s4,t3,1
     fe2:	001fdc13          	srli	s8,t6,0x1
     fe6:	000a0863          	beqz	s4,ff6 <.L295>

00000fea <.LVL445>:
                   crc |= 0x8000;
     fea:	015c43b3          	xor	t2,s8,s5

00000fee <.LVL446>:
     fee:	01039493          	slli	s1,t2,0x10
     ff2:	0104dc13          	srli	s8,s1,0x10

00000ff6 <.L295>:
                if (x16 == 1)
     ff6:	001c7613          	andi	a2,s8,1
     ffa:	001c5493          	srli	s1,s8,0x1

00000ffe <.LVL448>:
     ffe:	00e60863          	beq	a2,a4,100e <.L296>

00001002 <.LVL449>:
                   crc |= 0x8000;
    1002:	0154ccb3          	xor	s9,s1,s5

00001006 <.LVL450>:
    1006:	010c9893          	slli	a7,s9,0x10
    100a:	0108d493          	srli	s1,a7,0x10

0000100e <.L296>:
                finder=finder->next;
    100e:	4294                	lw	a3,0(a3)
        while (finder) {
    1010:	e40693e3          	bnez	a3,e56 <.L297>

00001014 <.L544>:
}
    1014:	50f2                	lw	ra,60(sp)
    1016:	5462                	lw	s0,56(sp)
    1018:	5942                	lw	s2,48(sp)
    101a:	59b2                	lw	s3,44(sp)
    101c:	5a22                	lw	s4,40(sp)
    101e:	5a92                	lw	s5,36(sp)
    1020:	5b02                	lw	s6,32(sp)
    1022:	4bf2                	lw	s7,28(sp)
    1024:	4c62                	lw	s8,24(sp)
    1026:	4cd2                	lw	s9,20(sp)
    1028:	4d42                	lw	s10,16(sp)
    102a:	4db2                	lw	s11,12(sp)
    102c:	8526                	mv	a0,s1
    102e:	54d2                	lw	s1,52(sp)
    1030:	6121                	addi	sp,sp,64
    1032:	8082                	ret

00001034 <.L553>:
    insize = 1;
    1034:	4b05                	li	s6,1

00001036 <.L237>:
        while (p) {
    1036:	da0406e3          	beqz	s0,de2 <.L545>
        tail = NULL;
    103a:	4901                	li	s2,0
        list = NULL;
    103c:	4a81                	li	s5,0
        nmerges = 0;  /* count number of merges we do in this pass */
    103e:	4c01                	li	s8,0

00001040 <.L236>:
            nmerges++;  /* there exists a merge to be done */
    1040:	007b7313          	andi	t1,s6,7
    1044:	0c05                	addi	s8,s8,1

00001046 <.LVL456>:
    1046:	8622                	mv	a2,s0
            psize = 0;
    1048:	4981                	li	s3,0
    104a:	04030b63          	beqz	t1,10a0 <.L225>
    104e:	4d05                	li	s10,1
    1050:	05a30363          	beq	t1,s10,1096 <.L472>
    1054:	4f89                	li	t6,2
    1056:	03f30d63          	beq	t1,t6,1090 <.L473>
    105a:	470d                	li	a4,3
    105c:	02e30763          	beq	t1,a4,108a <.L474>
    1060:	4091                	li	ra,4
    1062:	02130163          	beq	t1,ra,1084 <.L475>
    1066:	4295                	li	t0,5
    1068:	00530b63          	beq	t1,t0,107e <.L476>
    106c:	4f19                	li	t5,6
    106e:	01e30563          	beq	t1,t5,1078 <.L477>

00001072 <.LVL457>:
                            q = q->next;
    1072:	4010                	lw	a2,0(s0)
                psize++;
    1074:	4985                	li	s3,1

00001076 <.LVL458>:
                if (!q) break;
    1076:	c625                	beqz	a2,10de <.L226>

00001078 <.L477>:
                            q = q->next;
    1078:	4210                	lw	a2,0(a2)

0000107a <.LVL460>:
                psize++;
    107a:	0985                	addi	s3,s3,1

0000107c <.LVL461>:
                if (!q) break;
    107c:	c22d                	beqz	a2,10de <.L226>

0000107e <.L476>:
                            q = q->next;
    107e:	4210                	lw	a2,0(a2)

00001080 <.LVL463>:
                psize++;
    1080:	0985                	addi	s3,s3,1

00001082 <.LVL464>:
                if (!q) break;
    1082:	ce31                	beqz	a2,10de <.L226>

00001084 <.L475>:
                            q = q->next;
    1084:	4210                	lw	a2,0(a2)

00001086 <.LVL466>:
                psize++;
    1086:	0985                	addi	s3,s3,1

00001088 <.LVL467>:
                if (!q) break;
    1088:	ca39                	beqz	a2,10de <.L226>

0000108a <.L474>:
                            q = q->next;
    108a:	4210                	lw	a2,0(a2)

0000108c <.LVL469>:
                psize++;
    108c:	0985                	addi	s3,s3,1

0000108e <.LVL470>:
                if (!q) break;
    108e:	ca21                	beqz	a2,10de <.L226>

00001090 <.L473>:
                            q = q->next;
    1090:	4210                	lw	a2,0(a2)

00001092 <.LVL472>:
                psize++;
    1092:	0985                	addi	s3,s3,1

00001094 <.LVL473>:
                if (!q) break;
    1094:	c629                	beqz	a2,10de <.L226>

00001096 <.L472>:
                            q = q->next;
    1096:	4210                	lw	a2,0(a2)

00001098 <.LVL475>:
                psize++;
    1098:	0985                	addi	s3,s3,1

0000109a <.LVL476>:
                if (!q) break;
    109a:	c231                	beqz	a2,10de <.L226>

0000109c <.L547>:
            for (i = 0; i < insize; i++) {
    109c:	05698163          	beq	s3,s6,10de <.L226>

000010a0 <.L225>:
                            q = q->next;
    10a0:	4210                	lw	a2,0(a2)

000010a2 <.LVL479>:
                psize++;
    10a2:	0985                	addi	s3,s3,1
    10a4:	83ce                	mv	t2,s3

000010a6 <.LVL480>:
                if (!q) break;
    10a6:	ce05                	beqz	a2,10de <.L226>

000010a8 <.LVL481>:
                            q = q->next;
    10a8:	4210                	lw	a2,0(a2)

000010aa <.LVL482>:
                psize++;
    10aa:	0985                	addi	s3,s3,1

000010ac <.LVL483>:
                if (!q) break;
    10ac:	ca0d                	beqz	a2,10de <.L226>

000010ae <.LVL484>:
                            q = q->next;
    10ae:	4210                	lw	a2,0(a2)

000010b0 <.LVL485>:
                psize++;
    10b0:	00238993          	addi	s3,t2,2

000010b4 <.LVL486>:
                if (!q) break;
    10b4:	c60d                	beqz	a2,10de <.L226>

000010b6 <.LVL487>:
                            q = q->next;
    10b6:	4210                	lw	a2,0(a2)

000010b8 <.LVL488>:
                psize++;
    10b8:	00338993          	addi	s3,t2,3

000010bc <.LVL489>:
                if (!q) break;
    10bc:	c20d                	beqz	a2,10de <.L226>

000010be <.LVL490>:
                            q = q->next;
    10be:	4210                	lw	a2,0(a2)

000010c0 <.LVL491>:
                psize++;
    10c0:	00438993          	addi	s3,t2,4

000010c4 <.LVL492>:
                if (!q) break;
    10c4:	ce09                	beqz	a2,10de <.L226>

000010c6 <.LVL493>:
                            q = q->next;
    10c6:	4210                	lw	a2,0(a2)

000010c8 <.LVL494>:
                psize++;
    10c8:	00538993          	addi	s3,t2,5

000010cc <.LVL495>:
                if (!q) break;
    10cc:	ca09                	beqz	a2,10de <.L226>

000010ce <.LVL496>:
                            q = q->next;
    10ce:	4210                	lw	a2,0(a2)

000010d0 <.LVL497>:
                psize++;
    10d0:	00638993          	addi	s3,t2,6

000010d4 <.LVL498>:
                if (!q) break;
    10d4:	c609                	beqz	a2,10de <.L226>

000010d6 <.LVL499>:
                            q = q->next;
    10d6:	4210                	lw	a2,0(a2)

000010d8 <.LVL500>:
                psize++;
    10d8:	00738993          	addi	s3,t2,7

000010dc <.LVL501>:
                if (!q) break;
    10dc:	f261                	bnez	a2,109c <.L547>

000010de <.L226>:
                                    list = e;
    10de:	8d22                	mv	s10,s0

000010e0 <.LVL503>:
    10e0:	8a5a                	mv	s4,s6
    10e2:	8432                	mv	s0,a2

000010e4 <.LVL504>:
            while (psize > 0 || (qsize > 0 && q)) {
    10e4:	02098763          	beqz	s3,1112 <.L559>

000010e8 <.L232>:
                                } else if (qsize == 0 || !q) {
    10e8:	040a0063          	beqz	s4,1128 <.L548>
    10ec:	cc15                	beqz	s0,1128 <.L548>
                                } else if (cmp(p->info,q->info,res) <= 0) {
    10ee:	404c                	lw	a1,4(s0)
    10f0:	004d2503          	lw	a0,4(s10)
    10f4:	866e                	mv	a2,s11
    10f6:	9d2ff0ef          	jal	ra,2c8 <cmp_complex>

000010fa <.LVL506>:
    10fa:	02a05763          	blez	a0,1128 <.L548>

000010fe <.LVL507>:
                                    e = q; q = q->next; qsize--;
    10fe:	87a2                	mv	a5,s0
    1100:	4000                	lw	s0,0(s0)

00001102 <.LVL508>:
    1102:	1a7d                	addi	s4,s4,-1

00001104 <.L227>:
                                if (tail) {
    1104:	00090f63          	beqz	s2,1122 <.L302>

00001108 <.L560>:
                                    tail->next = e;
    1108:	00f92023          	sw	a5,0(s2)
                                    list = e;
    110c:	893e                	mv	s2,a5

0000110e <.L561>:
            while (psize > 0 || (qsize > 0 && q)) {
    110e:	fc099de3          	bnez	s3,10e8 <.L232>

00001112 <.L559>:
    1112:	020a0063          	beqz	s4,1132 <.L233>
    1116:	cc19                	beqz	s0,1134 <.L235>

00001118 <.LVL512>:
                                    e = q; q = q->next; qsize--;
    1118:	87a2                	mv	a5,s0
    111a:	1a7d                	addi	s4,s4,-1

0000111c <.LVL513>:
    111c:	4000                	lw	s0,0(s0)

0000111e <.LVL514>:
                                if (tail) {
    111e:	fe0915e3          	bnez	s2,1108 <.L560>

00001122 <.L302>:
                                    list = e;
    1122:	8abe                	mv	s5,a5
    1124:	893e                	mv	s2,a5

00001126 <.LVL516>:
    1126:	b7e5                	j	110e <.L561>

00001128 <.L548>:
                                    e = p; p = p->next; psize--;
    1128:	87ea                	mv	a5,s10
    112a:	19fd                	addi	s3,s3,-1

0000112c <.LVL518>:
    112c:	000d2d03          	lw	s10,0(s10)

00001130 <.LVL519>:
    1130:	bfd1                	j	1104 <.L227>

00001132 <.L233>:
        while (p) {
    1132:	f419                	bnez	s0,1040 <.L236>

00001134 <.L235>:
            tail->next = NULL;
    1134:	00092023          	sw	zero,0(s2)
        if (nmerges <= 1)   /* allow for nmerges==0, the empty list case */
    1138:	4405                	li	s0,1
    113a:	008c0563          	beq	s8,s0,1144 <.L303>
        insize *= 2;
    113e:	0b06                	slli	s6,s6,0x1

00001140 <.LVL522>:
        p = list;
    1140:	8456                	mv	s0,s5
    1142:	bdd5                	j	1036 <.L237>

00001144 <.L303>:
    1144:	8456                	mv	s0,s5
    1146:	b805                	j	976 <.L221>

00001148 <.L299>:
    1148:	4c81                	li	s9,0

0000114a <.LBE313>:
        info.idx=finder_idx;
    114a:	8bae                	mv	s7,a1
        for (i=0; i<find_num; i++) {
    114c:	4481                	li	s1,0
    114e:	b015                	j	972 <.L207>

00001150 <.L209>:
                        retval+=(list->next->info->data16 >> 8) & 1;
    1150:	00002783          	lw	a5,0(zero) # 0 <_start>
    1154:	9002                	ebreak

00001156 <core_list_init>:
        ee_u32 size=(blksize/per_item)-2; /* to accomodate systems with 64b pointers, and make sure same code is executed, set max list elements */
    1156:	4851                	li	a6,20
    1158:	030552b3          	divu	t0,a0,a6
list_head *core_list_init(ee_u32 blksize, list_head *memblock, ee_s16 seed) {
    115c:	8eb2                	mv	t4,a2
        list->info->data16=(ee_s16)0x8080;
    115e:	7561                	lui	a0,0xffff8

00001160 <.LVL527>:
        list->next=NULL;
    1160:	0005a023          	sw	zero,0(a1)
        list->info->data16=(ee_s16)0x8080;
    1164:	08050713          	addi	a4,a0,128 # ffff8080 <STACK+0xfffdfdf0>

00001168 <.LBB329>:
        if ((*memblock+1) >= memblock_end)
    1168:	01058793          	addi	a5,a1,16

0000116c <.LBE329>:
        memblock++;
    116c:	00858693          	addi	a3,a1,8
        ee_u32 size=(blksize/per_item)-2; /* to accomodate systems with 64b pointers, and make sure same code is executed, set max list elements */
    1170:	ffe28813          	addi	a6,t0,-2

00001174 <.LVL528>:
        list_head *memblock_end=memblock+size;
    1174:	00381613          	slli	a2,a6,0x3

00001178 <.LVL529>:
    1178:	962e                	add	a2,a2,a1

0000117a <.LVL530>:
        list->info=datablock;
    117a:	c1d0                	sw	a2,4(a1)
        list_data *datablock_end=datablock+size;
    117c:	00281893          	slli	a7,a6,0x2
        list->info->idx=0x0000;
    1180:	00061123          	sh	zero,2(a2)
        list->info->data16=(ee_s16)0x8080;
    1184:	00e61023          	sh	a4,0(a2)
        list_data *datablock_end=datablock+size;
    1188:	98b2                	add	a7,a7,a2

0000118a <.LVL531>:
        datablock++;
    118a:	00460313          	addi	t1,a2,4

0000118e <.LBB335>:
        if ((*memblock+1) >= memblock_end)
    118e:	3ec7f963          	bgeu	a5,a2,1580 <.L594>
        if ((*datablock+1) >= datablock_end)
    1192:	00860713          	addi	a4,a2,8
    1196:	3f177563          	bgeu	a4,a7,1580 <.L594>

0000119a <.LVL533>:
        newitem->next=insert_point->next;
    119a:	0005a423          	sw	zero,8(a1)
        insert_point->next=newitem;
    119e:	c194                	sw	a3,0(a1)
        newitem->info=*datablock;
    11a0:	0065a623          	sw	t1,12(a1)

000011a4 <.LBB331>:
        to->idx=from->idx;
    11a4:	fff54393          	not	t2,a0
        to->data16=from->data16;
    11a8:	5e7d                	li	t3,-1
    11aa:	01c61223          	sh	t3,4(a2)
        to->idx=from->idx;
    11ae:	00761323          	sh	t2,6(a2)

000011b2 <.L563>:
        for (i=0; i<size; i++) {
    11b2:	20080d63          	beqz	a6,13cc <.L564>

000011b6 <.LBB336>:
                        ee_u16 pat=(ee_u16)(i++ ^ seed); /* get a pseudo random number */
    11b6:	010e9f13          	slli	t5,t4,0x10

000011ba <.LBB337>:
        to->idx=from->idx;
    11ba:	7fe1                	lui	t6,0xffff8
    11bc:	00387293          	andi	t0,a6,3

000011c0 <.LBB450>:
                        ee_u16 pat=(ee_u16)(i++ ^ seed); /* get a pseudo random number */
    11c0:	010f5f13          	srli	t5,t5,0x10
    11c4:	4501                	li	a0,0

000011c6 <.LBB357>:
        to->idx=from->idx;
    11c6:	ffffc313          	not	t1,t6
    11ca:	0c028d63          	beqz	t0,12a4 <.L569>
    11ce:	4385                	li	t2,1
    11d0:	08728463          	beq	t0,t2,1258 <.L654>
    11d4:	4e09                	li	t3,2
    11d6:	03c28d63          	beq	t0,t3,1210 <.L655>

000011da <.LBB412>:
        if ((*memblock+1) >= memblock_end)
    11da:	00878293          	addi	t0,a5,8
    11de:	1ec2f763          	bgeu	t0,a2,13cc <.L564>
        if ((*datablock+1) >= datablock_end)
    11e2:	00470f93          	addi	t6,a4,4
    11e6:	031ff463          	bgeu	t6,a7,120e <.L639>

000011ea <.LBE412>:
                ee_u16 dat=(datpat<<3) | (i&0x7); /* alternate between algorithms */
    11ea:	003f1513          	slli	a0,t5,0x3

000011ee <.LBB413>:
        newitem->next=insert_point->next;
    11ee:	c394                	sw	a3,0(a5)

000011f0 <.LBE413>:
                ee_u16 dat=(datpat<<3) | (i&0x7); /* alternate between algorithms */
    11f0:	07857693          	andi	a3,a0,120

000011f4 <.LBB414>:
        insert_point->next=newitem;
    11f4:	c19c                	sw	a5,0(a1)

000011f6 <.LBE414>:
                info.data16=(dat<<8) | dat;             /* fill the data with actual data and upper bits with rebuild value */
    11f6:	00869393          	slli	t2,a3,0x8

000011fa <.LBB415>:
        newitem->info=*datablock;
    11fa:	c3d8                	sw	a4,4(a5)

000011fc <.LBB358>:
                info.data16=(dat<<8) | dat;             /* fill the data with actual data and upper bits with rebuild value */
    11fc:	00d3ee33          	or	t3,t2,a3

00001200 <.LBB359>:
        to->data16=from->data16;
    1200:	01c71023          	sh	t3,0(a4)
        to->idx=from->idx;
    1204:	00671123          	sh	t1,2(a4)

00001208 <.LBE359>:
        return newitem;
    1208:	86be                	mv	a3,a5
    120a:	877e                	mv	a4,t6
    120c:	8796                	mv	a5,t0

0000120e <.L639>:
        for (i=0; i<size; i++) {
    120e:	4505                	li	a0,1

00001210 <.L655>:
        if ((*memblock+1) >= memblock_end)
    1210:	00878293          	addi	t0,a5,8
    1214:	1ac2fc63          	bgeu	t0,a2,13cc <.L564>
        if ((*datablock+1) >= datablock_end)
    1218:	00470393          	addi	t2,a4,4
    121c:	0313fd63          	bgeu	t2,a7,1256 <.L642>
    1220:	01051f93          	slli	t6,a0,0x10
    1224:	010fdf93          	srli	t6,t6,0x10

00001228 <.LBE417>:
                ee_u16 datpat=((ee_u16)(seed^i) & 0xf);
    1228:	01efce33          	xor	t3,t6,t5
                ee_u16 dat=(datpat<<3) | (i&0x7); /* alternate between algorithms */
    122c:	0e0e                	slli	t3,t3,0x3
    122e:	078e7e13          	andi	t3,t3,120
    1232:	007fff93          	andi	t6,t6,7

00001236 <.LBB418>:
        newitem->next=insert_point->next;
    1236:	c394                	sw	a3,0(a5)

00001238 <.LBE418>:
                ee_u16 dat=(datpat<<3) | (i&0x7); /* alternate between algorithms */
    1238:	01fe66b3          	or	a3,t3,t6

0000123c <.LBB419>:
        insert_point->next=newitem;
    123c:	c19c                	sw	a5,0(a1)

0000123e <.LBE419>:
                info.data16=(dat<<8) | dat;             /* fill the data with actual data and upper bits with rebuild value */
    123e:	00869e13          	slli	t3,a3,0x8

00001242 <.LBB420>:
        newitem->info=*datablock;
    1242:	c3d8                	sw	a4,4(a5)

00001244 <.LBB360>:
                info.data16=(dat<<8) | dat;             /* fill the data with actual data and upper bits with rebuild value */
    1244:	00de6fb3          	or	t6,t3,a3

00001248 <.LBB361>:
        to->data16=from->data16;
    1248:	01f71023          	sh	t6,0(a4)
        to->idx=from->idx;
    124c:	00671123          	sh	t1,2(a4)

00001250 <.LBE361>:
        return newitem;
    1250:	86be                	mv	a3,a5
    1252:	871e                	mv	a4,t2
    1254:	8796                	mv	a5,t0

00001256 <.L642>:
        for (i=0; i<size; i++) {
    1256:	0505                	addi	a0,a0,1

00001258 <.L654>:
        if ((*memblock+1) >= memblock_end)
    1258:	00878293          	addi	t0,a5,8
    125c:	16c2f863          	bgeu	t0,a2,13cc <.L564>
        if ((*datablock+1) >= datablock_end)
    1260:	00470393          	addi	t2,a4,4
    1264:	0313fd63          	bgeu	t2,a7,129e <.L645>
    1268:	01051e13          	slli	t3,a0,0x10
    126c:	010e5f93          	srli	t6,t3,0x10

00001270 <.LBE422>:
                ee_u16 datpat=((ee_u16)(seed^i) & 0xf);
    1270:	01efce33          	xor	t3,t6,t5
                ee_u16 dat=(datpat<<3) | (i&0x7); /* alternate between algorithms */
    1274:	0e0e                	slli	t3,t3,0x3
    1276:	078e7e13          	andi	t3,t3,120
    127a:	007fff93          	andi	t6,t6,7

0000127e <.LBB423>:
        newitem->next=insert_point->next;
    127e:	c394                	sw	a3,0(a5)

00001280 <.LBE423>:
                ee_u16 dat=(datpat<<3) | (i&0x7); /* alternate between algorithms */
    1280:	01fe66b3          	or	a3,t3,t6

00001284 <.LBB424>:
        insert_point->next=newitem;
    1284:	c19c                	sw	a5,0(a1)

00001286 <.LBE424>:
                info.data16=(dat<<8) | dat;             /* fill the data with actual data and upper bits with rebuild value */
    1286:	00869e13          	slli	t3,a3,0x8

0000128a <.LBB425>:
        newitem->info=*datablock;
    128a:	c3d8                	sw	a4,4(a5)

0000128c <.LBB362>:
                info.data16=(dat<<8) | dat;             /* fill the data with actual data and upper bits with rebuild value */
    128c:	00de6fb3          	or	t6,t3,a3

00001290 <.LBB363>:
        to->data16=from->data16;
    1290:	01f71023          	sh	t6,0(a4)
        to->idx=from->idx;
    1294:	00671123          	sh	t1,2(a4)

00001298 <.LBE363>:
        return newitem;
    1298:	86be                	mv	a3,a5
    129a:	871e                	mv	a4,t2
    129c:	8796                	mv	a5,t0

0000129e <.L645>:
        for (i=0; i<size; i++) {
    129e:	0505                	addi	a0,a0,1

000012a0 <.LVL551>:
    12a0:	12a80663          	beq	a6,a0,13cc <.L564>

000012a4 <.L569>:
        if ((*memblock+1) >= memblock_end)
    12a4:	00878293          	addi	t0,a5,8
    12a8:	12c2f263          	bgeu	t0,a2,13cc <.L564>
        if ((*datablock+1) >= datablock_end)
    12ac:	00470393          	addi	t2,a4,4
    12b0:	0313fd63          	bgeu	t2,a7,12ea <.L566>
    12b4:	01051e13          	slli	t3,a0,0x10
    12b8:	010e5f93          	srli	t6,t3,0x10

000012bc <.LBE427>:
                ee_u16 datpat=((ee_u16)(seed^i) & 0xf);
    12bc:	01efce33          	xor	t3,t6,t5
                ee_u16 dat=(datpat<<3) | (i&0x7); /* alternate between algorithms */
    12c0:	0e0e                	slli	t3,t3,0x3
    12c2:	078e7e13          	andi	t3,t3,120
    12c6:	007fff93          	andi	t6,t6,7

000012ca <.LBB428>:
        newitem->next=insert_point->next;
    12ca:	c394                	sw	a3,0(a5)

000012cc <.LBE428>:
                ee_u16 dat=(datpat<<3) | (i&0x7); /* alternate between algorithms */
    12cc:	01fe66b3          	or	a3,t3,t6

000012d0 <.LBB429>:
        insert_point->next=newitem;
    12d0:	c19c                	sw	a5,0(a1)

000012d2 <.LBE429>:
                info.data16=(dat<<8) | dat;             /* fill the data with actual data and upper bits with rebuild value */
    12d2:	00869e13          	slli	t3,a3,0x8

000012d6 <.LBB430>:
        newitem->info=*datablock;
    12d6:	c3d8                	sw	a4,4(a5)

000012d8 <.LBB364>:
                info.data16=(dat<<8) | dat;             /* fill the data with actual data and upper bits with rebuild value */
    12d8:	00de6fb3          	or	t6,t3,a3

000012dc <.LBB365>:
        to->data16=from->data16;
    12dc:	01f71023          	sh	t6,0(a4)
        to->idx=from->idx;
    12e0:	00671123          	sh	t1,2(a4)

000012e4 <.LBE365>:
        return newitem;
    12e4:	86be                	mv	a3,a5
    12e6:	871e                	mv	a4,t2
    12e8:	8796                	mv	a5,t0

000012ea <.L566>:
        if ((*memblock+1) >= memblock_end)
    12ea:	00878293          	addi	t0,a5,8

000012ee <.LBE432>:
        for (i=0; i<size; i++) {
    12ee:	0505                	addi	a0,a0,1

000012f0 <.LBB433>:
        if ((*memblock+1) >= memblock_end)
    12f0:	0cc2fe63          	bgeu	t0,a2,13cc <.L564>
        if ((*datablock+1) >= datablock_end)
    12f4:	00470393          	addi	t2,a4,4
    12f8:	0313fd63          	bgeu	t2,a7,1332 <.L648>
    12fc:	01051e13          	slli	t3,a0,0x10
    1300:	010e5f93          	srli	t6,t3,0x10

00001304 <.LBE433>:
                ee_u16 datpat=((ee_u16)(seed^i) & 0xf);
    1304:	01efce33          	xor	t3,t6,t5
                ee_u16 dat=(datpat<<3) | (i&0x7); /* alternate between algorithms */
    1308:	0e0e                	slli	t3,t3,0x3
    130a:	078e7e13          	andi	t3,t3,120
    130e:	007fff93          	andi	t6,t6,7

00001312 <.LBB434>:
        newitem->next=insert_point->next;
    1312:	c394                	sw	a3,0(a5)

00001314 <.LBE434>:
                ee_u16 dat=(datpat<<3) | (i&0x7); /* alternate between algorithms */
    1314:	01fe66b3          	or	a3,t3,t6

00001318 <.LBB435>:
        insert_point->next=newitem;
    1318:	c19c                	sw	a5,0(a1)

0000131a <.LBE435>:
                info.data16=(dat<<8) | dat;             /* fill the data with actual data and upper bits with rebuild value */
    131a:	00869e13          	slli	t3,a3,0x8

0000131e <.LBB436>:
        newitem->info=*datablock;
    131e:	c3d8                	sw	a4,4(a5)

00001320 <.LBB366>:
                info.data16=(dat<<8) | dat;             /* fill the data with actual data and upper bits with rebuild value */
    1320:	00de6fb3          	or	t6,t3,a3

00001324 <.LBB367>:
        to->data16=from->data16;
    1324:	01f71023          	sh	t6,0(a4)
        to->idx=from->idx;
    1328:	00671123          	sh	t1,2(a4)

0000132c <.LBE367>:
        return newitem;
    132c:	86be                	mv	a3,a5
    132e:	871e                	mv	a4,t2
    1330:	8796                	mv	a5,t0

00001332 <.L648>:
        if ((*memblock+1) >= memblock_end)
    1332:	00878293          	addi	t0,a5,8

00001336 <.LBE438>:
        for (i=0; i<size; i++) {
    1336:	00150e13          	addi	t3,a0,1

0000133a <.LBB439>:
        if ((*memblock+1) >= memblock_end)
    133a:	08c2f963          	bgeu	t0,a2,13cc <.L564>
        if ((*datablock+1) >= datablock_end)
    133e:	00470393          	addi	t2,a4,4
    1342:	0313fd63          	bgeu	t2,a7,137c <.L650>
    1346:	010e1f93          	slli	t6,t3,0x10
    134a:	010fdf93          	srli	t6,t6,0x10

0000134e <.LBE439>:
                ee_u16 datpat=((ee_u16)(seed^i) & 0xf);
    134e:	01efce33          	xor	t3,t6,t5
                ee_u16 dat=(datpat<<3) | (i&0x7); /* alternate between algorithms */
    1352:	0e0e                	slli	t3,t3,0x3
    1354:	078e7e13          	andi	t3,t3,120
    1358:	007fff93          	andi	t6,t6,7

0000135c <.LBB440>:
        newitem->next=insert_point->next;
    135c:	c394                	sw	a3,0(a5)

0000135e <.LBE440>:
                ee_u16 dat=(datpat<<3) | (i&0x7); /* alternate between algorithms */
    135e:	01fe66b3          	or	a3,t3,t6

00001362 <.LBB441>:
        insert_point->next=newitem;
    1362:	c19c                	sw	a5,0(a1)

00001364 <.LBE441>:
                info.data16=(dat<<8) | dat;             /* fill the data with actual data and upper bits with rebuild value */
    1364:	00869e13          	slli	t3,a3,0x8

00001368 <.LBB442>:
        newitem->info=*datablock;
    1368:	c3d8                	sw	a4,4(a5)

0000136a <.LBB368>:
                info.data16=(dat<<8) | dat;             /* fill the data with actual data and upper bits with rebuild value */
    136a:	00de6fb3          	or	t6,t3,a3

0000136e <.LBB369>:
        to->data16=from->data16;
    136e:	01f71023          	sh	t6,0(a4)
        to->idx=from->idx;
    1372:	00671123          	sh	t1,2(a4)

00001376 <.LBE369>:
        return newitem;
    1376:	86be                	mv	a3,a5
    1378:	871e                	mv	a4,t2
    137a:	8796                	mv	a5,t0

0000137c <.L650>:
        if ((*memblock+1) >= memblock_end)
    137c:	00878293          	addi	t0,a5,8

00001380 <.LBE444>:
        for (i=0; i<size; i++) {
    1380:	00250e13          	addi	t3,a0,2

00001384 <.LBB445>:
        if ((*memblock+1) >= memblock_end)
    1384:	04c2f463          	bgeu	t0,a2,13cc <.L564>
        if ((*datablock+1) >= datablock_end)
    1388:	00470393          	addi	t2,a4,4
    138c:	0313fd63          	bgeu	t2,a7,13c6 <.L652>
    1390:	010e1f93          	slli	t6,t3,0x10
    1394:	010fdf93          	srli	t6,t6,0x10

00001398 <.LBE445>:
                ee_u16 datpat=((ee_u16)(seed^i) & 0xf);
    1398:	01efce33          	xor	t3,t6,t5
                ee_u16 dat=(datpat<<3) | (i&0x7); /* alternate between algorithms */
    139c:	0e0e                	slli	t3,t3,0x3
    139e:	078e7e13          	andi	t3,t3,120
    13a2:	007fff93          	andi	t6,t6,7

000013a6 <.LBB446>:
        newitem->next=insert_point->next;
    13a6:	c394                	sw	a3,0(a5)

000013a8 <.LBE446>:
                ee_u16 dat=(datpat<<3) | (i&0x7); /* alternate between algorithms */
    13a8:	01fe66b3          	or	a3,t3,t6

000013ac <.LBB447>:
        insert_point->next=newitem;
    13ac:	c19c                	sw	a5,0(a1)

000013ae <.LBE447>:
                info.data16=(dat<<8) | dat;             /* fill the data with actual data and upper bits with rebuild value */
    13ae:	00869e13          	slli	t3,a3,0x8

000013b2 <.LBB448>:
        newitem->info=*datablock;
    13b2:	c3d8                	sw	a4,4(a5)

000013b4 <.LBB370>:
                info.data16=(dat<<8) | dat;             /* fill the data with actual data and upper bits with rebuild value */
    13b4:	00de6fb3          	or	t6,t3,a3

000013b8 <.LBB371>:
        to->data16=from->data16;
    13b8:	01f71023          	sh	t6,0(a4)
        to->idx=from->idx;
    13bc:	00671123          	sh	t1,2(a4)

000013c0 <.LBE371>:
        return newitem;
    13c0:	86be                	mv	a3,a5
    13c2:	871e                	mv	a4,t2
    13c4:	8796                	mv	a5,t0

000013c6 <.L652>:
        for (i=0; i<size; i++) {
    13c6:	050d                	addi	a0,a0,3

000013c8 <.LVL572>:
    13c8:	eca81ee3          	bne	a6,a0,12a4 <.L569>

000013cc <.L564>:
        while (finder->next!=NULL) {
    13cc:	4290                	lw	a2,0(a3)

000013ce <.LVL574>:
    13ce:	ce39                	beqz	a2,142c <.L574>
                if (i<size/5) /* first 20% of the list in order */
    13d0:	4895                	li	a7,5

000013d2 <.LVL575>:
    13d2:	03185f33          	divu	t5,a6,a7

000013d6 <.LBB461>:
                        finder->info->idx=0x3fff & (((i & 0x07) << 8) | pat); /* make sure the mixed items end up after the ones in sequence */
    13d6:	6811                	lui	a6,0x4

000013d8 <.LBE461>:
                if (i<size/5) /* first 20% of the list in order */
    13d8:	20000793          	li	a5,512

000013dc <.LVL577>:
    13dc:	4705                	li	a4,1

000013de <.LBB462>:
                        finder->info->idx=0x3fff & (((i & 0x07) << 8) | pat); /* make sure the mixed items end up after the ones in sequence */
    13de:	fff80313          	addi	t1,a6,-1 # 3fff <.LLST102+0xa2>
    13e2:	a831                	j	13fe <.L575>

000013e4 <.L681>:
        while (finder->next!=NULL) {
    13e4:	4208                	lw	a0,0(a2)
    13e6:	10078813          	addi	a6,a5,256
                        finder->info->idx=i++;
    13ea:	00e29123          	sh	a4,2(t0)

000013ee <.LVL580>:
        while (finder->next!=NULL) {
    13ee:	01081293          	slli	t0,a6,0x10
    13f2:	0705                	addi	a4,a4,1

000013f4 <.LVL581>:
    13f4:	0102d793          	srli	a5,t0,0x10
    13f8:	c915                	beqz	a0,142c <.L574>

000013fa <.L573>:
                if (i<size/5) /* first 20% of the list in order */
    13fa:	86b2                	mv	a3,a2
    13fc:	862a                	mv	a2,a0

000013fe <.L575>:
                        finder->info->idx=i++;
    13fe:	0046a283          	lw	t0,4(a3)
                if (i<size/5) /* first 20% of the list in order */
    1402:	ffe761e3          	bltu	a4,t5,13e4 <.L681>

00001406 <.LBB463>:
                        finder->info->idx=0x3fff & (((i & 0x07) << 8) | pat); /* make sure the mixed items end up after the ones in sequence */
    1406:	7007f393          	andi	t2,a5,1792
                        ee_u16 pat=(ee_u16)(i++ ^ seed); /* get a pseudo random number */
    140a:	01d74e33          	xor	t3,a4,t4

0000140e <.LBE463>:
        while (finder->next!=NULL) {
    140e:	4208                	lw	a0,0(a2)

00001410 <.LBB464>:
                        finder->info->idx=0x3fff & (((i & 0x07) << 8) | pat); /* make sure the mixed items end up after the ones in sequence */
    1410:	01c3efb3          	or	t6,t2,t3

00001414 <.LBE464>:
        while (finder->next!=NULL) {
    1414:	10078793          	addi	a5,a5,256

00001418 <.LBB465>:
                        finder->info->idx=0x3fff & (((i & 0x07) << 8) | pat); /* make sure the mixed items end up after the ones in sequence */
    1418:	006ff6b3          	and	a3,t6,t1

0000141c <.LBE465>:
        while (finder->next!=NULL) {
    141c:	01079893          	slli	a7,a5,0x10

00001420 <.LBB466>:
                        finder->info->idx=0x3fff & (((i & 0x07) << 8) | pat); /* make sure the mixed items end up after the ones in sequence */
    1420:	00d29123          	sh	a3,2(t0)

00001424 <.LBE466>:
        while (finder->next!=NULL) {
    1424:	0705                	addi	a4,a4,1

00001426 <.LVL585>:
    1426:	0108d793          	srli	a5,a7,0x10
    142a:	f961                	bnez	a0,13fa <.L573>

0000142c <.L574>:
    insize = 1;
    142c:	4f85                	li	t6,1
        tail = NULL;
    142e:	4801                	li	a6,0
        list = NULL;
    1430:	4501                	li	a0,0
        nmerges = 0;  /* count number of merges we do in this pass */
    1432:	4281                	li	t0,0
        if (nmerges <= 1)   /* allow for nmerges==0, the empty list case */
    1434:	4385                	li	t2,1

00001436 <.L571>:
            nmerges++;  /* there exists a merge to be done */
    1436:	007ffe93          	andi	t4,t6,7
    143a:	0285                	addi	t0,t0,1

0000143c <.LVL588>:
    143c:	87ae                	mv	a5,a1
            psize = 0;
    143e:	4601                	li	a2,0
    1440:	040e8b63          	beqz	t4,1496 <.L578>
    1444:	4f05                	li	t5,1
    1446:	05ee8363          	beq	t4,t5,148c <.L656>
    144a:	4309                	li	t1,2
    144c:	026e8d63          	beq	t4,t1,1486 <.L657>
    1450:	4e0d                	li	t3,3
    1452:	03ce8763          	beq	t4,t3,1480 <.L658>
    1456:	4691                	li	a3,4
    1458:	02de8163          	beq	t4,a3,147a <.L659>
    145c:	4715                	li	a4,5
    145e:	00ee8b63          	beq	t4,a4,1474 <.L660>
    1462:	4899                	li	a7,6
    1464:	011e8563          	beq	t4,a7,146e <.L661>

00001468 <.LVL589>:
                            q = q->next;
    1468:	419c                	lw	a5,0(a1)
                psize++;
    146a:	4605                	li	a2,1

0000146c <.LVL590>:
                if (!q) break;
    146c:	c7a5                	beqz	a5,14d4 <.L579>

0000146e <.L661>:
                            q = q->next;
    146e:	439c                	lw	a5,0(a5)

00001470 <.LVL592>:
                psize++;
    1470:	0605                	addi	a2,a2,1

00001472 <.LVL593>:
                if (!q) break;
    1472:	c3ad                	beqz	a5,14d4 <.L579>

00001474 <.L660>:
                            q = q->next;
    1474:	439c                	lw	a5,0(a5)

00001476 <.LVL595>:
                psize++;
    1476:	0605                	addi	a2,a2,1

00001478 <.LVL596>:
                if (!q) break;
    1478:	cfb1                	beqz	a5,14d4 <.L579>

0000147a <.L659>:
                            q = q->next;
    147a:	439c                	lw	a5,0(a5)

0000147c <.LVL598>:
                psize++;
    147c:	0605                	addi	a2,a2,1

0000147e <.LVL599>:
                if (!q) break;
    147e:	cbb9                	beqz	a5,14d4 <.L579>

00001480 <.L658>:
                            q = q->next;
    1480:	439c                	lw	a5,0(a5)

00001482 <.LVL601>:
                psize++;
    1482:	0605                	addi	a2,a2,1

00001484 <.LVL602>:
                if (!q) break;
    1484:	cba1                	beqz	a5,14d4 <.L579>

00001486 <.L657>:
                            q = q->next;
    1486:	439c                	lw	a5,0(a5)

00001488 <.LVL604>:
                psize++;
    1488:	0605                	addi	a2,a2,1

0000148a <.LVL605>:
                if (!q) break;
    148a:	c7a9                	beqz	a5,14d4 <.L579>

0000148c <.L656>:
                            q = q->next;
    148c:	439c                	lw	a5,0(a5)

0000148e <.LVL607>:
                psize++;
    148e:	0605                	addi	a2,a2,1

00001490 <.LVL608>:
                if (!q) break;
    1490:	c3b1                	beqz	a5,14d4 <.L579>

00001492 <.L679>:
            for (i = 0; i < insize; i++) {
    1492:	05f60163          	beq	a2,t6,14d4 <.L579>

00001496 <.L578>:
                            q = q->next;
    1496:	439c                	lw	a5,0(a5)

00001498 <.LVL610>:
                psize++;
    1498:	0605                	addi	a2,a2,1
    149a:	8eb2                	mv	t4,a2

0000149c <.LVL611>:
                if (!q) break;
    149c:	cf85                	beqz	a5,14d4 <.L579>

0000149e <.LVL612>:
                            q = q->next;
    149e:	439c                	lw	a5,0(a5)

000014a0 <.LVL613>:
                psize++;
    14a0:	0605                	addi	a2,a2,1

000014a2 <.LVL614>:
                if (!q) break;
    14a2:	cb8d                	beqz	a5,14d4 <.L579>

000014a4 <.LVL615>:
                            q = q->next;
    14a4:	439c                	lw	a5,0(a5)

000014a6 <.LVL616>:
                psize++;
    14a6:	002e8613          	addi	a2,t4,2

000014aa <.LVL617>:
                if (!q) break;
    14aa:	c78d                	beqz	a5,14d4 <.L579>

000014ac <.LVL618>:
                            q = q->next;
    14ac:	439c                	lw	a5,0(a5)

000014ae <.LVL619>:
                psize++;
    14ae:	003e8613          	addi	a2,t4,3

000014b2 <.LVL620>:
                if (!q) break;
    14b2:	c38d                	beqz	a5,14d4 <.L579>

000014b4 <.LVL621>:
                            q = q->next;
    14b4:	439c                	lw	a5,0(a5)

000014b6 <.LVL622>:
                psize++;
    14b6:	004e8613          	addi	a2,t4,4

000014ba <.LVL623>:
                if (!q) break;
    14ba:	cf89                	beqz	a5,14d4 <.L579>

000014bc <.LVL624>:
                            q = q->next;
    14bc:	439c                	lw	a5,0(a5)

000014be <.LVL625>:
                psize++;
    14be:	005e8613          	addi	a2,t4,5

000014c2 <.LVL626>:
                if (!q) break;
    14c2:	cb89                	beqz	a5,14d4 <.L579>

000014c4 <.LVL627>:
                            q = q->next;
    14c4:	439c                	lw	a5,0(a5)

000014c6 <.LVL628>:
                psize++;
    14c6:	006e8613          	addi	a2,t4,6

000014ca <.LVL629>:
                if (!q) break;
    14ca:	c789                	beqz	a5,14d4 <.L579>

000014cc <.LVL630>:
                            q = q->next;
    14cc:	439c                	lw	a5,0(a5)

000014ce <.LVL631>:
                psize++;
    14ce:	007e8613          	addi	a2,t4,7

000014d2 <.LVL632>:
                if (!q) break;
    14d2:	f3e1                	bnez	a5,1492 <.L679>

000014d4 <.L579>:
                                    list = e;
    14d4:	86fe                	mv	a3,t6

000014d6 <.LVL634>:
            while (psize > 0 || (qsize > 0 && q)) {
    14d6:	c625                	beqz	a2,153e <.L682>

000014d8 <.L585>:
                                } else if (qsize == 0 || !q) {
    14d8:	cead                	beqz	a3,1552 <.L680>
    14da:	cfa5                	beqz	a5,1552 <.L680>
                                } else if (cmp(p->info,q->info,res) <= 0) {
    14dc:	0045ae03          	lw	t3,4(a1)
    14e0:	0047a303          	lw	t1,4(a5)

000014e4 <.LBB469>:
                a->data16 = (a->data16 & 0xff00) | (0x00ff & (a->data16>>8));
    14e4:	000e1703          	lh	a4,0(t3)
        return a->idx - b->idx;
    14e8:	00231f03          	lh	t5,2(t1)
    14ec:	002e1883          	lh	a7,2(t3)
                a->data16 = (a->data16 & 0xff00) | (0x00ff & (a->data16>>8));
    14f0:	01071e93          	slli	t4,a4,0x10
    14f4:	010ede93          	srli	t4,t4,0x10
    14f8:	008ede93          	srli	t4,t4,0x8
    14fc:	f0077713          	andi	a4,a4,-256
    1500:	01d76733          	or	a4,a4,t4
    1504:	00ee1023          	sh	a4,0(t3)
                b->data16 = (b->data16 & 0xff00) | (0x00ff & (b->data16>>8));
    1508:	00031e83          	lh	t4,0(t1)
        return a->idx - b->idx;
    150c:	41e888b3          	sub	a7,a7,t5
                b->data16 = (b->data16 & 0xff00) | (0x00ff & (b->data16>>8));
    1510:	010e9e13          	slli	t3,t4,0x10

00001514 <.LVL636>:
    1514:	010e5f13          	srli	t5,t3,0x10
    1518:	f00ef713          	andi	a4,t4,-256
    151c:	008f5e93          	srli	t4,t5,0x8
    1520:	01d76e33          	or	t3,a4,t4
    1524:	01c31023          	sh	t3,0(t1)

00001528 <.LBE469>:
                                } else if (cmp(p->info,q->info,res) <= 0) {
    1528:	03105563          	blez	a7,1552 <.L680>

0000152c <.LVL638>:
                                    e = q; q = q->next; qsize--;
    152c:	833e                	mv	t1,a5
    152e:	439c                	lw	a5,0(a5)

00001530 <.LVL639>:
    1530:	16fd                	addi	a3,a3,-1

00001532 <.L580>:
                                if (tail) {
    1532:	00080d63          	beqz	a6,154c <.L595>

00001536 <.L683>:
                                    tail->next = e;
    1536:	00682023          	sw	t1,0(a6)
                                    list = e;
    153a:	881a                	mv	a6,t1

0000153c <.L684>:
            while (psize > 0 || (qsize > 0 && q)) {
    153c:	fe51                	bnez	a2,14d8 <.L585>

0000153e <.L682>:
    153e:	ce91                	beqz	a3,155a <.L586>
    1540:	c385                	beqz	a5,1560 <.L588>

00001542 <.LVL643>:
                                    e = q; q = q->next; qsize--;
    1542:	833e                	mv	t1,a5
    1544:	16fd                	addi	a3,a3,-1
    1546:	439c                	lw	a5,0(a5)

00001548 <.LVL645>:
                                if (tail) {
    1548:	fe0817e3          	bnez	a6,1536 <.L683>

0000154c <.L595>:
                                    list = e;
    154c:	851a                	mv	a0,t1
    154e:	881a                	mv	a6,t1

00001550 <.LVL646>:
    1550:	b7f5                	j	153c <.L684>

00001552 <.L680>:
                                    e = p; p = p->next; psize--;
    1552:	832e                	mv	t1,a1
    1554:	167d                	addi	a2,a2,-1

00001556 <.LVL648>:
    1556:	418c                	lw	a1,0(a1)

00001558 <.LVL649>:
    1558:	bfe9                	j	1532 <.L580>

0000155a <.L586>:
        while (p) {
    155a:	c399                	beqz	a5,1560 <.L588>
        list = NULL;
    155c:	85be                	mv	a1,a5
    155e:	bde1                	j	1436 <.L571>

00001560 <.L588>:
            tail->next = NULL;
    1560:	00082023          	sw	zero,0(a6)
        if (nmerges <= 1)   /* allow for nmerges==0, the empty list case */
    1564:	00728a63          	beq	t0,t2,1578 <.L676>
        insize *= 2;
    1568:	0f86                	slli	t6,t6,0x1

0000156a <.LVL652>:
        while (p) {
    156a:	c901                	beqz	a0,157a <.L685>
    156c:	87aa                	mv	a5,a0

0000156e <.LVL653>:
        nmerges = 0;  /* count number of merges we do in this pass */
    156e:	4281                	li	t0,0
        tail = NULL;
    1570:	4801                	li	a6,0
        list = NULL;
    1572:	4501                	li	a0,0

00001574 <.LVL654>:
    1574:	85be                	mv	a1,a5
    1576:	b5c1                	j	1436 <.L571>

00001578 <.L676>:
}
    1578:	8082                	ret

0000157a <.L685>:
            tail->next = NULL;
    157a:	00002023          	sw	zero,0(zero) # 0 <_start>
    157e:	9002                	ebreak

00001580 <.L594>:
        memblock++;
    1580:	87b6                	mv	a5,a3

00001582 <.LVL658>:
        datablock++;
    1582:	871a                	mv	a4,t1

00001584 <.LBB473>:
    1584:	4681                	li	a3,0
    1586:	b135                	j	11b2 <.L563>

00001588 <core_list_insert_new>:
        if ((*memblock+1) >= memblock_end)
    1588:	00062803          	lw	a6,0(a2)
    158c:	00880893          	addi	a7,a6,8
    1590:	04e8f163          	bgeu	a7,a4,15d2 <.L689>
        if ((*datablock+1) >= datablock_end)
    1594:	4298                	lw	a4,0(a3)

00001596 <.LVL660>:
    1596:	00470313          	addi	t1,a4,4
    159a:	02f37c63          	bgeu	t1,a5,15d2 <.L689>

0000159e <.LVL661>:
        (*memblock)++;
    159e:	01162023          	sw	a7,0(a2)
        newitem->next=insert_point->next;
    15a2:	411c                	lw	a5,0(a0)

000015a4 <.LBB474>:
        to->data16=from->data16;
    15a4:	00059283          	lh	t0,0(a1)
        to->idx=from->idx;
    15a8:	00259603          	lh	a2,2(a1)

000015ac <.LBE474>:
        newitem->next=insert_point->next;
    15ac:	00f82023          	sw	a5,0(a6)
        insert_point->next=newitem;
    15b0:	01052023          	sw	a6,0(a0)
        newitem->info=*datablock;
    15b4:	00e82223          	sw	a4,4(a6)
        (*datablock)++;
    15b8:	0006a383          	lw	t2,0(a3)
    15bc:	00438513          	addi	a0,t2,4

000015c0 <.LVL664>:
    15c0:	c288                	sw	a0,0(a3)
        copy_info(newitem->info,info);
    15c2:	00482583          	lw	a1,4(a6)

000015c6 <.LBB478>:
}
    15c6:	8542                	mv	a0,a6

000015c8 <.LBB479>:
        to->data16=from->data16;
    15c8:	00559023          	sh	t0,0(a1)
        to->idx=from->idx;
    15cc:	00c59123          	sh	a2,2(a1)

000015d0 <.LBE479>:
}
    15d0:	8082                	ret

000015d2 <.L689>:
                return NULL;
    15d2:	4801                	li	a6,0
}
    15d4:	8542                	mv	a0,a6

000015d6 <.LVL668>:
    15d6:	8082                	ret

000015d8 <core_list_remove>:
list_head *core_list_remove(list_head *item) {
    15d8:	87aa                	mv	a5,a0
        list_head *ret=item->next;
    15da:	4108                	lw	a0,0(a0)

000015dc <.LVL670>:
        tmp=item->info;
    15dc:	43d4                	lw	a3,4(a5)
        item->info=ret->info;
    15de:	4150                	lw	a2,4(a0)
        item->next=item->next->next;
    15e0:	4118                	lw	a4,0(a0)
        item->info=ret->info;
    15e2:	c3d0                	sw	a2,4(a5)
        ret->info=tmp;
    15e4:	c154                	sw	a3,4(a0)
        item->next=item->next->next;
    15e6:	c398                	sw	a4,0(a5)
        ret->next=NULL;
    15e8:	00052023          	sw	zero,0(a0)
}
    15ec:	8082                	ret

000015ee <core_list_undo_remove>:
        item_removed->info=item_modified->info;
    15ee:	41d0                	lw	a2,4(a1)
        tmp=item_removed->info;
    15f0:	4154                	lw	a3,4(a0)
        item_removed->next=item_modified->next;
    15f2:	4198                	lw	a4,0(a1)
        item_removed->info=item_modified->info;
    15f4:	c150                	sw	a2,4(a0)
        item_modified->info=tmp;
    15f6:	c1d4                	sw	a3,4(a1)
        item_removed->next=item_modified->next;
    15f8:	c118                	sw	a4,0(a0)
        item_modified->next=item_removed;
    15fa:	c188                	sw	a0,0(a1)
}
    15fc:	8082                	ret

000015fe <core_list_find>:
        if (info->idx>=0) {
    15fe:	00259603          	lh	a2,2(a1)
    1602:	00064d63          	bltz	a2,161c <.L705>
                while (list && (list->info->idx != info->idx))
    1606:	e501                	bnez	a0,160e <.L696>
    1608:	a805                	j	1638 <.L706>

0000160a <.L697>:
                        list=list->next;
    160a:	4108                	lw	a0,0(a0)

0000160c <.LVL675>:
                while (list && (list->info->idx != info->idx))
    160c:	c505                	beqz	a0,1634 <.L700>

0000160e <.L696>:
    160e:	00452303          	lw	t1,4(a0)
    1612:	00231383          	lh	t2,2(t1)
    1616:	fec39ae3          	bne	t2,a2,160a <.L697>
    161a:	8082                	ret

0000161c <.L705>:
                while (list && ((list->info->data16 & 0xff) != info->data16))
    161c:	cd01                	beqz	a0,1634 <.L700>
    161e:	00059703          	lh	a4,0(a1)
    1622:	a019                	j	1628 <.L695>

00001624 <.L698>:
                        list=list->next;
    1624:	4108                	lw	a0,0(a0)
                while (list && ((list->info->data16 & 0xff) != info->data16))
    1626:	c901                	beqz	a0,1636 <.L692>

00001628 <.L695>:
    1628:	415c                	lw	a5,4(a0)
    162a:	0007c283          	lbu	t0,0(a5)
    162e:	fee29be3          	bne	t0,a4,1624 <.L698>
    1632:	8082                	ret

00001634 <.L700>:
    1634:	4501                	li	a0,0

00001636 <.L692>:
}
    1636:	8082                	ret

00001638 <.L706>:
    1638:	8082                	ret

0000163a <core_list_reverse>:
        while (list) {
    163a:	c92d                	beqz	a0,16ac <.L708>
                tmp=list->next;
    163c:	411c                	lw	a5,0(a0)
        list_head *next=NULL, *tmp;
    163e:	4881                	li	a7,0

00001640 <.LVL683>:
                list->next=next;
    1640:	01152023          	sw	a7,0(a0)

00001644 <.LVL684>:
        while (list) {
    1644:	86aa                	mv	a3,a0
    1646:	c3bd                	beqz	a5,16ac <.L708>

00001648 <.L710>:
                tmp=list->next;
    1648:	4398                	lw	a4,0(a5)
                list->next=next;
    164a:	c394                	sw	a3,0(a5)
    164c:	853e                	mv	a0,a5
        while (list) {
    164e:	c325                	beqz	a4,16ae <.L721>

00001650 <.LVL686>:
                tmp=list->next;
    1650:	00072283          	lw	t0,0(a4)
                list->next=next;
    1654:	c31c                	sw	a5,0(a4)
    1656:	853a                	mv	a0,a4

00001658 <.LVL687>:
        while (list) {
    1658:	04028a63          	beqz	t0,16ac <.L708>
                tmp=list->next;
    165c:	0002a303          	lw	t1,0(t0)
                list->next=next;
    1660:	00e2a023          	sw	a4,0(t0)
    1664:	8516                	mv	a0,t0

00001666 <.LVL688>:
        while (list) {
    1666:	04030363          	beqz	t1,16ac <.L708>
                tmp=list->next;
    166a:	00032383          	lw	t2,0(t1)
                list->next=next;
    166e:	00532023          	sw	t0,0(t1)
    1672:	851a                	mv	a0,t1

00001674 <.LVL689>:
        while (list) {
    1674:	02038c63          	beqz	t2,16ac <.L708>
                tmp=list->next;
    1678:	0003a583          	lw	a1,0(t2)
                list->next=next;
    167c:	0063a023          	sw	t1,0(t2)
    1680:	851e                	mv	a0,t2

00001682 <.LVL690>:
        while (list) {
    1682:	c58d                	beqz	a1,16ac <.L708>
                tmp=list->next;
    1684:	0005a803          	lw	a6,0(a1)
                list->next=next;
    1688:	0075a023          	sw	t2,0(a1)
    168c:	852e                	mv	a0,a1

0000168e <.LVL691>:
        while (list) {
    168e:	00080f63          	beqz	a6,16ac <.L708>
                tmp=list->next;
    1692:	00082603          	lw	a2,0(a6)
                list->next=next;
    1696:	00b82023          	sw	a1,0(a6)
    169a:	8542                	mv	a0,a6
        while (list) {
    169c:	88c2                	mv	a7,a6
    169e:	c619                	beqz	a2,16ac <.L708>
    16a0:	8532                	mv	a0,a2

000016a2 <.LVL693>:
                tmp=list->next;
    16a2:	411c                	lw	a5,0(a0)
                list->next=next;
    16a4:	01152023          	sw	a7,0(a0)

000016a8 <.LVL694>:
        while (list) {
    16a8:	86aa                	mv	a3,a0
    16aa:	ffd9                	bnez	a5,1648 <.L710>

000016ac <.L708>:
}
    16ac:	8082                	ret

000016ae <.L721>:
    16ae:	8082                	ret

000016b0 <core_list_mergesort>:
list_head *core_list_mergesort(list_head *list, list_cmp cmp, core_results *res) {
    16b0:	7179                	addi	sp,sp,-48
    16b2:	d422                	sw	s0,40(sp)
    16b4:	c85a                	sw	s6,16(sp)
    16b6:	c65e                	sw	s7,12(sp)
    16b8:	c266                	sw	s9,4(sp)
    16ba:	c06a                	sw	s10,0(sp)
    16bc:	d606                	sw	ra,44(sp)
    16be:	d226                	sw	s1,36(sp)
    16c0:	d04a                	sw	s2,32(sp)
    16c2:	ce4e                	sw	s3,28(sp)
    16c4:	cc52                	sw	s4,24(sp)
    16c6:	ca56                	sw	s5,20(sp)
    16c8:	c462                	sw	s8,8(sp)
    16ca:	842a                	mv	s0,a0
    16cc:	8b2e                	mv	s6,a1
    16ce:	8d32                	mv	s10,a2
    insize = 1;
    16d0:	4b85                	li	s7,1
        if (nmerges <= 1)   /* allow for nmerges==0, the empty list case */
    16d2:	4c85                	li	s9,1

000016d4 <.L739>:
        while (p) {
    16d4:	10040163          	beqz	s0,17d6 <.L723>
        nmerges = 0;  /* count number of merges we do in this pass */
    16d8:	4c01                	li	s8,0
        tail = NULL;
    16da:	4481                	li	s1,0
        list = NULL;
    16dc:	4a81                	li	s5,0

000016de <.L737>:
            nmerges++;  /* there exists a merge to be done */
    16de:	007bf713          	andi	a4,s7,7
    16e2:	0c05                	addi	s8,s8,1

000016e4 <.LVL700>:
    16e4:	87a2                	mv	a5,s0
            psize = 0;
    16e6:	4901                	li	s2,0
    16e8:	cb31                	beqz	a4,173c <.L726>
    16ea:	4685                	li	a3,1
    16ec:	04d70363          	beq	a4,a3,1732 <.L780>
    16f0:	4089                	li	ra,2
    16f2:	02170d63          	beq	a4,ra,172c <.L781>
    16f6:	428d                	li	t0,3
    16f8:	02570763          	beq	a4,t0,1726 <.L782>
    16fc:	4311                	li	t1,4
    16fe:	02670163          	beq	a4,t1,1720 <.L783>
    1702:	4395                	li	t2,5
    1704:	00770b63          	beq	a4,t2,171a <.L784>
    1708:	4519                	li	a0,6
    170a:	00a70563          	beq	a4,a0,1714 <.L785>

0000170e <.LVL701>:
                            q = q->next;
    170e:	401c                	lw	a5,0(s0)
                psize++;
    1710:	4905                	li	s2,1

00001712 <.LVL702>:
                if (!q) break;
    1712:	c7a5                	beqz	a5,177a <.L727>

00001714 <.L785>:
                            q = q->next;
    1714:	439c                	lw	a5,0(a5)

00001716 <.LVL704>:
                psize++;
    1716:	0905                	addi	s2,s2,1

00001718 <.LVL705>:
                if (!q) break;
    1718:	c3ad                	beqz	a5,177a <.L727>

0000171a <.L784>:
                            q = q->next;
    171a:	439c                	lw	a5,0(a5)

0000171c <.LVL707>:
                psize++;
    171c:	0905                	addi	s2,s2,1

0000171e <.LVL708>:
                if (!q) break;
    171e:	cfb1                	beqz	a5,177a <.L727>

00001720 <.L783>:
                            q = q->next;
    1720:	439c                	lw	a5,0(a5)

00001722 <.LVL710>:
                psize++;
    1722:	0905                	addi	s2,s2,1

00001724 <.LVL711>:
                if (!q) break;
    1724:	cbb9                	beqz	a5,177a <.L727>

00001726 <.L782>:
                            q = q->next;
    1726:	439c                	lw	a5,0(a5)

00001728 <.LVL713>:
                psize++;
    1728:	0905                	addi	s2,s2,1

0000172a <.LVL714>:
                if (!q) break;
    172a:	cba1                	beqz	a5,177a <.L727>

0000172c <.L781>:
                            q = q->next;
    172c:	439c                	lw	a5,0(a5)

0000172e <.LVL716>:
                psize++;
    172e:	0905                	addi	s2,s2,1

00001730 <.LVL717>:
                if (!q) break;
    1730:	c7a9                	beqz	a5,177a <.L727>

00001732 <.L780>:
                            q = q->next;
    1732:	439c                	lw	a5,0(a5)

00001734 <.LVL719>:
                psize++;
    1734:	0905                	addi	s2,s2,1

00001736 <.LVL720>:
                if (!q) break;
    1736:	c3b1                	beqz	a5,177a <.L727>

00001738 <.L798>:
            for (i = 0; i < insize; i++) {
    1738:	052b8163          	beq	s7,s2,177a <.L727>

0000173c <.L726>:
                            q = q->next;
    173c:	439c                	lw	a5,0(a5)

0000173e <.LVL722>:
                psize++;
    173e:	0905                	addi	s2,s2,1
    1740:	85ca                	mv	a1,s2

00001742 <.LVL723>:
                if (!q) break;
    1742:	cf85                	beqz	a5,177a <.L727>

00001744 <.LVL724>:
                            q = q->next;
    1744:	439c                	lw	a5,0(a5)

00001746 <.LVL725>:
                psize++;
    1746:	0905                	addi	s2,s2,1

00001748 <.LVL726>:
                if (!q) break;
    1748:	cb8d                	beqz	a5,177a <.L727>

0000174a <.LVL727>:
                            q = q->next;
    174a:	439c                	lw	a5,0(a5)

0000174c <.LVL728>:
                psize++;
    174c:	00258913          	addi	s2,a1,2

00001750 <.LVL729>:
                if (!q) break;
    1750:	c78d                	beqz	a5,177a <.L727>

00001752 <.LVL730>:
                            q = q->next;
    1752:	439c                	lw	a5,0(a5)

00001754 <.LVL731>:
                psize++;
    1754:	00358913          	addi	s2,a1,3

00001758 <.LVL732>:
                if (!q) break;
    1758:	c38d                	beqz	a5,177a <.L727>

0000175a <.LVL733>:
                            q = q->next;
    175a:	439c                	lw	a5,0(a5)

0000175c <.LVL734>:
                psize++;
    175c:	00458913          	addi	s2,a1,4

00001760 <.LVL735>:
                if (!q) break;
    1760:	cf89                	beqz	a5,177a <.L727>

00001762 <.LVL736>:
                            q = q->next;
    1762:	439c                	lw	a5,0(a5)

00001764 <.LVL737>:
                psize++;
    1764:	00558913          	addi	s2,a1,5

00001768 <.LVL738>:
                if (!q) break;
    1768:	cb89                	beqz	a5,177a <.L727>

0000176a <.LVL739>:
                            q = q->next;
    176a:	439c                	lw	a5,0(a5)

0000176c <.LVL740>:
                psize++;
    176c:	00658913          	addi	s2,a1,6

00001770 <.LVL741>:
                if (!q) break;
    1770:	c789                	beqz	a5,177a <.L727>

00001772 <.LVL742>:
                            q = q->next;
    1772:	439c                	lw	a5,0(a5)

00001774 <.LVL743>:
                psize++;
    1774:	00758913          	addi	s2,a1,7

00001778 <.LVL744>:
                if (!q) break;
    1778:	f3e1                	bnez	a5,1738 <.L798>

0000177a <.L727>:
                                    list = e;
    177a:	8a22                	mv	s4,s0
    177c:	89de                	mv	s3,s7
    177e:	843e                	mv	s0,a5

00001780 <.LVL746>:
            while (psize > 0 || (qsize > 0 && q)) {
    1780:	02090463          	beqz	s2,17a8 <.L800>

00001784 <.L733>:
                                } else if (qsize == 0 || !q) {
    1784:	02098c63          	beqz	s3,17bc <.L799>
    1788:	c815                	beqz	s0,17bc <.L799>
                                } else if (cmp(p->info,q->info,res) <= 0) {
    178a:	404c                	lw	a1,4(s0)
    178c:	004a2503          	lw	a0,4(s4)
    1790:	866a                	mv	a2,s10
    1792:	9b02                	jalr	s6

00001794 <.LVL747>:
    1794:	02a05463          	blez	a0,17bc <.L799>

00001798 <.LVL748>:
                                    e = q; q = q->next; qsize--;
    1798:	8622                	mv	a2,s0
    179a:	4000                	lw	s0,0(s0)

0000179c <.LVL749>:
    179c:	19fd                	addi	s3,s3,-1

0000179e <.L728>:
                                if (tail) {
    179e:	cc81                	beqz	s1,17b6 <.L740>

000017a0 <.L801>:
                                    tail->next = e;
    17a0:	c090                	sw	a2,0(s1)
                                    list = e;
    17a2:	84b2                	mv	s1,a2

000017a4 <.L802>:
            while (psize > 0 || (qsize > 0 && q)) {
    17a4:	fe0910e3          	bnez	s2,1784 <.L733>

000017a8 <.L800>:
    17a8:	00098f63          	beqz	s3,17c6 <.L734>
    17ac:	cc11                	beqz	s0,17c8 <.L736>

000017ae <.LVL753>:
                                    e = q; q = q->next; qsize--;
    17ae:	8622                	mv	a2,s0
    17b0:	19fd                	addi	s3,s3,-1
    17b2:	4000                	lw	s0,0(s0)

000017b4 <.LVL755>:
                                if (tail) {
    17b4:	f4f5                	bnez	s1,17a0 <.L801>

000017b6 <.L740>:
                                    list = e;
    17b6:	8ab2                	mv	s5,a2
    17b8:	84b2                	mv	s1,a2

000017ba <.LVL756>:
    17ba:	b7ed                	j	17a4 <.L802>

000017bc <.L799>:
                                    e = p; p = p->next; psize--;
    17bc:	8652                	mv	a2,s4
    17be:	197d                	addi	s2,s2,-1

000017c0 <.LVL758>:
    17c0:	000a2a03          	lw	s4,0(s4)

000017c4 <.LVL759>:
    17c4:	bfe9                	j	179e <.L728>

000017c6 <.L734>:
        while (p) {
    17c6:	fc01                	bnez	s0,16de <.L737>

000017c8 <.L736>:
            tail->next = NULL;
    17c8:	0004a023          	sw	zero,0(s1)
        if (nmerges <= 1)   /* allow for nmerges==0, the empty list case */
    17cc:	019c0863          	beq	s8,s9,17dc <.L796>
        insize *= 2;
    17d0:	0b86                	slli	s7,s7,0x1
        p = list;
    17d2:	8456                	mv	s0,s5

000017d4 <.LVL763>:
    17d4:	b701                	j	16d4 <.L739>

000017d6 <.L723>:
            tail->next = NULL;
    17d6:	00002023          	sw	zero,0(zero) # 0 <_start>
    17da:	9002                	ebreak

000017dc <.L796>:
}
    17dc:	50b2                	lw	ra,44(sp)
    17de:	5422                	lw	s0,40(sp)

000017e0 <.LVL766>:
    17e0:	5492                	lw	s1,36(sp)
    17e2:	5902                	lw	s2,32(sp)
    17e4:	49f2                	lw	s3,28(sp)

000017e6 <.LVL767>:
    17e6:	4a62                	lw	s4,24(sp)
    17e8:	4b42                	lw	s6,16(sp)

000017ea <.LVL768>:
    17ea:	4bb2                	lw	s7,12(sp)

000017ec <.LVL769>:
    17ec:	4c22                	lw	s8,8(sp)
    17ee:	4c92                	lw	s9,4(sp)
    17f0:	4d02                	lw	s10,0(sp)

000017f2 <.LVL770>:
    17f2:	8556                	mv	a0,s5
    17f4:	4ad2                	lw	s5,20(sp)
    17f6:	6145                	addi	sp,sp,48
    17f8:	8082                	ret

000017fa <iterate>:
void *iterate(void *pres) {
    17fa:	1101                	addi	sp,sp,-32
    17fc:	ca26                	sw	s1,20(sp)
        ee_u32 iterations=res->iterations;
    17fe:	4d44                	lw	s1,28(a0)
void *iterate(void *pres) {
    1800:	cc22                	sw	s0,24(sp)
    1802:	c84a                	sw	s2,16(sp)
    1804:	c64e                	sw	s3,12(sp)
    1806:	ce06                	sw	ra,28(sp)

00001808 <.LBB496>:
                   crc |= 0x8000;
    1808:	7969                	lui	s2,0xffffa

0000180a <.LBE496>:
        res->crc=0;
    180a:	02052423          	sw	zero,40(a0)
    180e:	02052623          	sw	zero,44(a0)
void *iterate(void *pres) {
    1812:	89aa                	mv	s3,a0

00001814 <.LVL772>:
        for (i=0; i<iterations; i++) {
    1814:	4401                	li	s0,0

00001816 <.LBB502>:
                   crc |= 0x8000;
    1816:	0905                	addi	s2,s2,1

00001818 <.LBE502>:
        for (i=0; i<iterations; i++) {
    1818:	40048e63          	beqz	s1,1c34 <.L874>

0000181c <.L804>:
                crc=core_bench_list(res,1);
    181c:	4585                	li	a1,1
    181e:	854e                	mv	a0,s3
    1820:	808ff0ef          	jal	ra,828 <core_bench_list>

00001824 <.LVL774>:
                res->crc=crcu16(crc,res->crc);
    1824:	0289d783          	lhu	a5,40(s3)

00001828 <.LBB511>:
        crc=crcu8( (ee_u8) (newval)                             ,crc);
    1828:	0ff57693          	andi	a3,a0,255

0000182c <.LBB503>:
                data >>= 1;
    182c:	0016d613          	srli	a2,a3,0x1

00001830 <.LVL777>:
                x16 = (ee_u8)((data & 1) ^ ((ee_u8)crc & 1));
    1830:	00a7c733          	xor	a4,a5,a0
                if (x16 == 1)
    1834:	00177293          	andi	t0,a4,1
                   crc |= 0x8000;
    1838:	0017d393          	srli	t2,a5,0x1
                if (x16 == 1)
    183c:	00028863          	beqz	t0,184c <.L806>

00001840 <.LVL778>:
                   crc |= 0x8000;
    1840:	0123c0b3          	xor	ra,t2,s2
    1844:	01009313          	slli	t1,ra,0x10
    1848:	01035393          	srli	t2,t1,0x10

0000184c <.L806>:
                x16 = (ee_u8)((data & 1) ^ ((ee_u8)crc & 1));
    184c:	00c3c5b3          	xor	a1,t2,a2
                if (x16 == 1)
    1850:	0015f813          	andi	a6,a1,1
                data >>= 1;
    1854:	0026d893          	srli	a7,a3,0x2

00001858 <.LVL780>:
                if (x16 == 1)
    1858:	0013df13          	srli	t5,t2,0x1
    185c:	00080863          	beqz	a6,186c <.L807>

00001860 <.LVL781>:
                   crc |= 0x8000;
    1860:	012f4e33          	xor	t3,t5,s2

00001864 <.LVL782>:
    1864:	010e1e93          	slli	t4,t3,0x10
    1868:	010edf13          	srli	t5,t4,0x10

0000186c <.L807>:
                x16 = (ee_u8)((data & 1) ^ ((ee_u8)crc & 1));
    186c:	011f4fb3          	xor	t6,t5,a7
                if (x16 == 1)
    1870:	001ff713          	andi	a4,t6,1
                data >>= 1;
    1874:	0036d293          	srli	t0,a3,0x3

00001878 <.LVL784>:
                if (x16 == 1)
    1878:	001f5093          	srli	ra,t5,0x1
    187c:	c719                	beqz	a4,188a <.L808>

0000187e <.LVL785>:
                   crc |= 0x8000;
    187e:	0120c7b3          	xor	a5,ra,s2

00001882 <.LVL786>:
    1882:	01079613          	slli	a2,a5,0x10
    1886:	01065093          	srli	ra,a2,0x10

0000188a <.L808>:
                x16 = (ee_u8)((data & 1) ^ ((ee_u8)crc & 1));
    188a:	0050c333          	xor	t1,ra,t0
                if (x16 == 1)
    188e:	00137393          	andi	t2,t1,1
                data >>= 1;
    1892:	0046d593          	srli	a1,a3,0x4

00001896 <.LVL788>:
                if (x16 == 1)
    1896:	0010de13          	srli	t3,ra,0x1
    189a:	00038863          	beqz	t2,18aa <.L809>

0000189e <.LVL789>:
                   crc |= 0x8000;
    189e:	012e4833          	xor	a6,t3,s2

000018a2 <.LVL790>:
    18a2:	01081893          	slli	a7,a6,0x10
    18a6:	0108de13          	srli	t3,a7,0x10

000018aa <.L809>:
                x16 = (ee_u8)((data & 1) ^ ((ee_u8)crc & 1));
    18aa:	00be4eb3          	xor	t4,t3,a1
                if (x16 == 1)
    18ae:	001eff13          	andi	t5,t4,1
                data >>= 1;
    18b2:	0056df93          	srli	t6,a3,0x5

000018b6 <.LVL792>:
                if (x16 == 1)
    18b6:	001e5793          	srli	a5,t3,0x1
    18ba:	000f0863          	beqz	t5,18ca <.L810>

000018be <.LVL793>:
                   crc |= 0x8000;
    18be:	0127c733          	xor	a4,a5,s2

000018c2 <.LVL794>:
    18c2:	01071293          	slli	t0,a4,0x10
    18c6:	0102d793          	srli	a5,t0,0x10

000018ca <.L810>:
                x16 = (ee_u8)((data & 1) ^ ((ee_u8)crc & 1));
    18ca:	01f7c633          	xor	a2,a5,t6
                if (x16 == 1)
    18ce:	00167093          	andi	ra,a2,1
                data >>= 1;
    18d2:	0066d313          	srli	t1,a3,0x6

000018d6 <.LVL796>:
                if (x16 == 1)
    18d6:	0017d813          	srli	a6,a5,0x1
    18da:	00008863          	beqz	ra,18ea <.L811>

000018de <.LVL797>:
                   crc |= 0x8000;
    18de:	012843b3          	xor	t2,a6,s2

000018e2 <.LVL798>:
    18e2:	01039593          	slli	a1,t2,0x10
    18e6:	0105d813          	srli	a6,a1,0x10

000018ea <.L811>:
                x16 = (ee_u8)((data & 1) ^ ((ee_u8)crc & 1));
    18ea:	006848b3          	xor	a7,a6,t1
                if (x16 == 1)
    18ee:	0018fe13          	andi	t3,a7,1
                data >>= 1;
    18f2:	829d                	srli	a3,a3,0x7

000018f4 <.LVL800>:
                if (x16 == 1)
    18f4:	00185f93          	srli	t6,a6,0x1
    18f8:	000e0863          	beqz	t3,1908 <.L812>

000018fc <.LVL801>:
                   crc |= 0x8000;
    18fc:	012fceb3          	xor	t4,t6,s2

00001900 <.LVL802>:
    1900:	010e9f13          	slli	t5,t4,0x10
    1904:	010f5f93          	srli	t6,t5,0x10

00001908 <.L812>:
                if (x16 == 1)
    1908:	001ff713          	andi	a4,t6,1
    190c:	001fd093          	srli	ra,t6,0x1
    1910:	00d70863          	beq	a4,a3,1920 <.L813>

00001914 <.LVL804>:
                   crc |= 0x8000;
    1914:	0120c2b3          	xor	t0,ra,s2

00001918 <.LVL805>:
    1918:	01029793          	slli	a5,t0,0x10
    191c:	0107d093          	srli	ra,a5,0x10

00001920 <.L813>:
        crc=crcu8( (ee_u8) ((newval)>>8)        ,crc);
    1920:	8121                	srli	a0,a0,0x8

00001922 <.LBB504>:
                x16 = (ee_u8)((data & 1) ^ ((ee_u8)crc & 1));
    1922:	00154633          	xor	a2,a0,ra

00001926 <.LBE504>:
        crc=crcu8( (ee_u8) ((newval)>>8)        ,crc);
    1926:	0ff57313          	andi	t1,a0,255

0000192a <.LBB507>:
                if (x16 == 1)
    192a:	00167393          	andi	t2,a2,1
                data >>= 1;
    192e:	00135593          	srli	a1,t1,0x1

00001932 <.LVL809>:
                if (x16 == 1)
    1932:	0010de13          	srli	t3,ra,0x1
    1936:	00038863          	beqz	t2,1946 <.L814>

0000193a <.LVL810>:
                   crc |= 0x8000;
    193a:	012e4833          	xor	a6,t3,s2

0000193e <.LVL811>:
    193e:	01081893          	slli	a7,a6,0x10
    1942:	0108de13          	srli	t3,a7,0x10

00001946 <.L814>:
                x16 = (ee_u8)((data & 1) ^ ((ee_u8)crc & 1));
    1946:	00be46b3          	xor	a3,t3,a1
                if (x16 == 1)
    194a:	0016fe93          	andi	t4,a3,1
                data >>= 1;
    194e:	00235f13          	srli	t5,t1,0x2

00001952 <.LVL813>:
                if (x16 == 1)
    1952:	001e5293          	srli	t0,t3,0x1
    1956:	000e8863          	beqz	t4,1966 <.L815>

0000195a <.LVL814>:
                   crc |= 0x8000;
    195a:	0122cfb3          	xor	t6,t0,s2

0000195e <.LVL815>:
    195e:	010f9713          	slli	a4,t6,0x10
    1962:	01075293          	srli	t0,a4,0x10

00001966 <.L815>:
                x16 = (ee_u8)((data & 1) ^ ((ee_u8)crc & 1));
    1966:	01e2c7b3          	xor	a5,t0,t5
                if (x16 == 1)
    196a:	0017f093          	andi	ra,a5,1
                data >>= 1;
    196e:	00335513          	srli	a0,t1,0x3

00001972 <.LVL817>:
                if (x16 == 1)
    1972:	0012d593          	srli	a1,t0,0x1
    1976:	00008863          	beqz	ra,1986 <.L816>

0000197a <.LVL818>:
                   crc |= 0x8000;
    197a:	0125c633          	xor	a2,a1,s2

0000197e <.LVL819>:
    197e:	01061393          	slli	t2,a2,0x10
    1982:	0103d593          	srli	a1,t2,0x10

00001986 <.L816>:
                x16 = (ee_u8)((data & 1) ^ ((ee_u8)crc & 1));
    1986:	00a5c833          	xor	a6,a1,a0
                if (x16 == 1)
    198a:	00187893          	andi	a7,a6,1
                data >>= 1;
    198e:	00435e13          	srli	t3,t1,0x4

00001992 <.LVL821>:
                if (x16 == 1)
    1992:	0015df13          	srli	t5,a1,0x1
    1996:	00088863          	beqz	a7,19a6 <.L817>

0000199a <.LVL822>:
                   crc |= 0x8000;
    199a:	012f46b3          	xor	a3,t5,s2

0000199e <.LVL823>:
    199e:	01069e93          	slli	t4,a3,0x10
    19a2:	010edf13          	srli	t5,t4,0x10

000019a6 <.L817>:
                x16 = (ee_u8)((data & 1) ^ ((ee_u8)crc & 1));
    19a6:	01cf4fb3          	xor	t6,t5,t3
                if (x16 == 1)
    19aa:	001ff713          	andi	a4,t6,1
                data >>= 1;
    19ae:	00535293          	srli	t0,t1,0x5

000019b2 <.LVL825>:
                if (x16 == 1)
    19b2:	001f5513          	srli	a0,t5,0x1
    19b6:	c719                	beqz	a4,19c4 <.L818>

000019b8 <.LVL826>:
                   crc |= 0x8000;
    19b8:	012547b3          	xor	a5,a0,s2

000019bc <.LVL827>:
    19bc:	01079093          	slli	ra,a5,0x10
    19c0:	0100d513          	srli	a0,ra,0x10

000019c4 <.L818>:
                x16 = (ee_u8)((data & 1) ^ ((ee_u8)crc & 1));
    19c4:	00554633          	xor	a2,a0,t0
                if (x16 == 1)
    19c8:	00167393          	andi	t2,a2,1
                data >>= 1;
    19cc:	00635593          	srli	a1,t1,0x6

000019d0 <.LVL829>:
                if (x16 == 1)
    19d0:	00155e13          	srli	t3,a0,0x1
    19d4:	00038863          	beqz	t2,19e4 <.L819>

000019d8 <.LVL830>:
                   crc |= 0x8000;
    19d8:	012e4833          	xor	a6,t3,s2

000019dc <.LVL831>:
    19dc:	01081893          	slli	a7,a6,0x10
    19e0:	0108de13          	srli	t3,a7,0x10

000019e4 <.L819>:
                x16 = (ee_u8)((data & 1) ^ ((ee_u8)crc & 1));
    19e4:	00be46b3          	xor	a3,t3,a1
                if (x16 == 1)
    19e8:	0016fe93          	andi	t4,a3,1
                data >>= 1;
    19ec:	00735313          	srli	t1,t1,0x7

000019f0 <.LVL833>:
                if (x16 == 1)
    19f0:	001e5293          	srli	t0,t3,0x1
    19f4:	000e8863          	beqz	t4,1a04 <.L820>

000019f8 <.LVL834>:
                   crc |= 0x8000;
    19f8:	0122cf33          	xor	t5,t0,s2

000019fc <.LVL835>:
    19fc:	010f1f93          	slli	t6,t5,0x10
    1a00:	010fd293          	srli	t0,t6,0x10

00001a04 <.L820>:
                x16 = (ee_u8)((data & 1) ^ ((ee_u8)crc & 1));
    1a04:	0062c733          	xor	a4,t0,t1
                if (x16 == 1)
    1a08:	00177093          	andi	ra,a4,1
    1a0c:	0012d613          	srli	a2,t0,0x1
    1a10:	00008863          	beqz	ra,1a20 <.L821>

00001a14 <.LVL837>:
                   crc |= 0x8000;
    1a14:	012647b3          	xor	a5,a2,s2
    1a18:	01079513          	slli	a0,a5,0x10
    1a1c:	01055613          	srli	a2,a0,0x10

00001a20 <.L821>:
                crc=core_bench_list(res,-1);
    1a20:	55fd                	li	a1,-1
                res->crc=crcu16(crc,res->crc);
    1a22:	02c99423          	sh	a2,40(s3)
                crc=core_bench_list(res,-1);
    1a26:	854e                	mv	a0,s3
    1a28:	e01fe0ef          	jal	ra,828 <core_bench_list>

00001a2c <.LVL839>:
                res->crc=crcu16(crc,res->crc);
    1a2c:	0289d383          	lhu	t2,40(s3)

00001a30 <.LBB512>:
        crc=crcu8( (ee_u8) (newval)                             ,crc);
    1a30:	0ff57593          	andi	a1,a0,255

00001a34 <.LBB514>:
                data >>= 1;
    1a34:	0015de13          	srli	t3,a1,0x1

00001a38 <.LVL842>:
                x16 = (ee_u8)((data & 1) ^ ((ee_u8)crc & 1));
    1a38:	00a3c833          	xor	a6,t2,a0
                if (x16 == 1)
    1a3c:	00187893          	andi	a7,a6,1
                crc >>= 1;
    1a40:	0013d313          	srli	t1,t2,0x1
                if (x16 == 1)
    1a44:	00088863          	beqz	a7,1a54 <.L823>

00001a48 <.LVL843>:
                   crc |= 0x8000;
    1a48:	012346b3          	xor	a3,t1,s2
    1a4c:	01069e93          	slli	t4,a3,0x10
    1a50:	010ed313          	srli	t1,t4,0x10

00001a54 <.L823>:
                x16 = (ee_u8)((data & 1) ^ ((ee_u8)crc & 1));
    1a54:	01c34f33          	xor	t5,t1,t3
                if (x16 == 1)
    1a58:	001f7f93          	andi	t6,t5,1
                data >>= 1;
    1a5c:	0025d293          	srli	t0,a1,0x2

00001a60 <.LVL845>:
                if (x16 == 1)
    1a60:	00135793          	srli	a5,t1,0x1
    1a64:	000f8863          	beqz	t6,1a74 <.L824>

00001a68 <.LVL846>:
                   crc |= 0x8000;
    1a68:	0127c733          	xor	a4,a5,s2

00001a6c <.LVL847>:
    1a6c:	01071093          	slli	ra,a4,0x10
    1a70:	0100d793          	srli	a5,ra,0x10

00001a74 <.L824>:
                x16 = (ee_u8)((data & 1) ^ ((ee_u8)crc & 1));
    1a74:	0057c633          	xor	a2,a5,t0
                if (x16 == 1)
    1a78:	00167393          	andi	t2,a2,1

00001a7c <.LVL849>:
                data >>= 1;
    1a7c:	0035d813          	srli	a6,a1,0x3

00001a80 <.LVL850>:
                if (x16 == 1)
    1a80:	0017d693          	srli	a3,a5,0x1
    1a84:	00038863          	beqz	t2,1a94 <.L825>

00001a88 <.LVL851>:
                   crc |= 0x8000;
    1a88:	0126c8b3          	xor	a7,a3,s2

00001a8c <.LVL852>:
    1a8c:	01089e13          	slli	t3,a7,0x10
    1a90:	010e5693          	srli	a3,t3,0x10

00001a94 <.L825>:
                x16 = (ee_u8)((data & 1) ^ ((ee_u8)crc & 1));
    1a94:	0106ceb3          	xor	t4,a3,a6
                if (x16 == 1)
    1a98:	001ef313          	andi	t1,t4,1
                data >>= 1;
    1a9c:	0045df13          	srli	t5,a1,0x4

00001aa0 <.LVL854>:
                if (x16 == 1)
    1aa0:	0016d093          	srli	ra,a3,0x1
    1aa4:	00030863          	beqz	t1,1ab4 <.L826>

00001aa8 <.LVL855>:
                   crc |= 0x8000;
    1aa8:	0120cfb3          	xor	t6,ra,s2

00001aac <.LVL856>:
    1aac:	010f9293          	slli	t0,t6,0x10
    1ab0:	0102d093          	srli	ra,t0,0x10

00001ab4 <.L826>:
                x16 = (ee_u8)((data & 1) ^ ((ee_u8)crc & 1));
    1ab4:	01e0c733          	xor	a4,ra,t5
                if (x16 == 1)
    1ab8:	00177393          	andi	t2,a4,1
                data >>= 1;
    1abc:	0055d613          	srli	a2,a1,0x5

00001ac0 <.LVL858>:
                if (x16 == 1)
    1ac0:	0010d893          	srli	a7,ra,0x1
    1ac4:	00038863          	beqz	t2,1ad4 <.L827>

00001ac8 <.LVL859>:
                   crc |= 0x8000;
    1ac8:	0128c7b3          	xor	a5,a7,s2

00001acc <.LVL860>:
    1acc:	01079813          	slli	a6,a5,0x10
    1ad0:	01085893          	srli	a7,a6,0x10

00001ad4 <.L827>:
                x16 = (ee_u8)((data & 1) ^ ((ee_u8)crc & 1));
    1ad4:	00c8ce33          	xor	t3,a7,a2
                if (x16 == 1)
    1ad8:	001e7693          	andi	a3,t3,1
                data >>= 1;
    1adc:	0065de93          	srli	t4,a1,0x6

00001ae0 <.LVL862>:
                if (x16 == 1)
    1ae0:	0018df93          	srli	t6,a7,0x1
    1ae4:	c699                	beqz	a3,1af2 <.L828>

00001ae6 <.LVL863>:
                   crc |= 0x8000;
    1ae6:	012fc333          	xor	t1,t6,s2

00001aea <.LVL864>:
    1aea:	01031f13          	slli	t5,t1,0x10
    1aee:	010f5f93          	srli	t6,t5,0x10

00001af2 <.L828>:
                x16 = (ee_u8)((data & 1) ^ ((ee_u8)crc & 1));
    1af2:	01dfc2b3          	xor	t0,t6,t4
                if (x16 == 1)
    1af6:	0012f093          	andi	ra,t0,1
                data >>= 1;
    1afa:	819d                	srli	a1,a1,0x7

00001afc <.LVL866>:
                if (x16 == 1)
    1afc:	001fd613          	srli	a2,t6,0x1
    1b00:	00008863          	beqz	ra,1b10 <.L829>

00001b04 <.LVL867>:
                   crc |= 0x8000;
    1b04:	01264733          	xor	a4,a2,s2

00001b08 <.LVL868>:
    1b08:	01071393          	slli	t2,a4,0x10
    1b0c:	0103d613          	srli	a2,t2,0x10

00001b10 <.L829>:
                if (x16 == 1)
    1b10:	00167813          	andi	a6,a2,1
    1b14:	00165e13          	srli	t3,a2,0x1
    1b18:	00b80863          	beq	a6,a1,1b28 <.L830>

00001b1c <.LVL870>:
                   crc |= 0x8000;
    1b1c:	012e47b3          	xor	a5,t3,s2

00001b20 <.LVL871>:
    1b20:	01079893          	slli	a7,a5,0x10
    1b24:	0108de13          	srli	t3,a7,0x10

00001b28 <.L830>:
        crc=crcu8( (ee_u8) ((newval)>>8)        ,crc);
    1b28:	8121                	srli	a0,a0,0x8

00001b2a <.LBB516>:
                x16 = (ee_u8)((data & 1) ^ ((ee_u8)crc & 1));
    1b2a:	01c546b3          	xor	a3,a0,t3

00001b2e <.LBE516>:
        crc=crcu8( (ee_u8) ((newval)>>8)        ,crc);
    1b2e:	0ff57e93          	andi	t4,a0,255

00001b32 <.LBB519>:
                if (x16 == 1)
    1b32:	0016f313          	andi	t1,a3,1
                data >>= 1;
    1b36:	001edf13          	srli	t5,t4,0x1

00001b3a <.LVL875>:
                if (x16 == 1)
    1b3a:	001e5093          	srli	ra,t3,0x1
    1b3e:	00030863          	beqz	t1,1b4e <.L831>

00001b42 <.LVL876>:
                   crc |= 0x8000;
    1b42:	0120cfb3          	xor	t6,ra,s2

00001b46 <.LVL877>:
    1b46:	010f9293          	slli	t0,t6,0x10
    1b4a:	0102d093          	srli	ra,t0,0x10

00001b4e <.L831>:
                x16 = (ee_u8)((data & 1) ^ ((ee_u8)crc & 1));
    1b4e:	01e0c5b3          	xor	a1,ra,t5
                if (x16 == 1)
    1b52:	0015f713          	andi	a4,a1,1
                data >>= 1;
    1b56:	002ed393          	srli	t2,t4,0x2

00001b5a <.LVL879>:
                if (x16 == 1)
    1b5a:	0010d793          	srli	a5,ra,0x1
    1b5e:	c719                	beqz	a4,1b6c <.L832>

00001b60 <.LVL880>:
                   crc |= 0x8000;
    1b60:	0127c633          	xor	a2,a5,s2

00001b64 <.LVL881>:
    1b64:	01061813          	slli	a6,a2,0x10
    1b68:	01085793          	srli	a5,a6,0x10

00001b6c <.L832>:
                x16 = (ee_u8)((data & 1) ^ ((ee_u8)crc & 1));
    1b6c:	0077c8b3          	xor	a7,a5,t2
                if (x16 == 1)
    1b70:	0018fe13          	andi	t3,a7,1
                data >>= 1;
    1b74:	003ed513          	srli	a0,t4,0x3

00001b78 <.LVL883>:
                if (x16 == 1)
    1b78:	0017df13          	srli	t5,a5,0x1
    1b7c:	000e0863          	beqz	t3,1b8c <.L833>

00001b80 <.LVL884>:
                   crc |= 0x8000;
    1b80:	012f46b3          	xor	a3,t5,s2

00001b84 <.LVL885>:
    1b84:	01069313          	slli	t1,a3,0x10
    1b88:	01035f13          	srli	t5,t1,0x10

00001b8c <.L833>:
                x16 = (ee_u8)((data & 1) ^ ((ee_u8)crc & 1));
    1b8c:	00af4fb3          	xor	t6,t5,a0
                if (x16 == 1)
    1b90:	001ff293          	andi	t0,t6,1
                data >>= 1;
    1b94:	004ed093          	srli	ra,t4,0x4

00001b98 <.LVL887>:
                if (x16 == 1)
    1b98:	001f5393          	srli	t2,t5,0x1
    1b9c:	00028863          	beqz	t0,1bac <.L834>

00001ba0 <.LVL888>:
                   crc |= 0x8000;
    1ba0:	0123c5b3          	xor	a1,t2,s2

00001ba4 <.LVL889>:
    1ba4:	01059713          	slli	a4,a1,0x10
    1ba8:	01075393          	srli	t2,a4,0x10

00001bac <.L834>:
                x16 = (ee_u8)((data & 1) ^ ((ee_u8)crc & 1));
    1bac:	0013c633          	xor	a2,t2,ra
                if (x16 == 1)
    1bb0:	00167813          	andi	a6,a2,1
                data >>= 1;
    1bb4:	005ed893          	srli	a7,t4,0x5

00001bb8 <.LVL891>:
                if (x16 == 1)
    1bb8:	0013d513          	srli	a0,t2,0x1
    1bbc:	00080863          	beqz	a6,1bcc <.L835>

00001bc0 <.LVL892>:
                   crc |= 0x8000;
    1bc0:	012547b3          	xor	a5,a0,s2

00001bc4 <.LVL893>:
    1bc4:	01079e13          	slli	t3,a5,0x10
    1bc8:	010e5513          	srli	a0,t3,0x10

00001bcc <.L835>:
                x16 = (ee_u8)((data & 1) ^ ((ee_u8)crc & 1));
    1bcc:	011546b3          	xor	a3,a0,a7
                if (x16 == 1)
    1bd0:	0016f313          	andi	t1,a3,1
                data >>= 1;
    1bd4:	006edf13          	srli	t5,t4,0x6

00001bd8 <.LVL895>:
                if (x16 == 1)
    1bd8:	00155093          	srli	ra,a0,0x1
    1bdc:	00030863          	beqz	t1,1bec <.L836>

00001be0 <.LVL896>:
                   crc |= 0x8000;
    1be0:	0120cfb3          	xor	t6,ra,s2

00001be4 <.LVL897>:
    1be4:	010f9293          	slli	t0,t6,0x10
    1be8:	0102d093          	srli	ra,t0,0x10

00001bec <.L836>:
                x16 = (ee_u8)((data & 1) ^ ((ee_u8)crc & 1));
    1bec:	01e0c5b3          	xor	a1,ra,t5
                if (x16 == 1)
    1bf0:	0015f393          	andi	t2,a1,1
                data >>= 1;
    1bf4:	007ede93          	srli	t4,t4,0x7

00001bf8 <.LVL899>:
                if (x16 == 1)
    1bf8:	0010d813          	srli	a6,ra,0x1
    1bfc:	00038863          	beqz	t2,1c0c <.L837>

00001c00 <.LVL900>:
                   crc |= 0x8000;
    1c00:	01284733          	xor	a4,a6,s2

00001c04 <.LVL901>:
    1c04:	01071613          	slli	a2,a4,0x10
    1c08:	01065813          	srli	a6,a2,0x10

00001c0c <.L837>:
                x16 = (ee_u8)((data & 1) ^ ((ee_u8)crc & 1));
    1c0c:	01d848b3          	xor	a7,a6,t4
                if (x16 == 1)
    1c10:	0018fe13          	andi	t3,a7,1
    1c14:	00185693          	srli	a3,a6,0x1
    1c18:	000e0863          	beqz	t3,1c28 <.L838>

00001c1c <.LVL903>:
                   crc |= 0x8000;
    1c1c:	0126c7b3          	xor	a5,a3,s2
    1c20:	01079513          	slli	a0,a5,0x10
    1c24:	01055693          	srli	a3,a0,0x10

00001c28 <.L838>:
                res->crc=crcu16(crc,res->crc);
    1c28:	02d99423          	sh	a3,40(s3)
                if (i==0) res->crclist=res->crc;
    1c2c:	cc01                	beqz	s0,1c44 <.L937>
        for (i=0; i<iterations; i++) {
    1c2e:	0405                	addi	s0,s0,1
    1c30:	be8496e3          	bne	s1,s0,181c <.L804>

00001c34 <.L874>:
}
    1c34:	40f2                	lw	ra,28(sp)
    1c36:	4462                	lw	s0,24(sp)
    1c38:	44d2                	lw	s1,20(sp)

00001c3a <.LVL907>:
    1c3a:	4942                	lw	s2,16(sp)
    1c3c:	49b2                	lw	s3,12(sp)

00001c3e <.LVL908>:
    1c3e:	4501                	li	a0,0
    1c40:	6105                	addi	sp,sp,32
    1c42:	8082                	ret

00001c44 <.L937>:
                if (i==0) res->crclist=res->crc;
    1c44:	02d99523          	sh	a3,42(s3)

00001c48 <.LVL910>:
        for (i=0; i<iterations; i++) {
    1c48:	4405                	li	s0,1
    1c4a:	fe8485e3          	beq	s1,s0,1c34 <.L874>
    1c4e:	4405                	li	s0,1
    1c50:	b6f1                	j	181c <.L804>

00001c52 <get_seed_32>:
                switch (i) {
    1c52:	4795                	li	a5,5
    1c54:	02a7ef63          	bltu	a5,a0,1c92 <.L946>
    1c58:	62c1                	lui	t0,0x10
    1c5a:	050a                	slli	a0,a0,0x2

00001c5c <.LVL912>:
    1c5c:	00c28313          	addi	t1,t0,12 # 1000c <.L941>
    1c60:	006503b3          	add	t2,a0,t1
    1c64:	0003a583          	lw	a1,0(t2)
    1c68:	8582                	jr	a1

00001c6a <.L940>:
                                retval=seed5_volatile;
    1c6a:	6645                	lui	a2,0x11
    1c6c:	a6462503          	lw	a0,-1436(a2) # 10a64 <seed5_volatile>

00001c70 <.LVL913>:
                                break;
    1c70:	8082                	ret

00001c72 <.L945>:
                                retval=seed1_volatile;
    1c72:	68c5                	lui	a7,0x11
    1c74:	a6c8a503          	lw	a0,-1428(a7) # 10a6c <seed1_volatile>

00001c78 <.LVL915>:
                                break;
    1c78:	8082                	ret

00001c7a <.L944>:
                                retval=seed2_volatile;
    1c7a:	6845                	lui	a6,0x11
    1c7c:	a6882503          	lw	a0,-1432(a6) # 10a68 <seed2_volatile>

00001c80 <.LVL917>:
                                break;
    1c80:	8082                	ret

00001c82 <.L943>:
                                retval=seed3_volatile;
    1c82:	6741                	lui	a4,0x10
    1c84:	0b072503          	lw	a0,176(a4) # 100b0 <seed3_volatile>

00001c88 <.LVL919>:
                                break;
    1c88:	8082                	ret

00001c8a <.L942>:
                                retval=seed4_volatile;
    1c8a:	66c1                	lui	a3,0x10
    1c8c:	0ac6a503          	lw	a0,172(a3) # 100ac <seed4_volatile>

00001c90 <.LVL921>:
                                break;
    1c90:	8082                	ret

00001c92 <.L946>:
        ee_s32 get_seed_32(int i) {
    1c92:	4501                	li	a0,0

00001c94 <.LVL923>:
        }
    1c94:	8082                	ret

00001c96 <crcu8>:
                x16 = (ee_u8)((data & 1) ^ ((ee_u8)crc & 1));
    1c96:	00b546b3          	xor	a3,a0,a1
                if (x16 == 1)
    1c9a:	0016f293          	andi	t0,a3,1
                data >>= 1;
    1c9e:	00155713          	srli	a4,a0,0x1

00001ca2 <.LVL925>:
                if (x16 == 1)
    1ca2:	0015d613          	srli	a2,a1,0x1
    1ca6:	00028b63          	beqz	t0,1cbc <.L948>

00001caa <.LVL926>:
                   crc |= 0x8000;
    1caa:	7369                	lui	t1,0xffffa
    1cac:	00130393          	addi	t2,t1,1 # ffffa001 <STACK+0xfffe1d71>
    1cb0:	007647b3          	xor	a5,a2,t2

00001cb4 <.LVL927>:
    1cb4:	01079593          	slli	a1,a5,0x10

00001cb8 <.LVL928>:
    1cb8:	0105d613          	srli	a2,a1,0x10

00001cbc <.L948>:
                x16 = (ee_u8)((data & 1) ^ ((ee_u8)crc & 1));
    1cbc:	00e64833          	xor	a6,a2,a4
                if (x16 == 1)
    1cc0:	00187893          	andi	a7,a6,1
                data >>= 1;
    1cc4:	00255e13          	srli	t3,a0,0x2

00001cc8 <.LVL930>:
                if (x16 == 1)
    1cc8:	00165293          	srli	t0,a2,0x1
    1ccc:	00088b63          	beqz	a7,1ce2 <.L949>

00001cd0 <.LVL931>:
                   crc |= 0x8000;
    1cd0:	7ee9                	lui	t4,0xffffa
    1cd2:	001e8f13          	addi	t5,t4,1 # ffffa001 <STACK+0xfffe1d71>
    1cd6:	01e2cfb3          	xor	t6,t0,t5

00001cda <.LVL932>:
    1cda:	010f9693          	slli	a3,t6,0x10
    1cde:	0106d293          	srli	t0,a3,0x10

00001ce2 <.L949>:
                x16 = (ee_u8)((data & 1) ^ ((ee_u8)crc & 1));
    1ce2:	01c2c733          	xor	a4,t0,t3
                if (x16 == 1)
    1ce6:	00177313          	andi	t1,a4,1
                data >>= 1;
    1cea:	00355393          	srli	t2,a0,0x3

00001cee <.LVL934>:
                if (x16 == 1)
    1cee:	0012d893          	srli	a7,t0,0x1
    1cf2:	00030b63          	beqz	t1,1d08 <.L950>

00001cf6 <.LVL935>:
                   crc |= 0x8000;
    1cf6:	75e9                	lui	a1,0xffffa
    1cf8:	00158613          	addi	a2,a1,1 # ffffa001 <STACK+0xfffe1d71>
    1cfc:	00c8c7b3          	xor	a5,a7,a2

00001d00 <.LVL936>:
    1d00:	01079813          	slli	a6,a5,0x10
    1d04:	01085893          	srli	a7,a6,0x10

00001d08 <.L950>:
                x16 = (ee_u8)((data & 1) ^ ((ee_u8)crc & 1));
    1d08:	0078ce33          	xor	t3,a7,t2
                if (x16 == 1)
    1d0c:	001e7e93          	andi	t4,t3,1
                data >>= 1;
    1d10:	00455f13          	srli	t5,a0,0x4

00001d14 <.LVL938>:
                if (x16 == 1)
    1d14:	0018d313          	srli	t1,a7,0x1
    1d18:	000e8b63          	beqz	t4,1d2e <.L951>

00001d1c <.LVL939>:
                   crc |= 0x8000;
    1d1c:	7fe9                	lui	t6,0xffffa
    1d1e:	001f8693          	addi	a3,t6,1 # ffffa001 <STACK+0xfffe1d71>
    1d22:	00d342b3          	xor	t0,t1,a3

00001d26 <.LVL940>:
    1d26:	01029713          	slli	a4,t0,0x10
    1d2a:	01075313          	srli	t1,a4,0x10

00001d2e <.L951>:
                x16 = (ee_u8)((data & 1) ^ ((ee_u8)crc & 1));
    1d2e:	01e343b3          	xor	t2,t1,t5
                if (x16 == 1)
    1d32:	0013f593          	andi	a1,t2,1
                data >>= 1;
    1d36:	00555613          	srli	a2,a0,0x5

00001d3a <.LVL942>:
                if (x16 == 1)
    1d3a:	00135e93          	srli	t4,t1,0x1
    1d3e:	c991                	beqz	a1,1d52 <.L952>

00001d40 <.LVL943>:
                   crc |= 0x8000;
    1d40:	7869                	lui	a6,0xffffa
    1d42:	00180893          	addi	a7,a6,1 # ffffa001 <STACK+0xfffe1d71>
    1d46:	011ec7b3          	xor	a5,t4,a7

00001d4a <.LVL944>:
    1d4a:	01079e13          	slli	t3,a5,0x10
    1d4e:	010e5e93          	srli	t4,t3,0x10

00001d52 <.L952>:
                x16 = (ee_u8)((data & 1) ^ ((ee_u8)crc & 1));
    1d52:	00cecf33          	xor	t5,t4,a2
                if (x16 == 1)
    1d56:	001f7f93          	andi	t6,t5,1
                data >>= 1;
    1d5a:	00655693          	srli	a3,a0,0x6

00001d5e <.LVL946>:
                if (x16 == 1)
    1d5e:	001ed593          	srli	a1,t4,0x1
    1d62:	000f8b63          	beqz	t6,1d78 <.L953>

00001d66 <.LVL947>:
                   crc |= 0x8000;
    1d66:	72e9                	lui	t0,0xffffa
    1d68:	00128713          	addi	a4,t0,1 # ffffa001 <STACK+0xfffe1d71>
    1d6c:	00e5c333          	xor	t1,a1,a4

00001d70 <.LVL948>:
    1d70:	01031393          	slli	t2,t1,0x10
    1d74:	0103d593          	srli	a1,t2,0x10

00001d78 <.L953>:
                x16 = (ee_u8)((data & 1) ^ ((ee_u8)crc & 1));
    1d78:	00d5c633          	xor	a2,a1,a3
                if (x16 == 1)
    1d7c:	00167813          	andi	a6,a2,1
                data >>= 1;
    1d80:	00755893          	srli	a7,a0,0x7

00001d84 <.LVL950>:
                if (x16 == 1)
    1d84:	0015df13          	srli	t5,a1,0x1
    1d88:	00080b63          	beqz	a6,1d9e <.L954>

00001d8c <.LVL951>:
                   crc |= 0x8000;
    1d8c:	77e9                	lui	a5,0xffffa
    1d8e:	00178e13          	addi	t3,a5,1 # ffffa001 <STACK+0xfffe1d71>
    1d92:	01cf4533          	xor	a0,t5,t3

00001d96 <.LVL952>:
    1d96:	01051e93          	slli	t4,a0,0x10
    1d9a:	010edf13          	srli	t5,t4,0x10

00001d9e <.L954>:
                if (x16 == 1)
    1d9e:	001f7f93          	andi	t6,t5,1
    1da2:	001f5513          	srli	a0,t5,0x1
    1da6:	011f8b63          	beq	t6,a7,1dbc <.L955>

00001daa <.LVL954>:
                   crc |= 0x8000;
    1daa:	76e9                	lui	a3,0xffffa
    1dac:	00168293          	addi	t0,a3,1 # ffffa001 <STACK+0xfffe1d71>
    1db0:	00554733          	xor	a4,a0,t0
    1db4:	01071313          	slli	t1,a4,0x10
    1db8:	01035513          	srli	a0,t1,0x10

00001dbc <.L955>:
}
    1dbc:	8082                	ret

00001dbe <crcu16>:
                x16 = (ee_u8)((data & 1) ^ ((ee_u8)crc & 1));
    1dbe:	00a5c6b3          	xor	a3,a1,a0

00001dc2 <.LBE524>:
        crc=crcu8( (ee_u8) (newval)                             ,crc);
    1dc2:	0ff57713          	andi	a4,a0,255

00001dc6 <.LBB528>:
                if (x16 == 1)
    1dc6:	0016f293          	andi	t0,a3,1

00001dca <.LBE528>:
ee_u16 crcu16(ee_u16 newval, ee_u16 crc) {
    1dca:	87aa                	mv	a5,a0

00001dcc <.LBB529>:
                data >>= 1;
    1dcc:	00175613          	srli	a2,a4,0x1

00001dd0 <.LVL958>:
                crc >>= 1;
    1dd0:	0015d813          	srli	a6,a1,0x1
                if (x16 == 1)
    1dd4:	00028b63          	beqz	t0,1dea <.L981>

00001dd8 <.LVL959>:
                   crc |= 0x8000;
    1dd8:	7369                	lui	t1,0xffffa
    1dda:	00130393          	addi	t2,t1,1 # ffffa001 <STACK+0xfffe1d71>
    1dde:	00784533          	xor	a0,a6,t2

00001de2 <.LVL960>:
    1de2:	01051593          	slli	a1,a0,0x10

00001de6 <.LVL961>:
    1de6:	0105d813          	srli	a6,a1,0x10

00001dea <.L981>:
                x16 = (ee_u8)((data & 1) ^ ((ee_u8)crc & 1));
    1dea:	00c848b3          	xor	a7,a6,a2
                if (x16 == 1)
    1dee:	0018fe13          	andi	t3,a7,1
                data >>= 1;
    1df2:	00275e93          	srli	t4,a4,0x2

00001df6 <.LVL963>:
                crc >>= 1;
    1df6:	00185313          	srli	t1,a6,0x1
                if (x16 == 1)
    1dfa:	000e0b63          	beqz	t3,1e10 <.L982>

00001dfe <.LVL964>:
                   crc |= 0x8000;
    1dfe:	7f69                	lui	t5,0xffffa
    1e00:	001f0f93          	addi	t6,t5,1 # ffffa001 <STACK+0xfffe1d71>
    1e04:	01f346b3          	xor	a3,t1,t6

00001e08 <.LVL965>:
    1e08:	01069293          	slli	t0,a3,0x10
    1e0c:	0102d313          	srli	t1,t0,0x10

00001e10 <.L982>:
                x16 = (ee_u8)((data & 1) ^ ((ee_u8)crc & 1));
    1e10:	01d34633          	xor	a2,t1,t4
                if (x16 == 1)
    1e14:	00167393          	andi	t2,a2,1
                data >>= 1;
    1e18:	00375593          	srli	a1,a4,0x3

00001e1c <.LVL967>:
                crc >>= 1;
    1e1c:	00135e93          	srli	t4,t1,0x1
                if (x16 == 1)
    1e20:	00038b63          	beqz	t2,1e36 <.L983>

00001e24 <.LVL968>:
                   crc |= 0x8000;
    1e24:	7869                	lui	a6,0xffffa
    1e26:	00180893          	addi	a7,a6,1 # ffffa001 <STACK+0xfffe1d71>
    1e2a:	011ec533          	xor	a0,t4,a7

00001e2e <.LVL969>:
    1e2e:	01051e13          	slli	t3,a0,0x10
    1e32:	010e5e93          	srli	t4,t3,0x10

00001e36 <.L983>:
                x16 = (ee_u8)((data & 1) ^ ((ee_u8)crc & 1));
    1e36:	00becf33          	xor	t5,t4,a1
                if (x16 == 1)
    1e3a:	001f7f93          	andi	t6,t5,1
                data >>= 1;
    1e3e:	00475693          	srli	a3,a4,0x4

00001e42 <.LVL971>:
                crc >>= 1;
    1e42:	001ed593          	srli	a1,t4,0x1
                if (x16 == 1)
    1e46:	000f8b63          	beqz	t6,1e5c <.L984>

00001e4a <.LVL972>:
                   crc |= 0x8000;
    1e4a:	72e9                	lui	t0,0xffffa
    1e4c:	00128313          	addi	t1,t0,1 # ffffa001 <STACK+0xfffe1d71>
    1e50:	0065c633          	xor	a2,a1,t1

00001e54 <.LVL973>:
    1e54:	01061393          	slli	t2,a2,0x10
    1e58:	0103d593          	srli	a1,t2,0x10

00001e5c <.L984>:
                x16 = (ee_u8)((data & 1) ^ ((ee_u8)crc & 1));
    1e5c:	00d5c833          	xor	a6,a1,a3
                if (x16 == 1)
    1e60:	00187893          	andi	a7,a6,1
                data >>= 1;
    1e64:	00575e13          	srli	t3,a4,0x5

00001e68 <.LVL975>:
                crc >>= 1;
    1e68:	0015d293          	srli	t0,a1,0x1
                if (x16 == 1)
    1e6c:	00088b63          	beqz	a7,1e82 <.L985>

00001e70 <.LVL976>:
                   crc |= 0x8000;
    1e70:	7ee9                	lui	t4,0xffffa
    1e72:	001e8f13          	addi	t5,t4,1 # ffffa001 <STACK+0xfffe1d71>
    1e76:	01e2c533          	xor	a0,t0,t5

00001e7a <.LVL977>:
    1e7a:	01051f93          	slli	t6,a0,0x10
    1e7e:	010fd293          	srli	t0,t6,0x10

00001e82 <.L985>:
                x16 = (ee_u8)((data & 1) ^ ((ee_u8)crc & 1));
    1e82:	01c2c6b3          	xor	a3,t0,t3
                if (x16 == 1)
    1e86:	0016f313          	andi	t1,a3,1
                data >>= 1;
    1e8a:	00675393          	srli	t2,a4,0x6

00001e8e <.LVL979>:
                crc >>= 1;
    1e8e:	0012de13          	srli	t3,t0,0x1
                if (x16 == 1)
    1e92:	00030b63          	beqz	t1,1ea8 <.L986>

00001e96 <.LVL980>:
                   crc |= 0x8000;
    1e96:	7669                	lui	a2,0xffffa
    1e98:	00160593          	addi	a1,a2,1 # ffffa001 <STACK+0xfffe1d71>
    1e9c:	00be4833          	xor	a6,t3,a1

00001ea0 <.LVL981>:
    1ea0:	01081893          	slli	a7,a6,0x10
    1ea4:	0108de13          	srli	t3,a7,0x10

00001ea8 <.L986>:
                x16 = (ee_u8)((data & 1) ^ ((ee_u8)crc & 1));
    1ea8:	007e4eb3          	xor	t4,t3,t2
                if (x16 == 1)
    1eac:	001eff13          	andi	t5,t4,1
                data >>= 1;
    1eb0:	831d                	srli	a4,a4,0x7

00001eb2 <.LVL983>:
                crc >>= 1;
    1eb2:	001e5313          	srli	t1,t3,0x1
                if (x16 == 1)
    1eb6:	000f0b63          	beqz	t5,1ecc <.L987>

00001eba <.LVL984>:
                   crc |= 0x8000;
    1eba:	7fe9                	lui	t6,0xffffa
    1ebc:	001f8293          	addi	t0,t6,1 # ffffa001 <STACK+0xfffe1d71>
    1ec0:	00534533          	xor	a0,t1,t0

00001ec4 <.LVL985>:
    1ec4:	01051693          	slli	a3,a0,0x10
    1ec8:	0106d313          	srli	t1,a3,0x10

00001ecc <.L987>:
                if (x16 == 1)
    1ecc:	00137393          	andi	t2,t1,1
                crc >>= 1;
    1ed0:	00135e13          	srli	t3,t1,0x1
                if (x16 == 1)
    1ed4:	00e38b63          	beq	t2,a4,1eea <.L988>

00001ed8 <.LVL987>:
                   crc |= 0x8000;
    1ed8:	7669                	lui	a2,0xffffa
    1eda:	00160593          	addi	a1,a2,1 # ffffa001 <STACK+0xfffe1d71>
    1ede:	00be4833          	xor	a6,t3,a1

00001ee2 <.LVL988>:
    1ee2:	01081893          	slli	a7,a6,0x10
    1ee6:	0108de13          	srli	t3,a7,0x10

00001eea <.L988>:
        crc=crcu8( (ee_u8) ((newval)>>8)        ,crc);
    1eea:	0087de93          	srli	t4,a5,0x8

00001eee <.LBB530>:
                x16 = (ee_u8)((data & 1) ^ ((ee_u8)crc & 1));
    1eee:	01cecf33          	xor	t5,t4,t3
                if (x16 == 1)
    1ef2:	001f7f93          	andi	t6,t5,1

00001ef6 <.LBE530>:
        crc=crcu8( (ee_u8) ((newval)>>8)        ,crc);
    1ef6:	0087d713          	srli	a4,a5,0x8

00001efa <.LBB533>:
                data >>= 1;
    1efa:	001e5393          	srli	t2,t3,0x1
    1efe:	83a5                	srli	a5,a5,0x9

00001f00 <.LVL991>:
                if (x16 == 1)
    1f00:	000f8b63          	beqz	t6,1f16 <.L989>

00001f04 <.LVL992>:
                   crc |= 0x8000;
    1f04:	72e9                	lui	t0,0xffffa
    1f06:	00128693          	addi	a3,t0,1 # ffffa001 <STACK+0xfffe1d71>
    1f0a:	00d3c533          	xor	a0,t2,a3

00001f0e <.LVL993>:
    1f0e:	01051313          	slli	t1,a0,0x10
    1f12:	01035393          	srli	t2,t1,0x10

00001f16 <.L989>:
                x16 = (ee_u8)((data & 1) ^ ((ee_u8)crc & 1));
    1f16:	0077c633          	xor	a2,a5,t2
                if (x16 == 1)
    1f1a:	00167593          	andi	a1,a2,1
                data >>= 1;
    1f1e:	00275813          	srli	a6,a4,0x2

00001f22 <.LVL995>:
                if (x16 == 1)
    1f22:	0013df93          	srli	t6,t2,0x1
    1f26:	c991                	beqz	a1,1f3a <.L990>

00001f28 <.LVL996>:
                   crc |= 0x8000;
    1f28:	78e9                	lui	a7,0xffffa
    1f2a:	00188e13          	addi	t3,a7,1 # ffffa001 <STACK+0xfffe1d71>
    1f2e:	01cfceb3          	xor	t4,t6,t3

00001f32 <.LVL997>:
    1f32:	010e9f13          	slli	t5,t4,0x10
    1f36:	010f5f93          	srli	t6,t5,0x10

00001f3a <.L990>:
                x16 = (ee_u8)((data & 1) ^ ((ee_u8)crc & 1));
    1f3a:	010fc7b3          	xor	a5,t6,a6
                if (x16 == 1)
    1f3e:	0017f293          	andi	t0,a5,1
                data >>= 1;
    1f42:	00375693          	srli	a3,a4,0x3

00001f46 <.LVL999>:
                if (x16 == 1)
    1f46:	001fd593          	srli	a1,t6,0x1
    1f4a:	00028b63          	beqz	t0,1f60 <.L991>

00001f4e <.LVL1000>:
                   crc |= 0x8000;
    1f4e:	7369                	lui	t1,0xffffa
    1f50:	00130393          	addi	t2,t1,1 # ffffa001 <STACK+0xfffe1d71>
    1f54:	0075c533          	xor	a0,a1,t2

00001f58 <.LVL1001>:
    1f58:	01051613          	slli	a2,a0,0x10
    1f5c:	01065593          	srli	a1,a2,0x10

00001f60 <.L991>:
                x16 = (ee_u8)((data & 1) ^ ((ee_u8)crc & 1));
    1f60:	00d5c833          	xor	a6,a1,a3
                if (x16 == 1)
    1f64:	00187893          	andi	a7,a6,1
                data >>= 1;
    1f68:	00475e13          	srli	t3,a4,0x4

00001f6c <.LVL1003>:
                if (x16 == 1)
    1f6c:	0015d293          	srli	t0,a1,0x1
    1f70:	00088b63          	beqz	a7,1f86 <.L992>

00001f74 <.LVL1004>:
                   crc |= 0x8000;
    1f74:	7ee9                	lui	t4,0xffffa
    1f76:	001e8f13          	addi	t5,t4,1 # ffffa001 <STACK+0xfffe1d71>
    1f7a:	01e2cfb3          	xor	t6,t0,t5

00001f7e <.LVL1005>:
    1f7e:	010f9793          	slli	a5,t6,0x10
    1f82:	0107d293          	srli	t0,a5,0x10

00001f86 <.L992>:
                x16 = (ee_u8)((data & 1) ^ ((ee_u8)crc & 1));
    1f86:	01c2c6b3          	xor	a3,t0,t3
                if (x16 == 1)
    1f8a:	0016f313          	andi	t1,a3,1
                data >>= 1;
    1f8e:	00575393          	srli	t2,a4,0x5

00001f92 <.LVL1007>:
                if (x16 == 1)
    1f92:	0012d893          	srli	a7,t0,0x1
    1f96:	00030b63          	beqz	t1,1fac <.L993>

00001f9a <.LVL1008>:
                   crc |= 0x8000;
    1f9a:	7669                	lui	a2,0xffffa
    1f9c:	00160593          	addi	a1,a2,1 # ffffa001 <STACK+0xfffe1d71>
    1fa0:	00b8c533          	xor	a0,a7,a1

00001fa4 <.LVL1009>:
    1fa4:	01051813          	slli	a6,a0,0x10
    1fa8:	01085893          	srli	a7,a6,0x10

00001fac <.L993>:
                x16 = (ee_u8)((data & 1) ^ ((ee_u8)crc & 1));
    1fac:	0078ce33          	xor	t3,a7,t2
                if (x16 == 1)
    1fb0:	001e7e93          	andi	t4,t3,1
                data >>= 1;
    1fb4:	00675f13          	srli	t5,a4,0x6

00001fb8 <.LVL1011>:
                if (x16 == 1)
    1fb8:	0018d313          	srli	t1,a7,0x1
    1fbc:	000e8b63          	beqz	t4,1fd2 <.L994>

00001fc0 <.LVL1012>:
                   crc |= 0x8000;
    1fc0:	7fe9                	lui	t6,0xffffa
    1fc2:	001f8793          	addi	a5,t6,1 # ffffa001 <STACK+0xfffe1d71>
    1fc6:	00f342b3          	xor	t0,t1,a5

00001fca <.LVL1013>:
    1fca:	01029693          	slli	a3,t0,0x10
    1fce:	0106d313          	srli	t1,a3,0x10

00001fd2 <.L994>:
                x16 = (ee_u8)((data & 1) ^ ((ee_u8)crc & 1));
    1fd2:	01e343b3          	xor	t2,t1,t5
                if (x16 == 1)
    1fd6:	0013f613          	andi	a2,t2,1
                data >>= 1;
    1fda:	831d                	srli	a4,a4,0x7

00001fdc <.LVL1015>:
                if (x16 == 1)
    1fdc:	00135e13          	srli	t3,t1,0x1
    1fe0:	ca11                	beqz	a2,1ff4 <.L995>

00001fe2 <.LVL1016>:
                   crc |= 0x8000;
    1fe2:	75e9                	lui	a1,0xffffa
    1fe4:	00158813          	addi	a6,a1,1 # ffffa001 <STACK+0xfffe1d71>
    1fe8:	010e4533          	xor	a0,t3,a6

00001fec <.LVL1017>:
    1fec:	01051893          	slli	a7,a0,0x10
    1ff0:	0108de13          	srli	t3,a7,0x10

00001ff4 <.L995>:
                if (x16 == 1)
    1ff4:	001e7e93          	andi	t4,t3,1
    1ff8:	001e5513          	srli	a0,t3,0x1
    1ffc:	00ee8b63          	beq	t4,a4,2012 <.L996>

00002000 <.LVL1019>:
                   crc |= 0x8000;
    2000:	7f69                	lui	t5,0xffffa
    2002:	001f0f93          	addi	t6,t5,1 # ffffa001 <STACK+0xfffe1d71>
    2006:	01f547b3          	xor	a5,a0,t6
    200a:	01079293          	slli	t0,a5,0x10
    200e:	0102d513          	srli	a0,t0,0x10

00002012 <.L996>:
        return crc;
}
    2012:	8082                	ret

00002014 <crcu32>:
                x16 = (ee_u8)((data & 1) ^ ((ee_u8)crc & 1));
    2014:	00a5c833          	xor	a6,a1,a0

00002018 <.LBE554>:
        crc=crcu8( (ee_u8) (newval)                             ,crc);
    2018:	0ff57693          	andi	a3,a0,255

0000201c <.LBE552>:
        crc=crc16((ee_s16) newval               ,crc);
        crc=crc16((ee_s16) (newval>>16) ,crc);
        return crc;
}
ee_u16 crc16(ee_s16 newval, ee_u16 crc) {
        return crcu16((ee_u16)newval, crc);
    201c:	01051713          	slli	a4,a0,0x10

00002020 <.LBB559>:
                if (x16 == 1)
    2020:	00187293          	andi	t0,a6,1

00002024 <.LBE550>:
ee_u16 crcu32(ee_u32 newval, ee_u16 crc) {
    2024:	87aa                	mv	a5,a0

00002026 <.LBB576>:
        return crcu16((ee_u16)newval, crc);
    2026:	01075313          	srli	t1,a4,0x10

0000202a <.LBB560>:
                data >>= 1;
    202a:	0016d613          	srli	a2,a3,0x1

0000202e <.LVL1024>:
                crc >>= 1;
    202e:	0015de13          	srli	t3,a1,0x1
                if (x16 == 1)
    2032:	00028b63          	beqz	t0,2048 <.L1046>

00002036 <.LVL1025>:
                   crc |= 0x8000;
    2036:	75e9                	lui	a1,0xffffa

00002038 <.LVL1026>:
    2038:	00158393          	addi	t2,a1,1 # ffffa001 <STACK+0xfffe1d71>
    203c:	007e4533          	xor	a0,t3,t2

00002040 <.LVL1027>:
    2040:	01051893          	slli	a7,a0,0x10
    2044:	0108de13          	srli	t3,a7,0x10

00002048 <.L1046>:
                x16 = (ee_u8)((data & 1) ^ ((ee_u8)crc & 1));
    2048:	00ce4eb3          	xor	t4,t3,a2
                if (x16 == 1)
    204c:	001eff13          	andi	t5,t4,1
                data >>= 1;
    2050:	0026df93          	srli	t6,a3,0x2

00002054 <.LVL1029>:
                crc >>= 1;
    2054:	001e5393          	srli	t2,t3,0x1
                if (x16 == 1)
    2058:	000f0b63          	beqz	t5,206e <.L1047>

0000205c <.LVL1030>:
                   crc |= 0x8000;
    205c:	7869                	lui	a6,0xffffa
    205e:	00180293          	addi	t0,a6,1 # ffffa001 <STACK+0xfffe1d71>
    2062:	0053c733          	xor	a4,t2,t0

00002066 <.LVL1031>:
    2066:	01071613          	slli	a2,a4,0x10
    206a:	01065393          	srli	t2,a2,0x10

0000206e <.L1047>:
                x16 = (ee_u8)((data & 1) ^ ((ee_u8)crc & 1));
    206e:	01f3c5b3          	xor	a1,t2,t6
                if (x16 == 1)
    2072:	0015f893          	andi	a7,a1,1
                data >>= 1;
    2076:	0036de13          	srli	t3,a3,0x3

0000207a <.LVL1033>:
                crc >>= 1;
    207a:	0013d813          	srli	a6,t2,0x1
                if (x16 == 1)
    207e:	00088b63          	beqz	a7,2094 <.L1048>

00002082 <.LVL1034>:
                   crc |= 0x8000;
    2082:	7ee9                	lui	t4,0xffffa
    2084:	001e8f13          	addi	t5,t4,1 # ffffa001 <STACK+0xfffe1d71>
    2088:	01e84533          	xor	a0,a6,t5

0000208c <.LVL1035>:
    208c:	01051f93          	slli	t6,a0,0x10
    2090:	010fd813          	srli	a6,t6,0x10

00002094 <.L1048>:
                x16 = (ee_u8)((data & 1) ^ ((ee_u8)crc & 1));
    2094:	01c842b3          	xor	t0,a6,t3
                if (x16 == 1)
    2098:	0012f713          	andi	a4,t0,1
                data >>= 1;
    209c:	0046d613          	srli	a2,a3,0x4

000020a0 <.LVL1037>:
                crc >>= 1;
    20a0:	00185e93          	srli	t4,a6,0x1
                if (x16 == 1)
    20a4:	cb11                	beqz	a4,20b8 <.L1049>

000020a6 <.LVL1038>:
                   crc |= 0x8000;
    20a6:	73e9                	lui	t2,0xffffa
    20a8:	00138593          	addi	a1,t2,1 # ffffa001 <STACK+0xfffe1d71>
    20ac:	00bec8b3          	xor	a7,t4,a1

000020b0 <.LVL1039>:
    20b0:	01089e13          	slli	t3,a7,0x10
    20b4:	010e5e93          	srli	t4,t3,0x10

000020b8 <.L1049>:
                x16 = (ee_u8)((data & 1) ^ ((ee_u8)crc & 1));
    20b8:	00cecf33          	xor	t5,t4,a2
                if (x16 == 1)
    20bc:	001f7f93          	andi	t6,t5,1
                data >>= 1;
    20c0:	0056d813          	srli	a6,a3,0x5

000020c4 <.LVL1041>:
                crc >>= 1;
    20c4:	001ed393          	srli	t2,t4,0x1
                if (x16 == 1)
    20c8:	000f8b63          	beqz	t6,20de <.L1050>

000020cc <.LVL1042>:
                   crc |= 0x8000;
    20cc:	72e9                	lui	t0,0xffffa
    20ce:	00128713          	addi	a4,t0,1 # ffffa001 <STACK+0xfffe1d71>
    20d2:	00e3c533          	xor	a0,t2,a4

000020d6 <.LVL1043>:
    20d6:	01051613          	slli	a2,a0,0x10
    20da:	01065393          	srli	t2,a2,0x10

000020de <.L1050>:
                x16 = (ee_u8)((data & 1) ^ ((ee_u8)crc & 1));
    20de:	0103c5b3          	xor	a1,t2,a6
                if (x16 == 1)
    20e2:	0015f893          	andi	a7,a1,1
                data >>= 1;
    20e6:	0066de13          	srli	t3,a3,0x6

000020ea <.LVL1045>:
                crc >>= 1;
    20ea:	0013d293          	srli	t0,t2,0x1
                if (x16 == 1)
    20ee:	00088b63          	beqz	a7,2104 <.L1051>

000020f2 <.LVL1046>:
                   crc |= 0x8000;
    20f2:	7ee9                	lui	t4,0xffffa
    20f4:	001e8f13          	addi	t5,t4,1 # ffffa001 <STACK+0xfffe1d71>
    20f8:	01e2cfb3          	xor	t6,t0,t5

000020fc <.LVL1047>:
    20fc:	010f9813          	slli	a6,t6,0x10
    2100:	01085293          	srli	t0,a6,0x10

00002104 <.L1051>:
                x16 = (ee_u8)((data & 1) ^ ((ee_u8)crc & 1));
    2104:	01c2c733          	xor	a4,t0,t3
                if (x16 == 1)
    2108:	00177613          	andi	a2,a4,1
                data >>= 1;
    210c:	829d                	srli	a3,a3,0x7

0000210e <.LVL1049>:
                crc >>= 1;
    210e:	0012de13          	srli	t3,t0,0x1
                if (x16 == 1)
    2112:	ca11                	beqz	a2,2126 <.L1052>

00002114 <.LVL1050>:
                   crc |= 0x8000;
    2114:	73e9                	lui	t2,0xffffa
    2116:	00138593          	addi	a1,t2,1 # ffffa001 <STACK+0xfffe1d71>
    211a:	00be4533          	xor	a0,t3,a1

0000211e <.LVL1051>:
    211e:	01051893          	slli	a7,a0,0x10
    2122:	0108de13          	srli	t3,a7,0x10

00002126 <.L1052>:
                if (x16 == 1)
    2126:	001e7e93          	andi	t4,t3,1
                crc >>= 1;
    212a:	001e5393          	srli	t2,t3,0x1
                if (x16 == 1)
    212e:	38de9463          	bne	t4,a3,24b6 <.L1174>

00002132 <.L1053>:
        crc=crcu8( (ee_u8) ((newval)>>8)        ,crc);
    2132:	00835713          	srli	a4,t1,0x8

00002136 <.LBB561>:
                x16 = (ee_u8)((data & 1) ^ ((ee_u8)crc & 1));
    2136:	00e3c633          	xor	a2,t2,a4
                if (x16 == 1)
    213a:	00167593          	andi	a1,a2,1

0000213e <.LBE561>:
        crc=crcu8( (ee_u8) ((newval)>>8)        ,crc);
    213e:	00835693          	srli	a3,t1,0x8

00002142 <.LBB565>:
                data >>= 1;
    2142:	0013df13          	srli	t5,t2,0x1
    2146:	00935313          	srli	t1,t1,0x9

0000214a <.LVL1055>:
                if (x16 == 1)
    214a:	c991                	beqz	a1,215e <.L1054>

0000214c <.LVL1056>:
                   crc |= 0x8000;
    214c:	78e9                	lui	a7,0xffffa
    214e:	00188e13          	addi	t3,a7,1 # ffffa001 <STACK+0xfffe1d71>
    2152:	01cf4533          	xor	a0,t5,t3

00002156 <.LVL1057>:
    2156:	01051e93          	slli	t4,a0,0x10
    215a:	010edf13          	srli	t5,t4,0x10

0000215e <.L1054>:
                x16 = (ee_u8)((data & 1) ^ ((ee_u8)crc & 1));
    215e:	006f4fb3          	xor	t6,t5,t1
                if (x16 == 1)
    2162:	001ff813          	andi	a6,t6,1
                data >>= 1;
    2166:	0026d293          	srli	t0,a3,0x2

0000216a <.LVL1059>:
                if (x16 == 1)
    216a:	001f5313          	srli	t1,t5,0x1
    216e:	00080b63          	beqz	a6,2184 <.L1055>

00002172 <.LVL1060>:
                   crc |= 0x8000;
    2172:	73e9                	lui	t2,0xffffa
    2174:	00138713          	addi	a4,t2,1 # ffffa001 <STACK+0xfffe1d71>
    2178:	00e34633          	xor	a2,t1,a4

0000217c <.LVL1061>:
    217c:	01061593          	slli	a1,a2,0x10
    2180:	0105d313          	srli	t1,a1,0x10

00002184 <.L1055>:
                x16 = (ee_u8)((data & 1) ^ ((ee_u8)crc & 1));
    2184:	005348b3          	xor	a7,t1,t0
                if (x16 == 1)
    2188:	0018fe13          	andi	t3,a7,1
                data >>= 1;
    218c:	0036de93          	srli	t4,a3,0x3

00002190 <.LVL1063>:
                if (x16 == 1)
    2190:	00135293          	srli	t0,t1,0x1
    2194:	000e0b63          	beqz	t3,21aa <.L1056>

00002198 <.LVL1064>:
                   crc |= 0x8000;
    2198:	7f69                	lui	t5,0xffffa
    219a:	001f0f93          	addi	t6,t5,1 # ffffa001 <STACK+0xfffe1d71>
    219e:	01f2c533          	xor	a0,t0,t6

000021a2 <.LVL1065>:
    21a2:	01051813          	slli	a6,a0,0x10
    21a6:	01085293          	srli	t0,a6,0x10

000021aa <.L1056>:
                x16 = (ee_u8)((data & 1) ^ ((ee_u8)crc & 1));
    21aa:	01d2c3b3          	xor	t2,t0,t4
                if (x16 == 1)
    21ae:	0013f613          	andi	a2,t2,1
                data >>= 1;
    21b2:	0046d713          	srli	a4,a3,0x4

000021b6 <.LVL1067>:
                if (x16 == 1)
    21b6:	0012de93          	srli	t4,t0,0x1
    21ba:	ca11                	beqz	a2,21ce <.L1057>

000021bc <.LVL1068>:
                   crc |= 0x8000;
    21bc:	75e9                	lui	a1,0xffffa
    21be:	00158313          	addi	t1,a1,1 # ffffa001 <STACK+0xfffe1d71>
    21c2:	006ec8b3          	xor	a7,t4,t1

000021c6 <.LVL1069>:
    21c6:	01089e13          	slli	t3,a7,0x10
    21ca:	010e5e93          	srli	t4,t3,0x10

000021ce <.L1057>:
                x16 = (ee_u8)((data & 1) ^ ((ee_u8)crc & 1));
    21ce:	00eecf33          	xor	t5,t4,a4
                if (x16 == 1)
    21d2:	001f7f93          	andi	t6,t5,1
                data >>= 1;
    21d6:	0056d813          	srli	a6,a3,0x5

000021da <.LVL1071>:
                if (x16 == 1)
    21da:	001ed593          	srli	a1,t4,0x1
    21de:	000f8b63          	beqz	t6,21f4 <.L1058>

000021e2 <.LVL1072>:
                   crc |= 0x8000;
    21e2:	72e9                	lui	t0,0xffffa
    21e4:	00128393          	addi	t2,t0,1 # ffffa001 <STACK+0xfffe1d71>
    21e8:	0075c533          	xor	a0,a1,t2

000021ec <.LVL1073>:
    21ec:	01051613          	slli	a2,a0,0x10
    21f0:	01065593          	srli	a1,a2,0x10

000021f4 <.L1058>:
                x16 = (ee_u8)((data & 1) ^ ((ee_u8)crc & 1));
    21f4:	0105c733          	xor	a4,a1,a6
                if (x16 == 1)
    21f8:	00177313          	andi	t1,a4,1
                data >>= 1;
    21fc:	0066d893          	srli	a7,a3,0x6

00002200 <.LVL1075>:
                if (x16 == 1)
    2200:	0015d813          	srli	a6,a1,0x1
    2204:	00030b63          	beqz	t1,221a <.L1059>

00002208 <.LVL1076>:
                   crc |= 0x8000;
    2208:	7e69                	lui	t3,0xffffa
    220a:	001e0e93          	addi	t4,t3,1 # ffffa001 <STACK+0xfffe1d71>
    220e:	01d84f33          	xor	t5,a6,t4

00002212 <.LVL1077>:
    2212:	010f1f93          	slli	t6,t5,0x10
    2216:	010fd813          	srli	a6,t6,0x10

0000221a <.L1059>:
                x16 = (ee_u8)((data & 1) ^ ((ee_u8)crc & 1));
    221a:	011842b3          	xor	t0,a6,a7
                if (x16 == 1)
    221e:	0012f393          	andi	t2,t0,1
                data >>= 1;
    2222:	829d                	srli	a3,a3,0x7

00002224 <.LVL1079>:
                if (x16 == 1)
    2224:	00185313          	srli	t1,a6,0x1
    2228:	00038b63          	beqz	t2,223e <.L1060>

0000222c <.LVL1080>:
                   crc |= 0x8000;
    222c:	7669                	lui	a2,0xffffa
    222e:	00160593          	addi	a1,a2,1 # ffffa001 <STACK+0xfffe1d71>
    2232:	00b34533          	xor	a0,t1,a1

00002236 <.LVL1081>:
    2236:	01051713          	slli	a4,a0,0x10
    223a:	01075313          	srli	t1,a4,0x10

0000223e <.L1060>:
                if (x16 == 1)
    223e:	00137893          	andi	a7,t1,1
    2242:	00135813          	srli	a6,t1,0x1
    2246:	24d89e63          	bne	a7,a3,24a2 <.L1175>

0000224a <.L1061>:
        crc=crc16((ee_s16) (newval>>16) ,crc);
    224a:	0107d293          	srli	t0,a5,0x10

0000224e <.LBB577>:
                x16 = (ee_u8)((data & 1) ^ ((ee_u8)crc & 1));
    224e:	005843b3          	xor	t2,a6,t0

00002252 <.LBE581>:
        crc=crcu8( (ee_u8) (newval)                             ,crc);
    2252:	0ff2f593          	andi	a1,t0,255

00002256 <.LBB586>:
                if (x16 == 1)
    2256:	0013f693          	andi	a3,t2,1

0000225a <.LBE579>:
        return crcu16((ee_u16)newval, crc);
    225a:	83c1                	srli	a5,a5,0x10

0000225c <.LBB587>:
                data >>= 1;
    225c:	0015d613          	srli	a2,a1,0x1

00002260 <.LVL1086>:
                if (x16 == 1)
    2260:	00185e13          	srli	t3,a6,0x1
    2264:	ca91                	beqz	a3,2278 <.L1062>

00002266 <.LVL1087>:
                   crc |= 0x8000;
    2266:	7769                	lui	a4,0xffffa
    2268:	00170313          	addi	t1,a4,1 # ffffa001 <STACK+0xfffe1d71>
    226c:	006e4533          	xor	a0,t3,t1

00002270 <.LVL1088>:
    2270:	01051893          	slli	a7,a0,0x10
    2274:	0108de13          	srli	t3,a7,0x10

00002278 <.L1062>:
                x16 = (ee_u8)((data & 1) ^ ((ee_u8)crc & 1));
    2278:	00ce4eb3          	xor	t4,t3,a2
                if (x16 == 1)
    227c:	001eff13          	andi	t5,t4,1
                data >>= 1;
    2280:	0025df93          	srli	t6,a1,0x2

00002284 <.LVL1090>:
                if (x16 == 1)
    2284:	001e5713          	srli	a4,t3,0x1
    2288:	000f0b63          	beqz	t5,229e <.L1063>

0000228c <.LVL1091>:
                   crc |= 0x8000;
    228c:	7869                	lui	a6,0xffffa
    228e:	00180293          	addi	t0,a6,1 # ffffa001 <STACK+0xfffe1d71>

00002292 <.LVL1092>:
    2292:	005743b3          	xor	t2,a4,t0

00002296 <.LVL1093>:
    2296:	01039693          	slli	a3,t2,0x10
    229a:	0106d713          	srli	a4,a3,0x10

0000229e <.L1063>:
                x16 = (ee_u8)((data & 1) ^ ((ee_u8)crc & 1));
    229e:	01f74633          	xor	a2,a4,t6
                if (x16 == 1)
    22a2:	00167313          	andi	t1,a2,1
                data >>= 1;
    22a6:	0035d893          	srli	a7,a1,0x3

000022aa <.LVL1095>:
                if (x16 == 1)
    22aa:	00175f93          	srli	t6,a4,0x1
    22ae:	00030b63          	beqz	t1,22c4 <.L1064>

000022b2 <.LVL1096>:
                   crc |= 0x8000;
    22b2:	7e69                	lui	t3,0xffffa
    22b4:	001e0e93          	addi	t4,t3,1 # ffffa001 <STACK+0xfffe1d71>
    22b8:	01dfc533          	xor	a0,t6,t4

000022bc <.LVL1097>:
    22bc:	01051f13          	slli	t5,a0,0x10
    22c0:	010f5f93          	srli	t6,t5,0x10

000022c4 <.L1064>:
                x16 = (ee_u8)((data & 1) ^ ((ee_u8)crc & 1));
    22c4:	011fc833          	xor	a6,t6,a7
                if (x16 == 1)
    22c8:	00187293          	andi	t0,a6,1
                data >>= 1;
    22cc:	0045d393          	srli	t2,a1,0x4

000022d0 <.LVL1099>:
                if (x16 == 1)
    22d0:	001fd893          	srli	a7,t6,0x1
    22d4:	00028b63          	beqz	t0,22ea <.L1065>

000022d8 <.LVL1100>:
                   crc |= 0x8000;
    22d8:	76e9                	lui	a3,0xffffa
    22da:	00168713          	addi	a4,a3,1 # ffffa001 <STACK+0xfffe1d71>
    22de:	00e8c633          	xor	a2,a7,a4

000022e2 <.LVL1101>:
    22e2:	01061313          	slli	t1,a2,0x10
    22e6:	01035893          	srli	a7,t1,0x10

000022ea <.L1065>:
                x16 = (ee_u8)((data & 1) ^ ((ee_u8)crc & 1));
    22ea:	0078ce33          	xor	t3,a7,t2
                if (x16 == 1)
    22ee:	001e7e93          	andi	t4,t3,1
                data >>= 1;
    22f2:	0055df13          	srli	t5,a1,0x5

000022f6 <.LVL1103>:
                if (x16 == 1)
    22f6:	0018d393          	srli	t2,a7,0x1
    22fa:	000e8b63          	beqz	t4,2310 <.L1066>

000022fe <.LVL1104>:
                   crc |= 0x8000;
    22fe:	7fe9                	lui	t6,0xffffa
    2300:	001f8813          	addi	a6,t6,1 # ffffa001 <STACK+0xfffe1d71>
    2304:	0103c533          	xor	a0,t2,a6

00002308 <.LVL1105>:
    2308:	01051293          	slli	t0,a0,0x10
    230c:	0102d393          	srli	t2,t0,0x10

00002310 <.L1066>:
                x16 = (ee_u8)((data & 1) ^ ((ee_u8)crc & 1));
    2310:	01e3c6b3          	xor	a3,t2,t5
                if (x16 == 1)
    2314:	0016f713          	andi	a4,a3,1
                data >>= 1;
    2318:	0065d313          	srli	t1,a1,0x6

0000231c <.LVL1107>:
                if (x16 == 1)
    231c:	0013df13          	srli	t5,t2,0x1
    2320:	cb11                	beqz	a4,2334 <.L1067>

00002322 <.LVL1108>:
                   crc |= 0x8000;
    2322:	7669                	lui	a2,0xffffa
    2324:	00160893          	addi	a7,a2,1 # ffffa001 <STACK+0xfffe1d71>
    2328:	011f4e33          	xor	t3,t5,a7

0000232c <.LVL1109>:
    232c:	010e1e93          	slli	t4,t3,0x10
    2330:	010edf13          	srli	t5,t4,0x10

00002334 <.L1067>:
                x16 = (ee_u8)((data & 1) ^ ((ee_u8)crc & 1));
    2334:	006f4fb3          	xor	t6,t5,t1
                if (x16 == 1)
    2338:	001ff813          	andi	a6,t6,1
                data >>= 1;
    233c:	819d                	srli	a1,a1,0x7

0000233e <.LVL1111>:
                if (x16 == 1)
    233e:	001f5713          	srli	a4,t5,0x1
    2342:	00080b63          	beqz	a6,2358 <.L1068>

00002346 <.LVL1112>:
                   crc |= 0x8000;
    2346:	72e9                	lui	t0,0xffffa
    2348:	00128393          	addi	t2,t0,1 # ffffa001 <STACK+0xfffe1d71>
    234c:	00774533          	xor	a0,a4,t2

00002350 <.LVL1113>:
    2350:	01051693          	slli	a3,a0,0x10
    2354:	0106d713          	srli	a4,a3,0x10

00002358 <.L1068>:
                if (x16 == 1)
    2358:	00177313          	andi	t1,a4,1
    235c:	00175f13          	srli	t5,a4,0x1
    2360:	12b31763          	bne	t1,a1,248e <.L1176>

00002364 <.L1069>:
        crc=crcu8( (ee_u8) ((newval)>>8)        ,crc);
    2364:	0087df93          	srli	t6,a5,0x8

00002368 <.LBB588>:
                x16 = (ee_u8)((data & 1) ^ ((ee_u8)crc & 1));
    2368:	01efc833          	xor	a6,t6,t5
                if (x16 == 1)
    236c:	00187593          	andi	a1,a6,1

00002370 <.LBE588>:
        crc=crcu8( (ee_u8) ((newval)>>8)        ,crc);
    2370:	0087d293          	srli	t0,a5,0x8

00002374 <.LBB591>:
                data >>= 1;
    2374:	001f5313          	srli	t1,t5,0x1
    2378:	83a5                	srli	a5,a5,0x9

0000237a <.LVL1117>:
                if (x16 == 1)
    237a:	c991                	beqz	a1,238e <.L1070>

0000237c <.LVL1118>:
                   crc |= 0x8000;
    237c:	73e9                	lui	t2,0xffffa
    237e:	00138693          	addi	a3,t2,1 # ffffa001 <STACK+0xfffe1d71>
    2382:	00d34533          	xor	a0,t1,a3

00002386 <.LVL1119>:
    2386:	01051713          	slli	a4,a0,0x10
    238a:	01075313          	srli	t1,a4,0x10

0000238e <.L1070>:
                x16 = (ee_u8)((data & 1) ^ ((ee_u8)crc & 1));
    238e:	00f34633          	xor	a2,t1,a5
                if (x16 == 1)
    2392:	00167893          	andi	a7,a2,1
                data >>= 1;
    2396:	0022de13          	srli	t3,t0,0x2

0000239a <.LVL1121>:
                if (x16 == 1)
    239a:	00135593          	srli	a1,t1,0x1
    239e:	00088b63          	beqz	a7,23b4 <.L1071>

000023a2 <.LVL1122>:
                   crc |= 0x8000;
    23a2:	7ee9                	lui	t4,0xffffa
    23a4:	001e8f13          	addi	t5,t4,1 # ffffa001 <STACK+0xfffe1d71>
    23a8:	01e5cfb3          	xor	t6,a1,t5

000023ac <.LVL1123>:
    23ac:	010f9813          	slli	a6,t6,0x10
    23b0:	01085593          	srli	a1,a6,0x10

000023b4 <.L1071>:
                x16 = (ee_u8)((data & 1) ^ ((ee_u8)crc & 1));
    23b4:	00be47b3          	xor	a5,t3,a1
                if (x16 == 1)
    23b8:	0017f393          	andi	t2,a5,1
                data >>= 1;
    23bc:	0032d693          	srli	a3,t0,0x3

000023c0 <.LVL1125>:
                if (x16 == 1)
    23c0:	0015d893          	srli	a7,a1,0x1
    23c4:	00038b63          	beqz	t2,23da <.L1072>

000023c8 <.LVL1126>:
                   crc |= 0x8000;
    23c8:	7769                	lui	a4,0xffffa
    23ca:	00170313          	addi	t1,a4,1 # ffffa001 <STACK+0xfffe1d71>
    23ce:	0068c533          	xor	a0,a7,t1

000023d2 <.LVL1127>:
    23d2:	01051613          	slli	a2,a0,0x10
    23d6:	01065893          	srli	a7,a2,0x10

000023da <.L1072>:
                x16 = (ee_u8)((data & 1) ^ ((ee_u8)crc & 1));
    23da:	0116ce33          	xor	t3,a3,a7
                if (x16 == 1)
    23de:	001e7e93          	andi	t4,t3,1
                data >>= 1;
    23e2:	0042df13          	srli	t5,t0,0x4

000023e6 <.LVL1129>:
                if (x16 == 1)
    23e6:	0018d393          	srli	t2,a7,0x1
    23ea:	000e8b63          	beqz	t4,2400 <.L1073>

000023ee <.LVL1130>:
                   crc |= 0x8000;
    23ee:	7fe9                	lui	t6,0xffffa
    23f0:	001f8813          	addi	a6,t6,1 # ffffa001 <STACK+0xfffe1d71>
    23f4:	0103c5b3          	xor	a1,t2,a6

000023f8 <.LVL1131>:
    23f8:	01059793          	slli	a5,a1,0x10
    23fc:	0107d393          	srli	t2,a5,0x10

00002400 <.L1073>:
                x16 = (ee_u8)((data & 1) ^ ((ee_u8)crc & 1));
    2400:	01e3c6b3          	xor	a3,t2,t5
                if (x16 == 1)
    2404:	0016f713          	andi	a4,a3,1
                data >>= 1;
    2408:	0052d313          	srli	t1,t0,0x5

0000240c <.LVL1133>:
                if (x16 == 1)
    240c:	0013de93          	srli	t4,t2,0x1
    2410:	cb11                	beqz	a4,2424 <.L1074>

00002412 <.LVL1134>:
                   crc |= 0x8000;
    2412:	7669                	lui	a2,0xffffa
    2414:	00160893          	addi	a7,a2,1 # ffffa001 <STACK+0xfffe1d71>
    2418:	011ec533          	xor	a0,t4,a7

0000241c <.LVL1135>:
    241c:	01051e13          	slli	t3,a0,0x10
    2420:	010e5e93          	srli	t4,t3,0x10

00002424 <.L1074>:
                x16 = (ee_u8)((data & 1) ^ ((ee_u8)crc & 1));
    2424:	006ecf33          	xor	t5,t4,t1
                if (x16 == 1)
    2428:	001f7f93          	andi	t6,t5,1
                data >>= 1;
    242c:	0062d813          	srli	a6,t0,0x6

00002430 <.LVL1137>:
                if (x16 == 1)
    2430:	001ed313          	srli	t1,t4,0x1
    2434:	000f8b63          	beqz	t6,244a <.L1075>

00002438 <.LVL1138>:
                   crc |= 0x8000;
    2438:	75e9                	lui	a1,0xffffa
    243a:	00158793          	addi	a5,a1,1 # ffffa001 <STACK+0xfffe1d71>
    243e:	00f343b3          	xor	t2,t1,a5

00002442 <.LVL1139>:
    2442:	01039693          	slli	a3,t2,0x10
    2446:	0106d313          	srli	t1,a3,0x10

0000244a <.L1075>:
                x16 = (ee_u8)((data & 1) ^ ((ee_u8)crc & 1));
    244a:	01034733          	xor	a4,t1,a6
                if (x16 == 1)
    244e:	00177613          	andi	a2,a4,1
                data >>= 1;
    2452:	0072d293          	srli	t0,t0,0x7

00002456 <.LVL1141>:
                if (x16 == 1)
    2456:	00135f13          	srli	t5,t1,0x1
    245a:	ca11                	beqz	a2,246e <.L1076>

0000245c <.LVL1142>:
                   crc |= 0x8000;
    245c:	78e9                	lui	a7,0xffffa
    245e:	00188e13          	addi	t3,a7,1 # ffffa001 <STACK+0xfffe1d71>
    2462:	01cf4533          	xor	a0,t5,t3

00002466 <.LVL1143>:
    2466:	01051e93          	slli	t4,a0,0x10
    246a:	010edf13          	srli	t5,t4,0x10

0000246e <.L1076>:
                if (x16 == 1)
    246e:	001f7f93          	andi	t6,t5,1
    2472:	001f5513          	srli	a0,t5,0x1
    2476:	005f8b63          	beq	t6,t0,248c <.L1077>

0000247a <.LVL1145>:
                   crc |= 0x8000;
    247a:	7869                	lui	a6,0xffffa
    247c:	00180593          	addi	a1,a6,1 # ffffa001 <STACK+0xfffe1d71>
    2480:	00b547b3          	xor	a5,a0,a1
    2484:	01079393          	slli	t2,a5,0x10
    2488:	0103d513          	srli	a0,t2,0x10

0000248c <.L1077>:
}
    248c:	8082                	ret

0000248e <.L1176>:
                   crc |= 0x8000;
    248e:	7669                	lui	a2,0xffffa
    2490:	00160893          	addi	a7,a2,1 # ffffa001 <STACK+0xfffe1d71>
    2494:	011f4e33          	xor	t3,t5,a7

00002498 <.LVL1148>:
    2498:	010e1e93          	slli	t4,t3,0x10
    249c:	010edf13          	srli	t5,t4,0x10

000024a0 <.LVL1149>:
    24a0:	b5d1                	j	2364 <.L1069>

000024a2 <.L1175>:
    24a2:	7e69                	lui	t3,0xffffa
    24a4:	001e0e93          	addi	t4,t3,1 # ffffa001 <STACK+0xfffe1d71>
    24a8:	01d84f33          	xor	t5,a6,t4

000024ac <.LVL1151>:
    24ac:	010f1f93          	slli	t6,t5,0x10
    24b0:	010fd813          	srli	a6,t6,0x10

000024b4 <.LVL1152>:
    24b4:	bb59                	j	224a <.L1061>

000024b6 <.L1174>:
    24b6:	7f69                	lui	t5,0xffffa
    24b8:	001f0f93          	addi	t6,t5,1 # ffffa001 <STACK+0xfffe1d71>
    24bc:	01f3c833          	xor	a6,t2,t6

000024c0 <.LVL1154>:
    24c0:	01081293          	slli	t0,a6,0x10
    24c4:	0102d393          	srli	t2,t0,0x10

000024c8 <.LVL1155>:
    24c8:	b1ad                	j	2132 <.L1053>

000024ca <crc16>:
                x16 = (ee_u8)((data & 1) ^ ((ee_u8)crc & 1));
    24ca:	00a5c6b3          	xor	a3,a1,a0

000024ce <.LBE608>:
        crc=crcu8( (ee_u8) (newval)                             ,crc);
    24ce:	0ff57713          	andi	a4,a0,255

000024d2 <.LBE606>:
        return crcu16((ee_u16)newval, crc);
    24d2:	01051793          	slli	a5,a0,0x10

000024d6 <.LBB613>:
                if (x16 == 1)
    24d6:	0016f293          	andi	t0,a3,1

000024da <.LBE613>:
        return crcu16((ee_u16)newval, crc);
    24da:	0107d313          	srli	t1,a5,0x10

000024de <.LBB614>:
                data >>= 1;
    24de:	00175613          	srli	a2,a4,0x1

000024e2 <.LVL1158>:
                crc >>= 1;
    24e2:	0015d893          	srli	a7,a1,0x1
                if (x16 == 1)
    24e6:	00028b63          	beqz	t0,24fc <.L1178>

000024ea <.LVL1159>:
                   crc |= 0x8000;
    24ea:	73e9                	lui	t2,0xffffa
    24ec:	00138593          	addi	a1,t2,1 # ffffa001 <STACK+0xfffe1d71>

000024f0 <.LVL1160>:
    24f0:	00b8c533          	xor	a0,a7,a1

000024f4 <.LVL1161>:
    24f4:	01051813          	slli	a6,a0,0x10
    24f8:	01085893          	srli	a7,a6,0x10

000024fc <.L1178>:
                x16 = (ee_u8)((data & 1) ^ ((ee_u8)crc & 1));
    24fc:	00c8ce33          	xor	t3,a7,a2
                if (x16 == 1)
    2500:	001e7e93          	andi	t4,t3,1
                data >>= 1;
    2504:	00275f13          	srli	t5,a4,0x2

00002508 <.LVL1163>:
                crc >>= 1;
    2508:	0018d393          	srli	t2,a7,0x1
                if (x16 == 1)
    250c:	000e8b63          	beqz	t4,2522 <.L1179>

00002510 <.LVL1164>:
                   crc |= 0x8000;
    2510:	7fe9                	lui	t6,0xffffa
    2512:	001f8693          	addi	a3,t6,1 # ffffa001 <STACK+0xfffe1d71>
    2516:	00d3c2b3          	xor	t0,t2,a3

0000251a <.LVL1165>:
    251a:	01029793          	slli	a5,t0,0x10
    251e:	0107d393          	srli	t2,a5,0x10

00002522 <.L1179>:
                x16 = (ee_u8)((data & 1) ^ ((ee_u8)crc & 1));
    2522:	01e3c633          	xor	a2,t2,t5
                if (x16 == 1)
    2526:	00167593          	andi	a1,a2,1
                data >>= 1;
    252a:	00375813          	srli	a6,a4,0x3

0000252e <.LVL1167>:
                crc >>= 1;
    252e:	0013df13          	srli	t5,t2,0x1
                if (x16 == 1)
    2532:	c991                	beqz	a1,2546 <.L1180>

00002534 <.LVL1168>:
                   crc |= 0x8000;
    2534:	78e9                	lui	a7,0xffffa
    2536:	00188e13          	addi	t3,a7,1 # ffffa001 <STACK+0xfffe1d71>
    253a:	01cf4533          	xor	a0,t5,t3

0000253e <.LVL1169>:
    253e:	01051e93          	slli	t4,a0,0x10
    2542:	010edf13          	srli	t5,t4,0x10

00002546 <.L1180>:
                x16 = (ee_u8)((data & 1) ^ ((ee_u8)crc & 1));
    2546:	010f4fb3          	xor	t6,t5,a6
                if (x16 == 1)
    254a:	001ff293          	andi	t0,t6,1
                data >>= 1;
    254e:	00475693          	srli	a3,a4,0x4

00002552 <.LVL1171>:
                crc >>= 1;
    2552:	001f5813          	srli	a6,t5,0x1
                if (x16 == 1)
    2556:	00028b63          	beqz	t0,256c <.L1181>

0000255a <.LVL1172>:
                   crc |= 0x8000;
    255a:	77e9                	lui	a5,0xffffa
    255c:	00178393          	addi	t2,a5,1 # ffffa001 <STACK+0xfffe1d71>
    2560:	00784633          	xor	a2,a6,t2

00002564 <.LVL1173>:
    2564:	01061593          	slli	a1,a2,0x10
    2568:	0105d813          	srli	a6,a1,0x10

0000256c <.L1181>:
                x16 = (ee_u8)((data & 1) ^ ((ee_u8)crc & 1));
    256c:	00d848b3          	xor	a7,a6,a3
                if (x16 == 1)
    2570:	0018fe13          	andi	t3,a7,1
                data >>= 1;
    2574:	00575e93          	srli	t4,a4,0x5

00002578 <.LVL1175>:
                crc >>= 1;
    2578:	00185793          	srli	a5,a6,0x1
                if (x16 == 1)
    257c:	000e0b63          	beqz	t3,2592 <.L1182>

00002580 <.LVL1176>:
                   crc |= 0x8000;
    2580:	7f69                	lui	t5,0xffffa
    2582:	001f0f93          	addi	t6,t5,1 # ffffa001 <STACK+0xfffe1d71>
    2586:	01f7c533          	xor	a0,a5,t6

0000258a <.LVL1177>:
    258a:	01051293          	slli	t0,a0,0x10
    258e:	0102d793          	srli	a5,t0,0x10

00002592 <.L1182>:
                x16 = (ee_u8)((data & 1) ^ ((ee_u8)crc & 1));
    2592:	01d7c6b3          	xor	a3,a5,t4
                if (x16 == 1)
    2596:	0016f393          	andi	t2,a3,1
                data >>= 1;
    259a:	00675593          	srli	a1,a4,0x6

0000259e <.LVL1179>:
                crc >>= 1;
    259e:	0017de93          	srli	t4,a5,0x1
                if (x16 == 1)
    25a2:	00038b63          	beqz	t2,25b8 <.L1183>

000025a6 <.LVL1180>:
                   crc |= 0x8000;
    25a6:	7669                	lui	a2,0xffffa
    25a8:	00160813          	addi	a6,a2,1 # ffffa001 <STACK+0xfffe1d71>
    25ac:	010ec8b3          	xor	a7,t4,a6

000025b0 <.LVL1181>:
    25b0:	01089e13          	slli	t3,a7,0x10
    25b4:	010e5e93          	srli	t4,t3,0x10

000025b8 <.L1183>:
                x16 = (ee_u8)((data & 1) ^ ((ee_u8)crc & 1));
    25b8:	00becf33          	xor	t5,t4,a1
                if (x16 == 1)
    25bc:	001f7f93          	andi	t6,t5,1
                data >>= 1;
    25c0:	831d                	srli	a4,a4,0x7

000025c2 <.LVL1183>:
                crc >>= 1;
    25c2:	001ed393          	srli	t2,t4,0x1
                if (x16 == 1)
    25c6:	000f8b63          	beqz	t6,25dc <.L1184>

000025ca <.LVL1184>:
                   crc |= 0x8000;
    25ca:	72e9                	lui	t0,0xffffa
    25cc:	00128793          	addi	a5,t0,1 # ffffa001 <STACK+0xfffe1d71>
    25d0:	00f3c533          	xor	a0,t2,a5

000025d4 <.LVL1185>:
    25d4:	01051693          	slli	a3,a0,0x10
    25d8:	0106d393          	srli	t2,a3,0x10

000025dc <.L1184>:
                if (x16 == 1)
    25dc:	0013f593          	andi	a1,t2,1
                crc >>= 1;
    25e0:	0013de93          	srli	t4,t2,0x1
                if (x16 == 1)
    25e4:	12e59763          	bne	a1,a4,2712 <.L1242>

000025e8 <.L1185>:
        crc=crcu8( (ee_u8) ((newval)>>8)        ,crc);
    25e8:	00835f13          	srli	t5,t1,0x8

000025ec <.LBB615>:
                x16 = (ee_u8)((data & 1) ^ ((ee_u8)crc & 1));
    25ec:	01df4fb3          	xor	t6,t5,t4
                if (x16 == 1)
    25f0:	001ff293          	andi	t0,t6,1

000025f4 <.LBE615>:
        crc=crcu8( (ee_u8) ((newval)>>8)        ,crc);
    25f4:	00835713          	srli	a4,t1,0x8

000025f8 <.LBB618>:
                data >>= 1;
    25f8:	001ed593          	srli	a1,t4,0x1
    25fc:	00935313          	srli	t1,t1,0x9

00002600 <.LVL1189>:
                if (x16 == 1)
    2600:	00028b63          	beqz	t0,2616 <.L1186>

00002604 <.LVL1190>:
                   crc |= 0x8000;
    2604:	77e9                	lui	a5,0xffffa
    2606:	00178693          	addi	a3,a5,1 # ffffa001 <STACK+0xfffe1d71>
    260a:	00d5c533          	xor	a0,a1,a3

0000260e <.LVL1191>:
    260e:	01051393          	slli	t2,a0,0x10
    2612:	0103d593          	srli	a1,t2,0x10

00002616 <.L1186>:
                x16 = (ee_u8)((data & 1) ^ ((ee_u8)crc & 1));
    2616:	00b34633          	xor	a2,t1,a1
                if (x16 == 1)
    261a:	00167813          	andi	a6,a2,1
                data >>= 1;
    261e:	00275893          	srli	a7,a4,0x2

00002622 <.LVL1193>:
                if (x16 == 1)
    2622:	0015d293          	srli	t0,a1,0x1
    2626:	00080b63          	beqz	a6,263c <.L1187>

0000262a <.LVL1194>:
                   crc |= 0x8000;
    262a:	7e69                	lui	t3,0xffffa
    262c:	001e0e93          	addi	t4,t3,1 # ffffa001 <STACK+0xfffe1d71>
    2630:	01d2cf33          	xor	t5,t0,t4

00002634 <.LVL1195>:
    2634:	010f1f93          	slli	t6,t5,0x10
    2638:	010fd293          	srli	t0,t6,0x10

0000263c <.L1187>:
                x16 = (ee_u8)((data & 1) ^ ((ee_u8)crc & 1));
    263c:	0112c333          	xor	t1,t0,a7
                if (x16 == 1)
    2640:	00137793          	andi	a5,t1,1
                data >>= 1;
    2644:	00375693          	srli	a3,a4,0x3

00002648 <.LVL1197>:
                if (x16 == 1)
    2648:	0012d813          	srli	a6,t0,0x1
    264c:	cb91                	beqz	a5,2660 <.L1188>

0000264e <.LVL1198>:
                   crc |= 0x8000;
    264e:	73e9                	lui	t2,0xffffa
    2650:	00138593          	addi	a1,t2,1 # ffffa001 <STACK+0xfffe1d71>
    2654:	00b84533          	xor	a0,a6,a1

00002658 <.LVL1199>:
    2658:	01051613          	slli	a2,a0,0x10
    265c:	01065813          	srli	a6,a2,0x10

00002660 <.L1188>:
                x16 = (ee_u8)((data & 1) ^ ((ee_u8)crc & 1));
    2660:	00d848b3          	xor	a7,a6,a3
                if (x16 == 1)
    2664:	0018fe13          	andi	t3,a7,1
                data >>= 1;
    2668:	00475e93          	srli	t4,a4,0x4

0000266c <.LVL1201>:
                if (x16 == 1)
    266c:	00185393          	srli	t2,a6,0x1
    2670:	000e0b63          	beqz	t3,2686 <.L1189>

00002674 <.LVL1202>:
                   crc |= 0x8000;
    2674:	7f69                	lui	t5,0xffffa
    2676:	001f0f93          	addi	t6,t5,1 # ffffa001 <STACK+0xfffe1d71>
    267a:	01f3c2b3          	xor	t0,t2,t6

0000267e <.LVL1203>:
    267e:	01029313          	slli	t1,t0,0x10
    2682:	01035393          	srli	t2,t1,0x10

00002686 <.L1189>:
                x16 = (ee_u8)((data & 1) ^ ((ee_u8)crc & 1));
    2686:	01d3c7b3          	xor	a5,t2,t4
                if (x16 == 1)
    268a:	0017f593          	andi	a1,a5,1
                data >>= 1;
    268e:	00575693          	srli	a3,a4,0x5

00002692 <.LVL1205>:
                if (x16 == 1)
    2692:	0013de13          	srli	t3,t2,0x1
    2696:	c991                	beqz	a1,26aa <.L1190>

00002698 <.LVL1206>:
                   crc |= 0x8000;
    2698:	7669                	lui	a2,0xffffa
    269a:	00160813          	addi	a6,a2,1 # ffffa001 <STACK+0xfffe1d71>
    269e:	010e4533          	xor	a0,t3,a6

000026a2 <.LVL1207>:
    26a2:	01051893          	slli	a7,a0,0x10
    26a6:	0108de13          	srli	t3,a7,0x10

000026aa <.L1190>:
                x16 = (ee_u8)((data & 1) ^ ((ee_u8)crc & 1));
    26aa:	00de4eb3          	xor	t4,t3,a3
                if (x16 == 1)
    26ae:	001eff13          	andi	t5,t4,1
                data >>= 1;
    26b2:	00675f93          	srli	t6,a4,0x6

000026b6 <.LVL1209>:
                if (x16 == 1)
    26b6:	001e5593          	srli	a1,t3,0x1
    26ba:	000f0b63          	beqz	t5,26d0 <.L1191>

000026be <.LVL1210>:
                   crc |= 0x8000;
    26be:	72e9                	lui	t0,0xffffa
    26c0:	00128313          	addi	t1,t0,1 # ffffa001 <STACK+0xfffe1d71>
    26c4:	0065c3b3          	xor	t2,a1,t1

000026c8 <.LVL1211>:
    26c8:	01039793          	slli	a5,t2,0x10
    26cc:	0107d593          	srli	a1,a5,0x10

000026d0 <.L1191>:
                x16 = (ee_u8)((data & 1) ^ ((ee_u8)crc & 1));
    26d0:	01f5c6b3          	xor	a3,a1,t6
                if (x16 == 1)
    26d4:	0016f613          	andi	a2,a3,1
                data >>= 1;
    26d8:	831d                	srli	a4,a4,0x7

000026da <.LVL1213>:
                if (x16 == 1)
    26da:	0015de93          	srli	t4,a1,0x1
    26de:	ca11                	beqz	a2,26f2 <.L1192>

000026e0 <.LVL1214>:
                   crc |= 0x8000;
    26e0:	7869                	lui	a6,0xffffa
    26e2:	00180893          	addi	a7,a6,1 # ffffa001 <STACK+0xfffe1d71>
    26e6:	011ec533          	xor	a0,t4,a7

000026ea <.LVL1215>:
    26ea:	01051e13          	slli	t3,a0,0x10
    26ee:	010e5e93          	srli	t4,t3,0x10

000026f2 <.L1192>:
                if (x16 == 1)
    26f2:	001eff13          	andi	t5,t4,1
    26f6:	001ed513          	srli	a0,t4,0x1
    26fa:	00ef0b63          	beq	t5,a4,2710 <.L1193>

000026fe <.LVL1217>:
                   crc |= 0x8000;
    26fe:	7fe9                	lui	t6,0xffffa
    2700:	001f8293          	addi	t0,t6,1 # ffffa001 <STACK+0xfffe1d71>
    2704:	00554333          	xor	t1,a0,t0
    2708:	01031393          	slli	t2,t1,0x10
    270c:	0103d513          	srli	a0,t2,0x10

00002710 <.L1193>:
}
    2710:	8082                	ret

00002712 <.L1242>:
                   crc |= 0x8000;
    2712:	7669                	lui	a2,0xffffa
    2714:	00160813          	addi	a6,a2,1 # ffffa001 <STACK+0xfffe1d71>
    2718:	010ec8b3          	xor	a7,t4,a6

0000271c <.LVL1220>:
    271c:	01089e13          	slli	t3,a7,0x10
    2720:	010e5e93          	srli	t4,t3,0x10

00002724 <.LVL1221>:
    2724:	b5d1                	j	25e8 <.L1185>

00002726 <check_data_types>:
        }
        if (retval>0) {
                ee_printf("ERROR: Please modify the datatypes in core_portme.h!\n");
        }
        return retval;
}
    2726:	4501                	li	a0,0
    2728:	8082                	ret

0000272a <start_time>:
        Implementation may be capturing a system timer (as implemented in the example code)
        or zeroing some system parameters - e.g. setting the cpu clocks cycles to 0.
*/
void start_time(void) {
uint32_t mcyclel;
        asm volatile ("csrr %0,mcycle"  : "=r" (mcyclel) );
    272a:	b0002773          	csrr	a4,mcycle
        start_time_val = mcyclel;
    272e:	67c5                	lui	a5,0x11
    2730:	a6e7a023          	sw	a4,-1440(a5) # 10a60 <start_time_val>
}
    2734:	8082                	ret

00002736 <stop_time>:
        Implementation may be capturing a system timer (as implemented in the example code)
        or other system parameters - e.g. reading the current value of cpu cycles counter.
*/
void stop_time(void) {
uint32_t mcyclel;
        asm volatile ("csrr %0,mcycle"  : "=r" (mcyclel) );
    2736:	b0002773          	csrr	a4,mcycle
        stop_time_val = mcyclel;
    273a:	67c5                	lui	a5,0x11
    273c:	a4e7ae23          	sw	a4,-1444(a5) # 10a5c <stop_time_val>
}
    2740:	8082                	ret

00002742 <get_time>:
        This methodology is taken to accomodate any hardware or simulated platform.
        The sample implementation returns millisecs by default,
        and the resolution is controlled by <TIMER_RES_DIVIDER>
*/
CORE_TICKS get_time(void) {
        CORE_TICKS elapsed=(CORE_TICKS)(MYTIMEDIFF(stop_time_val, start_time_val));
    2742:	67c5                	lui	a5,0x11
    2744:	62c5                	lui	t0,0x11
    2746:	a5c7a503          	lw	a0,-1444(a5) # 10a5c <stop_time_val>
    274a:	a602a303          	lw	t1,-1440(t0) # 10a60 <start_time_val>
        return elapsed;
}
    274e:	40650533          	sub	a0,a0,t1

00002752 <.LVL1226>:
    2752:	8082                	ret

00002754 <time_in_secs>:

        The <secs_ret> type is used to accomodate systems with no support for floating point.
        Default implementation implemented by the EE_TICKS_PER_SEC macro above.
*/
secs_ret time_in_secs(CORE_TICKS ticks) {
        secs_ret retval=((secs_ret)ticks) / (secs_ret)EE_TICKS_PER_SEC;
    2754:	3e800793          	li	a5,1000
        return retval;
}
    2758:	02f55533          	divu	a0,a0,a5

0000275c <.LVL1228>:
    275c:	8082                	ret

0000275e <portable_init>:
                ee_printf("ERROR! Please define ee_ptr_int to a type that holds a pointer!\n");
        }
        if (sizeof(ee_u32) != 4) {
                ee_printf("ERROR! Please define ee_u32 to a 32b unsigned type!\n");
        }
        p->portable_id=1;
    275e:	4785                	li	a5,1
    2760:	00f50023          	sb	a5,0(a0)
}
    2764:	8082                	ret

00002766 <portable_fini>:
/* Function : portable_fini
        Target specific final code
*/
void portable_fini(core_portable *p)
{
        p->portable_id=0;
    2766:	00050023          	sb	zero,0(a0)
}
    276a:	8082                	ret

0000276c <whisperPrintfImpl>:
int
whisperPrintfImpl(const char* format, va_list ap)
{
  int count = 0;  // Printed character count

  for (const char* fp = format; *fp; fp++)
    276c:	00054783          	lbu	a5,0(a0)
    2770:	0e0789e3          	beqz	a5,3062 <.L1285>

00002774 <.LBE668>:
{
    2774:	7139                	addi	sp,sp,-64
    2776:	6fc1                	lui	t6,0x10
    2778:	de22                	sw	s0,60(sp)
    277a:	862a                	mv	a2,a0
    277c:	dc26                	sw	s1,56(sp)
    277e:	da4a                	sw	s2,52(sp)
    2780:	d84e                	sw	s3,48(sp)
    2782:	d652                	sw	s4,44(sp)
    2784:	d456                	sw	s5,40(sp)
  int count = 0;  // Printed character count
    2786:	4501                	li	a0,0

00002788 <.LBB888>:
    {
      if (*fp != '%')
    2788:	02500313          	li	t1,37
        {
          whisperPutc('%');
          continue;
        }

      if (*fp == '-')
    278c:	02d00293          	li	t0,45
        {
          fp++;  // Pad right not yet implemented.
        }

      while (*fp == '0')
    2790:	03000893          	li	a7,48
        {
          fp++;  // Pad zero not yet implented.
        }

      if (*fp == '*')
    2794:	02a00413          	li	s0,42
    2798:	02000393          	li	t2,32
    279c:	024f8f93          	addi	t6,t6,36 # 10024 <.L1262>

000027a0 <.LBB669>:
  *(volatile char*)(STDOUT) = c;
    27a0:	d0580837          	lui	a6,0xd0580
    27a4:	00b10f13          	addi	t5,sp,11

000027a8 <.LBB690>:
          char c = digit < 10 ? '0' + digit : 'a' + digit;
    27a8:	4ea5                	li	t4,9

000027aa <.LBB730>:
      char c = '0' + (value % 10);
    27aa:	4e29                	li	t3,10
    27ac:	a811                	j	27c0 <.L1284>

000027ae <.L1512>:
          continue;
    27ae:	8736                	mv	a4,a3

000027b0 <.LBB781>:
  *(volatile char*)(STDOUT) = c;
    27b0:	00f80023          	sb	a5,0(a6) # d0580000 <STACK+0xd0567d70>

000027b4 <.LBE781>:
          continue;
    27b4:	86b2                	mv	a3,a2
          ++count;
    27b6:	0505                	addi	a0,a0,1
          continue;
    27b8:	863a                	mv	a2,a4

000027ba <.L1253>:
  for (const char* fp = format; *fp; fp++)
    27ba:	0016c783          	lbu	a5,1(a3)
    27be:	cfdd                	beqz	a5,287c <.L1250>

000027c0 <.L1284>:
      ++fp;  // Skip %
    27c0:	00160693          	addi	a3,a2,1
      if (*fp != '%')
    27c4:	fe6795e3          	bne	a5,t1,27ae <.L1512>

000027c8 <.LVL1238>:
      if (*fp == 0)
    27c8:	00164783          	lbu	a5,1(a2)
    27cc:	cbc5                	beqz	a5,287c <.L1250>
      if (*fp == '%')
    27ce:	0a678163          	beq	a5,t1,2870 <.L1513>
      if (*fp == '-')
    27d2:	08578a63          	beq	a5,t0,2866 <.L1514>

000027d6 <.L1255>:
      while (*fp == '0')
    27d6:	07179163          	bne	a5,a7,2838 <.L1256>

000027da <.L1257>:
    27da:	0016c783          	lbu	a5,1(a3)
          fp++;  // Pad zero not yet implented.
    27de:	0685                	addi	a3,a3,1

000027e0 <.LVL1240>:
    27e0:	8736                	mv	a4,a3
      while (*fp == '0')
    27e2:	05179b63          	bne	a5,a7,2838 <.L1256>

000027e6 <.LVL1241>:
    27e6:	0016c783          	lbu	a5,1(a3)
          fp++;  // Pad zero not yet implented.
    27ea:	0685                	addi	a3,a3,1

000027ec <.LVL1242>:
      while (*fp == '0')
    27ec:	05179663          	bne	a5,a7,2838 <.L1256>

000027f0 <.LVL1243>:
    27f0:	00274783          	lbu	a5,2(a4)
          fp++;  // Pad zero not yet implented.
    27f4:	00270693          	addi	a3,a4,2

000027f8 <.LVL1244>:
      while (*fp == '0')
    27f8:	05179063          	bne	a5,a7,2838 <.L1256>

000027fc <.LVL1245>:
    27fc:	00374783          	lbu	a5,3(a4)
          fp++;  // Pad zero not yet implented.
    2800:	00370693          	addi	a3,a4,3

00002804 <.LVL1246>:
      while (*fp == '0')
    2804:	03179a63          	bne	a5,a7,2838 <.L1256>

00002808 <.LVL1247>:
    2808:	00474783          	lbu	a5,4(a4)
          fp++;  // Pad zero not yet implented.
    280c:	00470693          	addi	a3,a4,4

00002810 <.LVL1248>:
      while (*fp == '0')
    2810:	03179463          	bne	a5,a7,2838 <.L1256>

00002814 <.LVL1249>:
    2814:	00574783          	lbu	a5,5(a4)
          fp++;  // Pad zero not yet implented.
    2818:	00570693          	addi	a3,a4,5

0000281c <.LVL1250>:
      while (*fp == '0')
    281c:	01179e63          	bne	a5,a7,2838 <.L1256>

00002820 <.LVL1251>:
    2820:	00674783          	lbu	a5,6(a4)
          fp++;  // Pad zero not yet implented.
    2824:	00670693          	addi	a3,a4,6

00002828 <.LVL1252>:
      while (*fp == '0')
    2828:	01179863          	bne	a5,a7,2838 <.L1256>

0000282c <.LVL1253>:
    282c:	00774783          	lbu	a5,7(a4)
          fp++;  // Pad zero not yet implented.
    2830:	00770693          	addi	a3,a4,7

00002834 <.LVL1254>:
      while (*fp == '0')
    2834:	fb1783e3          	beq	a5,a7,27da <.L1257>

00002838 <.L1256>:
        {
          int width = va_arg(ap, int);
          fp++;  // Width not yet implemented.
    2838:	00168713          	addi	a4,a3,1

0000283c <.LBE782>:
      if (*fp == '*')
    283c:	04879863          	bne	a5,s0,288c <.L1515>

00002840 <.LBB783>:
        {
          while (*fp >= '0' && *fp <= '9')
            ++fp;   // Width not yet implemented.
        }

      switch (*fp)
    2840:	0016c783          	lbu	a5,1(a3)
  for (const char* fp = format; *fp; fp++)
    2844:	00268613          	addi	a2,a3,2

00002848 <.LBB784>:
          int width = va_arg(ap, int);
    2848:	0591                	addi	a1,a1,4

0000284a <.LVL1256>:
          fp++;  // Width not yet implemented.
    284a:	86ba                	mv	a3,a4

0000284c <.L1260>:
      switch (*fp)
    284c:	fa878793          	addi	a5,a5,-88
    2850:	0ff7f993          	andi	s3,a5,255
    2854:	f733e3e3          	bltu	t2,s3,27ba <.L1253>
    2858:	00299a13          	slli	s4,s3,0x2
    285c:	01fa0ab3          	add	s5,s4,t6
    2860:	000aa483          	lw	s1,0(s5)
    2864:	8482                	jr	s1

00002866 <.L1514>:
      while (*fp == '0')
    2866:	00264783          	lbu	a5,2(a2)
          fp++;  // Pad right not yet implemented.
    286a:	00260693          	addi	a3,a2,2
    286e:	b7a5                	j	27d6 <.L1255>

00002870 <.L1513>:
  *(volatile char*)(STDOUT) = c;
    2870:	00680023          	sb	t1,0(a6)

00002874 <.LBE785>:
  for (const char* fp = format; *fp; fp++)
    2874:	0016c783          	lbu	a5,1(a3)
    2878:	0609                	addi	a2,a2,2

0000287a <.LVL1262>:
    287a:	f3b9                	bnez	a5,27c0 <.L1284>

0000287c <.L1250>:
          break;
        }
    }

  return count;
}
    287c:	5472                	lw	s0,60(sp)
    287e:	54e2                	lw	s1,56(sp)
    2880:	5952                	lw	s2,52(sp)
    2882:	59c2                	lw	s3,48(sp)
    2884:	5a32                	lw	s4,44(sp)
    2886:	5aa2                	lw	s5,40(sp)
    2888:	6121                	addi	sp,sp,64
    288a:	8082                	ret

0000288c <.L1515>:
          while (*fp >= '0' && *fp <= '9')
    288c:	fd078613          	addi	a2,a5,-48
    2890:	0ff67493          	andi	s1,a2,255
    2894:	7c9ee463          	bltu	t4,s1,305c <.L1516>
    2898:	00074783          	lbu	a5,0(a4)
    289c:	8636                	mv	a2,a3

0000289e <.LVL1264>:
            ++fp;   // Width not yet implemented.
    289e:	86ba                	mv	a3,a4

000028a0 <.LVL1265>:
          while (*fp >= '0' && *fp <= '9')
    28a0:	fd078913          	addi	s2,a5,-48
    28a4:	0ff97993          	andi	s3,s2,255
    28a8:	0b3eea63          	bltu	t4,s3,295c <.L1494>

000028ac <.L1517>:
    28ac:	00174783          	lbu	a5,1(a4)
    28b0:	863a                	mv	a2,a4

000028b2 <.LVL1267>:
            ++fp;   // Width not yet implemented.
    28b2:	00170693          	addi	a3,a4,1

000028b6 <.LVL1268>:
          while (*fp >= '0' && *fp <= '9')
    28b6:	fd078a13          	addi	s4,a5,-48
    28ba:	0ffa7a93          	andi	s5,s4,255
    28be:	095eef63          	bltu	t4,s5,295c <.L1494>

000028c2 <.LVL1269>:
    28c2:	00274783          	lbu	a5,2(a4)
    28c6:	8636                	mv	a2,a3

000028c8 <.LVL1270>:
            ++fp;   // Width not yet implemented.
    28c8:	00270693          	addi	a3,a4,2

000028cc <.LVL1271>:
          while (*fp >= '0' && *fp <= '9')
    28cc:	fd078493          	addi	s1,a5,-48
    28d0:	0ff4f913          	andi	s2,s1,255
    28d4:	092ee463          	bltu	t4,s2,295c <.L1494>

000028d8 <.LVL1272>:
    28d8:	00374783          	lbu	a5,3(a4)
    28dc:	8636                	mv	a2,a3

000028de <.LVL1273>:
            ++fp;   // Width not yet implemented.
    28de:	00370693          	addi	a3,a4,3

000028e2 <.LVL1274>:
          while (*fp >= '0' && *fp <= '9')
    28e2:	fd078993          	addi	s3,a5,-48
    28e6:	0ff9fa13          	andi	s4,s3,255
    28ea:	074ee963          	bltu	t4,s4,295c <.L1494>

000028ee <.LVL1275>:
    28ee:	00474783          	lbu	a5,4(a4)
    28f2:	8636                	mv	a2,a3

000028f4 <.LVL1276>:
            ++fp;   // Width not yet implemented.
    28f4:	00470693          	addi	a3,a4,4

000028f8 <.LVL1277>:
          while (*fp >= '0' && *fp <= '9')
    28f8:	fd078a93          	addi	s5,a5,-48
    28fc:	0ffaf493          	andi	s1,s5,255
    2900:	049eee63          	bltu	t4,s1,295c <.L1494>

00002904 <.LVL1278>:
    2904:	00574783          	lbu	a5,5(a4)
    2908:	8636                	mv	a2,a3

0000290a <.LVL1279>:
            ++fp;   // Width not yet implemented.
    290a:	00570693          	addi	a3,a4,5

0000290e <.LVL1280>:
          while (*fp >= '0' && *fp <= '9')
    290e:	fd078913          	addi	s2,a5,-48
    2912:	0ff97993          	andi	s3,s2,255
    2916:	053ee363          	bltu	t4,s3,295c <.L1494>

0000291a <.LVL1281>:
    291a:	00674783          	lbu	a5,6(a4)
    291e:	8636                	mv	a2,a3

00002920 <.LVL1282>:
            ++fp;   // Width not yet implemented.
    2920:	00670693          	addi	a3,a4,6

00002924 <.LVL1283>:
          while (*fp >= '0' && *fp <= '9')
    2924:	fd078a13          	addi	s4,a5,-48
    2928:	0ffa7a93          	andi	s5,s4,255
    292c:	035ee863          	bltu	t4,s5,295c <.L1494>

00002930 <.LVL1284>:
    2930:	00774783          	lbu	a5,7(a4)
    2934:	8636                	mv	a2,a3

00002936 <.LVL1285>:
            ++fp;   // Width not yet implemented.
    2936:	00770693          	addi	a3,a4,7

0000293a <.LVL1286>:
          while (*fp >= '0' && *fp <= '9')
    293a:	fd078493          	addi	s1,a5,-48
    293e:	0ff4f913          	andi	s2,s1,255
    2942:	012eed63          	bltu	t4,s2,295c <.L1494>
    2946:	00874783          	lbu	a5,8(a4)
    294a:	0721                	addi	a4,a4,8

0000294c <.LVL1287>:
            ++fp;   // Width not yet implemented.
    294c:	8636                	mv	a2,a3

0000294e <.LVL1288>:
          while (*fp >= '0' && *fp <= '9')
    294e:	fd078913          	addi	s2,a5,-48
    2952:	0ff97993          	andi	s3,s2,255
            ++fp;   // Width not yet implemented.
    2956:	86ba                	mv	a3,a4

00002958 <.LVL1289>:
          while (*fp >= '0' && *fp <= '9')
    2958:	f53efae3          	bgeu	t4,s3,28ac <.L1517>

0000295c <.L1494>:
  for (const char* fp = format; *fp; fp++)
    295c:	0609                	addi	a2,a2,2
    295e:	b5fd                	j	284c <.L1260>

00002960 <.L1261>:
  unsigned uu = value;
    2960:	419c                	lw	a5,0(a1)
  int charCount = 0;
    2962:	4981                	li	s3,0

00002964 <.LBE787>:
          count += whisperPrintInt(va_arg(ap, int), 16);
    2964:	0591                	addi	a1,a1,4

00002966 <.LBB788>:
  if (base == 8)
    2966:	a011                	j	296a <.L1278>

00002968 <.L1288>:
          buffer[charCount++] = c;
    2968:	89ba                	mv	s3,a4

0000296a <.L1278>:
          char c = digit < 10 ? '0' + digit : 'a' + digit;
    296a:	00f7f913          	andi	s2,a5,15
    296e:	06190493          	addi	s1,s2,97 # ffffa061 <STACK+0xfffe1dd1>
    2972:	012ec463          	blt	t4,s2,297a <.L1277>
    2976:	03090493          	addi	s1,s2,48

0000297a <.L1277>:
          buffer[charCount++] = c;
    297a:	00198713          	addi	a4,s3,1

0000297e <.LVL1294>:
    297e:	00c10a93          	addi	s5,sp,12
    2982:	00ea8933          	add	s2,s5,a4
    2986:	fe990fa3          	sb	s1,-1(s2)
          uu >>= 4;
    298a:	8391                	srli	a5,a5,0x4

0000298c <.LBE694>:
      while (uu);
    298c:	fff1                	bnez	a5,2968 <.L1288>
  char* p = buffer + charCount - 1;
    298e:	00c10a13          	addi	s4,sp,12
    2992:	013a07b3          	add	a5,s4,s3

00002996 <.LBB695>:
  for (unsigned i = 0; i < charCount; ++i)
    2996:	41e789b3          	sub	s3,a5,t5

0000299a <.LVL1297>:
    299a:	0079f493          	andi	s1,s3,7

0000299e <.LVL1298>:
    299e:	c8a5                	beqz	s1,2a0e <.L1279>
    29a0:	4a85                	li	s5,1
    29a2:	05548f63          	beq	s1,s5,2a00 <.L1445>
    29a6:	4909                	li	s2,2

000029a8 <.LVL1299>:
    29a8:	05248763          	beq	s1,s2,29f6 <.L1446>
    29ac:	4a0d                	li	s4,3

000029ae <.LVL1300>:
    29ae:	03448f63          	beq	s1,s4,29ec <.L1447>
    29b2:	4991                	li	s3,4
    29b4:	03348763          	beq	s1,s3,29e2 <.L1448>
    29b8:	4a95                	li	s5,5
    29ba:	01548f63          	beq	s1,s5,29d8 <.L1449>
    29be:	4919                	li	s2,6
    29c0:	01248763          	beq	s1,s2,29ce <.L1450>

000029c4 <.LVL1301>:
    whisperPutc(*p--);
    29c4:	0007c483          	lbu	s1,0(a5)
    29c8:	17fd                	addi	a5,a5,-1

000029ca <.LBB696>:
  *(volatile char*)(STDOUT) = c;
    29ca:	00980023          	sb	s1,0(a6)

000029ce <.L1450>:
    whisperPutc(*p--);
    29ce:	0007ca03          	lbu	s4,0(a5)
    29d2:	17fd                	addi	a5,a5,-1

000029d4 <.LBB713>:
  *(volatile char*)(STDOUT) = c;
    29d4:	01480023          	sb	s4,0(a6)

000029d8 <.L1449>:
    whisperPutc(*p--);
    29d8:	0007c983          	lbu	s3,0(a5)
    29dc:	17fd                	addi	a5,a5,-1

000029de <.LBB714>:
  *(volatile char*)(STDOUT) = c;
    29de:	01380023          	sb	s3,0(a6)

000029e2 <.L1448>:
    whisperPutc(*p--);
    29e2:	0007ca83          	lbu	s5,0(a5)
    29e6:	17fd                	addi	a5,a5,-1

000029e8 <.LBB715>:
  *(volatile char*)(STDOUT) = c;
    29e8:	01580023          	sb	s5,0(a6)

000029ec <.L1447>:
    whisperPutc(*p--);
    29ec:	0007c903          	lbu	s2,0(a5)
    29f0:	17fd                	addi	a5,a5,-1

000029f2 <.LBB716>:
  *(volatile char*)(STDOUT) = c;
    29f2:	01280023          	sb	s2,0(a6)

000029f6 <.L1446>:
    whisperPutc(*p--);
    29f6:	0007c483          	lbu	s1,0(a5)
    29fa:	17fd                	addi	a5,a5,-1

000029fc <.LBB717>:
  *(volatile char*)(STDOUT) = c;
    29fc:	00980023          	sb	s1,0(a6)

00002a00 <.L1445>:
    whisperPutc(*p--);
    2a00:	0007ca03          	lbu	s4,0(a5)
    2a04:	17fd                	addi	a5,a5,-1

00002a06 <.LBB718>:
  *(volatile char*)(STDOUT) = c;
    2a06:	01480023          	sb	s4,0(a6)

00002a0a <.LBE718>:
  for (unsigned i = 0; i < charCount; ++i)
    2a0a:	05e78563          	beq	a5,t5,2a54 <.L1499>

00002a0e <.L1279>:
    whisperPutc(*p--);
    2a0e:	0007c983          	lbu	s3,0(a5)

00002a12 <.LBB719>:
    2a12:	17e1                	addi	a5,a5,-8

00002a14 <.LBB720>:
  *(volatile char*)(STDOUT) = c;
    2a14:	01380023          	sb	s3,0(a6)

00002a18 <.LBE720>:
    whisperPutc(*p--);
    2a18:	0077ca83          	lbu	s5,7(a5)

00002a1c <.LBB721>:
  *(volatile char*)(STDOUT) = c;
    2a1c:	01580023          	sb	s5,0(a6)

00002a20 <.LBE721>:
    whisperPutc(*p--);
    2a20:	0067c903          	lbu	s2,6(a5)

00002a24 <.LBB722>:
  *(volatile char*)(STDOUT) = c;
    2a24:	01280023          	sb	s2,0(a6)

00002a28 <.LBE722>:
    whisperPutc(*p--);
    2a28:	0057c483          	lbu	s1,5(a5)

00002a2c <.LBB723>:
  *(volatile char*)(STDOUT) = c;
    2a2c:	00980023          	sb	s1,0(a6)

00002a30 <.LBE723>:
    whisperPutc(*p--);
    2a30:	0047ca03          	lbu	s4,4(a5)

00002a34 <.LBB724>:
  *(volatile char*)(STDOUT) = c;
    2a34:	01480023          	sb	s4,0(a6)

00002a38 <.LBE724>:
    whisperPutc(*p--);
    2a38:	0037c983          	lbu	s3,3(a5)

00002a3c <.LBB725>:
  *(volatile char*)(STDOUT) = c;
    2a3c:	01380023          	sb	s3,0(a6)

00002a40 <.LBE725>:
    whisperPutc(*p--);
    2a40:	0027ca83          	lbu	s5,2(a5)

00002a44 <.LBB726>:
  *(volatile char*)(STDOUT) = c;
    2a44:	01580023          	sb	s5,0(a6)

00002a48 <.LBE726>:
    whisperPutc(*p--);
    2a48:	0017c903          	lbu	s2,1(a5)

00002a4c <.LBB727>:
  *(volatile char*)(STDOUT) = c;
    2a4c:	01280023          	sb	s2,0(a6)

00002a50 <.LBE727>:
  for (unsigned i = 0; i < charCount; ++i)
    2a50:	fbe79fe3          	bne	a5,t5,2a0e <.L1279>

00002a54 <.L1499>:
          count += whisperPrintInt(va_arg(ap, int), 16);
    2a54:	953a                	add	a0,a0,a4
          break;
    2a56:	b395                	j	27ba <.L1253>

00002a58 <.L1263>:
          count += whisperPrintDecimal((unsigned) va_arg(ap, unsigned));
    2a58:	0005a983          	lw	s3,0(a1)
    2a5c:	0591                	addi	a1,a1,4

00002a5e <.LBB789>:
  if (neg)
    2a5e:	87ce                	mv	a5,s3
    2a60:	5e09c963          	bltz	s3,3052 <.L1518>

00002a64 <.L1272>:
    2a64:	4701                	li	a4,0

00002a66 <.L1273>:
      char c = '0' + (value % 10);
    2a66:	03c7ea33          	rem	s4,a5,t3
      buffer[charCount++] = c;
    2a6a:	00c10913          	addi	s2,sp,12
    2a6e:	84ba                	mv	s1,a4
    2a70:	0705                	addi	a4,a4,1

00002a72 <.LVL1332>:
    2a72:	00e90ab3          	add	s5,s2,a4
    2a76:	893a                	mv	s2,a4
      value = value / 10;
    2a78:	03c7c7b3          	div	a5,a5,t3

00002a7c <.LVL1333>:
      char c = '0' + (value % 10);
    2a7c:	030a0a13          	addi	s4,s4,48

00002a80 <.LVL1334>:
      buffer[charCount++] = c;
    2a80:	ff4a8fa3          	sb	s4,-1(s5)

00002a84 <.LBE733>:
  while (value);
    2a84:	cbf1                	beqz	a5,2b58 <.L1505>

00002a86 <.LBB734>:
      char c = '0' + (value % 10);
    2a86:	03c7ea33          	rem	s4,a5,t3

00002a8a <.LVL1335>:
    2a8a:	84ba                	mv	s1,a4
      buffer[charCount++] = c;
    2a8c:	00c10a93          	addi	s5,sp,12

00002a90 <.LVL1336>:
    2a90:	0705                	addi	a4,a4,1

00002a92 <.LVL1337>:
    2a92:	9aba                	add	s5,s5,a4

00002a94 <.LVL1338>:
      value = value / 10;
    2a94:	03c7c7b3          	div	a5,a5,t3

00002a98 <.LVL1339>:
      char c = '0' + (value % 10);
    2a98:	030a0a13          	addi	s4,s4,48
      buffer[charCount++] = c;
    2a9c:	ff4a8fa3          	sb	s4,-1(s5)

00002aa0 <.LBE734>:
  while (value);
    2aa0:	cfc5                	beqz	a5,2b58 <.L1505>

00002aa2 <.LBB735>:
      char c = '0' + (value % 10);
    2aa2:	03c7ea33          	rem	s4,a5,t3
    2aa6:	84ba                	mv	s1,a4

00002aa8 <.LVL1340>:
      buffer[charCount++] = c;
    2aa8:	00c10a93          	addi	s5,sp,12

00002aac <.LVL1341>:
    2aac:	00290713          	addi	a4,s2,2

00002ab0 <.LVL1342>:
    2ab0:	9aba                	add	s5,s5,a4

00002ab2 <.LVL1343>:
      value = value / 10;
    2ab2:	03c7c7b3          	div	a5,a5,t3

00002ab6 <.LVL1344>:
      char c = '0' + (value % 10);
    2ab6:	030a0a13          	addi	s4,s4,48
      buffer[charCount++] = c;
    2aba:	ff4a8fa3          	sb	s4,-1(s5)

00002abe <.LBE735>:
  while (value);
    2abe:	cfc9                	beqz	a5,2b58 <.L1505>

00002ac0 <.LBB736>:
      char c = '0' + (value % 10);
    2ac0:	03c7ea33          	rem	s4,a5,t3
    2ac4:	84ba                	mv	s1,a4
      buffer[charCount++] = c;
    2ac6:	00c10a93          	addi	s5,sp,12

00002aca <.LVL1345>:
    2aca:	00390713          	addi	a4,s2,3

00002ace <.LVL1346>:
    2ace:	9aba                	add	s5,s5,a4

00002ad0 <.LVL1347>:
      value = value / 10;
    2ad0:	03c7c7b3          	div	a5,a5,t3

00002ad4 <.LVL1348>:
      char c = '0' + (value % 10);
    2ad4:	030a0a13          	addi	s4,s4,48
      buffer[charCount++] = c;
    2ad8:	ff4a8fa3          	sb	s4,-1(s5)

00002adc <.LBE736>:
  while (value);
    2adc:	cfb5                	beqz	a5,2b58 <.L1505>

00002ade <.LBB737>:
      char c = '0' + (value % 10);
    2ade:	03c7ea33          	rem	s4,a5,t3
    2ae2:	84ba                	mv	s1,a4
      buffer[charCount++] = c;
    2ae4:	00c10a93          	addi	s5,sp,12

00002ae8 <.LVL1349>:
    2ae8:	00490713          	addi	a4,s2,4

00002aec <.LVL1350>:
    2aec:	9aba                	add	s5,s5,a4

00002aee <.LVL1351>:
      value = value / 10;
    2aee:	03c7c7b3          	div	a5,a5,t3

00002af2 <.LVL1352>:
      char c = '0' + (value % 10);
    2af2:	030a0a13          	addi	s4,s4,48
      buffer[charCount++] = c;
    2af6:	ff4a8fa3          	sb	s4,-1(s5)

00002afa <.LBE737>:
  while (value);
    2afa:	cfb9                	beqz	a5,2b58 <.L1505>

00002afc <.LBB738>:
      char c = '0' + (value % 10);
    2afc:	03c7ea33          	rem	s4,a5,t3
    2b00:	84ba                	mv	s1,a4
      buffer[charCount++] = c;
    2b02:	00c10a93          	addi	s5,sp,12

00002b06 <.LVL1353>:
    2b06:	00590713          	addi	a4,s2,5

00002b0a <.LVL1354>:
    2b0a:	9aba                	add	s5,s5,a4

00002b0c <.LVL1355>:
      value = value / 10;
    2b0c:	03c7c7b3          	div	a5,a5,t3

00002b10 <.LVL1356>:
      char c = '0' + (value % 10);
    2b10:	030a0a13          	addi	s4,s4,48
      buffer[charCount++] = c;
    2b14:	ff4a8fa3          	sb	s4,-1(s5)

00002b18 <.LBE738>:
  while (value);
    2b18:	c3a1                	beqz	a5,2b58 <.L1505>

00002b1a <.LBB739>:
      char c = '0' + (value % 10);
    2b1a:	03c7ea33          	rem	s4,a5,t3
    2b1e:	84ba                	mv	s1,a4
      buffer[charCount++] = c;
    2b20:	00c10a93          	addi	s5,sp,12

00002b24 <.LVL1357>:
    2b24:	00690713          	addi	a4,s2,6

00002b28 <.LVL1358>:
    2b28:	9aba                	add	s5,s5,a4

00002b2a <.LVL1359>:
      value = value / 10;
    2b2a:	03c7c7b3          	div	a5,a5,t3

00002b2e <.LVL1360>:
      char c = '0' + (value % 10);
    2b2e:	030a0a13          	addi	s4,s4,48
      buffer[charCount++] = c;
    2b32:	ff4a8fa3          	sb	s4,-1(s5)

00002b36 <.LBE739>:
  while (value);
    2b36:	c38d                	beqz	a5,2b58 <.L1505>

00002b38 <.LBB740>:
      char c = '0' + (value % 10);
    2b38:	03c7ea33          	rem	s4,a5,t3
    2b3c:	84ba                	mv	s1,a4
      buffer[charCount++] = c;
    2b3e:	00790713          	addi	a4,s2,7

00002b42 <.LVL1362>:
    2b42:	00c10913          	addi	s2,sp,12

00002b46 <.LVL1363>:
    2b46:	00e90ab3          	add	s5,s2,a4
      value = value / 10;
    2b4a:	03c7c7b3          	div	a5,a5,t3

00002b4e <.LVL1364>:
      char c = '0' + (value % 10);
    2b4e:	030a0a13          	addi	s4,s4,48
      buffer[charCount++] = c;
    2b52:	ff4a8fa3          	sb	s4,-1(s5)

00002b56 <.LBE740>:
  while (value);
    2b56:	fb81                	bnez	a5,2a66 <.L1273>

00002b58 <.L1505>:
  char* p = buffer + charCount - 1;
    2b58:	00c10913          	addi	s2,sp,12
    2b5c:	009907b3          	add	a5,s2,s1

00002b60 <.LBB741>:
  for (unsigned i = 0; i < charCount; ++i)
    2b60:	41e78ab3          	sub	s5,a5,t5
    2b64:	007af913          	andi	s2,s5,7
    2b68:	06090963          	beqz	s2,2bda <.L1274>
    2b6c:	4a05                	li	s4,1
    2b6e:	05490f63          	beq	s2,s4,2bcc <.L1439>
    2b72:	4a89                	li	s5,2
    2b74:	05590763          	beq	s2,s5,2bc2 <.L1440>
    2b78:	4a0d                	li	s4,3
    2b7a:	03490f63          	beq	s2,s4,2bb8 <.L1441>
    2b7e:	4a91                	li	s5,4
    2b80:	03590763          	beq	s2,s5,2bae <.L1442>
    2b84:	4a15                	li	s4,5
    2b86:	01490f63          	beq	s2,s4,2ba4 <.L1443>
    2b8a:	4a99                	li	s5,6
    2b8c:	01590763          	beq	s2,s5,2b9a <.L1444>

00002b90 <.LVL1367>:
    whisperPutc(*p--);
    2b90:	0007c903          	lbu	s2,0(a5)
    2b94:	17fd                	addi	a5,a5,-1

00002b96 <.LBB742>:
  *(volatile char*)(STDOUT) = c;
    2b96:	01280023          	sb	s2,0(a6)

00002b9a <.L1444>:
    whisperPutc(*p--);
    2b9a:	0007ca03          	lbu	s4,0(a5)
    2b9e:	17fd                	addi	a5,a5,-1

00002ba0 <.LBB759>:
  *(volatile char*)(STDOUT) = c;
    2ba0:	01480023          	sb	s4,0(a6)

00002ba4 <.L1443>:
    whisperPutc(*p--);
    2ba4:	0007ca83          	lbu	s5,0(a5)
    2ba8:	17fd                	addi	a5,a5,-1

00002baa <.LBB760>:
  *(volatile char*)(STDOUT) = c;
    2baa:	01580023          	sb	s5,0(a6)

00002bae <.L1442>:
    whisperPutc(*p--);
    2bae:	0007c903          	lbu	s2,0(a5)
    2bb2:	17fd                	addi	a5,a5,-1

00002bb4 <.LBB761>:
  *(volatile char*)(STDOUT) = c;
    2bb4:	01280023          	sb	s2,0(a6)

00002bb8 <.L1441>:
    whisperPutc(*p--);
    2bb8:	0007ca03          	lbu	s4,0(a5)
    2bbc:	17fd                	addi	a5,a5,-1

00002bbe <.LBB762>:
  *(volatile char*)(STDOUT) = c;
    2bbe:	01480023          	sb	s4,0(a6)

00002bc2 <.L1440>:
    whisperPutc(*p--);
    2bc2:	0007ca83          	lbu	s5,0(a5)
    2bc6:	17fd                	addi	a5,a5,-1

00002bc8 <.LBB763>:
  *(volatile char*)(STDOUT) = c;
    2bc8:	01580023          	sb	s5,0(a6)

00002bcc <.L1439>:
    whisperPutc(*p--);
    2bcc:	0007c903          	lbu	s2,0(a5)
    2bd0:	17fd                	addi	a5,a5,-1

00002bd2 <.LBB764>:
  *(volatile char*)(STDOUT) = c;
    2bd2:	01280023          	sb	s2,0(a6)

00002bd6 <.LBE764>:
  for (unsigned i = 0; i < charCount; ++i)
    2bd6:	05e78563          	beq	a5,t5,2c20 <.L1504>

00002bda <.L1274>:
    whisperPutc(*p--);
    2bda:	0007ca03          	lbu	s4,0(a5)

00002bde <.LBB765>:
    2bde:	17e1                	addi	a5,a5,-8

00002be0 <.LBB766>:
  *(volatile char*)(STDOUT) = c;
    2be0:	01480023          	sb	s4,0(a6)

00002be4 <.LBE766>:
    whisperPutc(*p--);
    2be4:	0077ca83          	lbu	s5,7(a5)

00002be8 <.LBB767>:
  *(volatile char*)(STDOUT) = c;
    2be8:	01580023          	sb	s5,0(a6)

00002bec <.LBE767>:
    whisperPutc(*p--);
    2bec:	0067c903          	lbu	s2,6(a5)

00002bf0 <.LBB768>:
  *(volatile char*)(STDOUT) = c;
    2bf0:	01280023          	sb	s2,0(a6)

00002bf4 <.LBE768>:
    whisperPutc(*p--);
    2bf4:	0057ca03          	lbu	s4,5(a5)

00002bf8 <.LBB769>:
  *(volatile char*)(STDOUT) = c;
    2bf8:	01480023          	sb	s4,0(a6)

00002bfc <.LBE769>:
    whisperPutc(*p--);
    2bfc:	0047ca83          	lbu	s5,4(a5)

00002c00 <.LBB770>:
  *(volatile char*)(STDOUT) = c;
    2c00:	01580023          	sb	s5,0(a6)

00002c04 <.LBE770>:
    whisperPutc(*p--);
    2c04:	0037c903          	lbu	s2,3(a5)

00002c08 <.LBB771>:
  *(volatile char*)(STDOUT) = c;
    2c08:	01280023          	sb	s2,0(a6)

00002c0c <.LBE771>:
    whisperPutc(*p--);
    2c0c:	0027ca03          	lbu	s4,2(a5)

00002c10 <.LBB772>:
  *(volatile char*)(STDOUT) = c;
    2c10:	01480023          	sb	s4,0(a6)

00002c14 <.LBE772>:
    whisperPutc(*p--);
    2c14:	0017ca83          	lbu	s5,1(a5)

00002c18 <.LBB773>:
  *(volatile char*)(STDOUT) = c;
    2c18:	01580023          	sb	s5,0(a6)

00002c1c <.LBE773>:
  for (unsigned i = 0; i < charCount; ++i)
    2c1c:	fbe79fe3          	bne	a5,t5,2bda <.L1274>

00002c20 <.L1504>:
  if (neg)
    2c20:	e209dae3          	bgez	s3,2a54 <.L1499>
    charCount++;
    2c24:	00248713          	addi	a4,s1,2

00002c28 <.LBE789>:
          count += whisperPrintInt(va_arg(ap, int), 16);
    2c28:	953a                	add	a0,a0,a4
          break;
    2c2a:	be41                	j	27ba <.L1253>

00002c2c <.L1264>:
          count += whisperPuts(va_arg(ap, char*));
    2c2c:	419c                	lw	a5,0(a1)
    2c2e:	0591                	addi	a1,a1,4

00002c30 <.LBB790>:
  while (*s)
    2c30:	0007c483          	lbu	s1,0(a5)
    2c34:	ccb9                	beqz	s1,2c92 <.L1283>

00002c36 <.L1282>:
  *(volatile char*)(STDOUT) = c;
    2c36:	00980023          	sb	s1,0(a6)

00002c3a <.LBE681>:
  while (*s)
    2c3a:	0017c983          	lbu	s3,1(a5)
    2c3e:	04098a63          	beqz	s3,2c92 <.L1283>

00002c42 <.LBB682>:
  *(volatile char*)(STDOUT) = c;
    2c42:	01380023          	sb	s3,0(a6)

00002c46 <.LBE682>:
  while (*s)
    2c46:	0027c483          	lbu	s1,2(a5)
    2c4a:	c4a1                	beqz	s1,2c92 <.L1283>

00002c4c <.LBB683>:
  *(volatile char*)(STDOUT) = c;
    2c4c:	00980023          	sb	s1,0(a6)

00002c50 <.LBE683>:
  while (*s)
    2c50:	0037c703          	lbu	a4,3(a5)
    2c54:	cf1d                	beqz	a4,2c92 <.L1283>

00002c56 <.LBB684>:
  *(volatile char*)(STDOUT) = c;
    2c56:	00e80023          	sb	a4,0(a6)

00002c5a <.LBE684>:
  while (*s)
    2c5a:	0047c903          	lbu	s2,4(a5)
    2c5e:	02090a63          	beqz	s2,2c92 <.L1283>

00002c62 <.LBB685>:
  *(volatile char*)(STDOUT) = c;
    2c62:	01280023          	sb	s2,0(a6)

00002c66 <.LBE685>:
  while (*s)
    2c66:	0057ca03          	lbu	s4,5(a5)
    2c6a:	020a0463          	beqz	s4,2c92 <.L1283>

00002c6e <.LBB686>:
  *(volatile char*)(STDOUT) = c;
    2c6e:	01480023          	sb	s4,0(a6)

00002c72 <.LBE686>:
  while (*s)
    2c72:	0067ca83          	lbu	s5,6(a5)
    2c76:	000a8e63          	beqz	s5,2c92 <.L1283>

00002c7a <.LBB687>:
  *(volatile char*)(STDOUT) = c;
    2c7a:	01580023          	sb	s5,0(a6)

00002c7e <.LBE687>:
  while (*s)
    2c7e:	0077c983          	lbu	s3,7(a5)
    2c82:	00098863          	beqz	s3,2c92 <.L1283>
    whisperPutc(*s++);
    2c86:	07a1                	addi	a5,a5,8

00002c88 <.LBB688>:
  *(volatile char*)(STDOUT) = c;
    2c88:	01380023          	sb	s3,0(a6)

00002c8c <.LBE688>:
  while (*s)
    2c8c:	0007c483          	lbu	s1,0(a5)
    2c90:	f0dd                	bnez	s1,2c36 <.L1282>

00002c92 <.L1283>:
          count += whisperPuts(va_arg(ap, char*));
    2c92:	0505                	addi	a0,a0,1
          break;
    2c94:	b61d                	j	27ba <.L1253>

00002c96 <.L1266>:
          count += whisperPrintDecimal(va_arg(ap, int));
    2c96:	0005a983          	lw	s3,0(a1)
    2c9a:	0591                	addi	a1,a1,4

00002c9c <.LBB791>:
  if (neg)
    2c9c:	87ce                	mv	a5,s3
    2c9e:	3a09c563          	bltz	s3,3048 <.L1519>

00002ca2 <.L1268>:
    2ca2:	4701                	li	a4,0

00002ca4 <.L1269>:
      char c = '0' + (value % 10);
    2ca4:	03c7ea33          	rem	s4,a5,t3
    2ca8:	84ba                	mv	s1,a4
      buffer[charCount++] = c;
    2caa:	00c10a93          	addi	s5,sp,12
    2cae:	0705                	addi	a4,a4,1

00002cb0 <.LVL1400>:
    2cb0:	9aba                	add	s5,s5,a4
    2cb2:	893a                	mv	s2,a4
      value = value / 10;
    2cb4:	03c7c7b3          	div	a5,a5,t3

00002cb8 <.LVL1401>:
      char c = '0' + (value % 10);
    2cb8:	030a0a13          	addi	s4,s4,48

00002cbc <.LVL1402>:
      buffer[charCount++] = c;
    2cbc:	ff4a8fa3          	sb	s4,-1(s5)

00002cc0 <.LBE793>:
  while (value);
    2cc0:	cbf1                	beqz	a5,2d94 <.L1501>

00002cc2 <.LBB794>:
      char c = '0' + (value % 10);
    2cc2:	03c7ea33          	rem	s4,a5,t3

00002cc6 <.LVL1403>:
    2cc6:	84ba                	mv	s1,a4
      buffer[charCount++] = c;
    2cc8:	00c10a93          	addi	s5,sp,12

00002ccc <.LVL1404>:
    2ccc:	0705                	addi	a4,a4,1

00002cce <.LVL1405>:
    2cce:	9aba                	add	s5,s5,a4

00002cd0 <.LVL1406>:
      value = value / 10;
    2cd0:	03c7c7b3          	div	a5,a5,t3

00002cd4 <.LVL1407>:
      char c = '0' + (value % 10);
    2cd4:	030a0a13          	addi	s4,s4,48
      buffer[charCount++] = c;
    2cd8:	ff4a8fa3          	sb	s4,-1(s5)

00002cdc <.LBE794>:
  while (value);
    2cdc:	cfc5                	beqz	a5,2d94 <.L1501>

00002cde <.LBB795>:
      char c = '0' + (value % 10);
    2cde:	03c7ea33          	rem	s4,a5,t3
    2ce2:	84ba                	mv	s1,a4

00002ce4 <.LVL1408>:
      buffer[charCount++] = c;
    2ce4:	00c10a93          	addi	s5,sp,12

00002ce8 <.LVL1409>:
    2ce8:	00290713          	addi	a4,s2,2

00002cec <.LVL1410>:
    2cec:	9aba                	add	s5,s5,a4

00002cee <.LVL1411>:
      value = value / 10;
    2cee:	03c7c7b3          	div	a5,a5,t3

00002cf2 <.LVL1412>:
      char c = '0' + (value % 10);
    2cf2:	030a0a13          	addi	s4,s4,48
      buffer[charCount++] = c;
    2cf6:	ff4a8fa3          	sb	s4,-1(s5)

00002cfa <.LBE795>:
  while (value);
    2cfa:	cfc9                	beqz	a5,2d94 <.L1501>

00002cfc <.LBB796>:
      char c = '0' + (value % 10);
    2cfc:	03c7ea33          	rem	s4,a5,t3
    2d00:	84ba                	mv	s1,a4
      buffer[charCount++] = c;
    2d02:	00c10a93          	addi	s5,sp,12

00002d06 <.LVL1413>:
    2d06:	00390713          	addi	a4,s2,3

00002d0a <.LVL1414>:
    2d0a:	9aba                	add	s5,s5,a4

00002d0c <.LVL1415>:
      value = value / 10;
    2d0c:	03c7c7b3          	div	a5,a5,t3

00002d10 <.LVL1416>:
      char c = '0' + (value % 10);
    2d10:	030a0a13          	addi	s4,s4,48
      buffer[charCount++] = c;
    2d14:	ff4a8fa3          	sb	s4,-1(s5)

00002d18 <.LBE796>:
  while (value);
    2d18:	cfb5                	beqz	a5,2d94 <.L1501>

00002d1a <.LBB797>:
      char c = '0' + (value % 10);
    2d1a:	03c7ea33          	rem	s4,a5,t3
    2d1e:	84ba                	mv	s1,a4
      buffer[charCount++] = c;
    2d20:	00c10a93          	addi	s5,sp,12

00002d24 <.LVL1417>:
    2d24:	00490713          	addi	a4,s2,4

00002d28 <.LVL1418>:
    2d28:	9aba                	add	s5,s5,a4

00002d2a <.LVL1419>:
      value = value / 10;
    2d2a:	03c7c7b3          	div	a5,a5,t3

00002d2e <.LVL1420>:
      char c = '0' + (value % 10);
    2d2e:	030a0a13          	addi	s4,s4,48
      buffer[charCount++] = c;
    2d32:	ff4a8fa3          	sb	s4,-1(s5)

00002d36 <.LBE797>:
  while (value);
    2d36:	cfb9                	beqz	a5,2d94 <.L1501>

00002d38 <.LBB798>:
      char c = '0' + (value % 10);
    2d38:	03c7ea33          	rem	s4,a5,t3
    2d3c:	84ba                	mv	s1,a4
      buffer[charCount++] = c;
    2d3e:	00c10a93          	addi	s5,sp,12

00002d42 <.LVL1421>:
    2d42:	00590713          	addi	a4,s2,5

00002d46 <.LVL1422>:
    2d46:	9aba                	add	s5,s5,a4

00002d48 <.LVL1423>:
      value = value / 10;
    2d48:	03c7c7b3          	div	a5,a5,t3

00002d4c <.LVL1424>:
      char c = '0' + (value % 10);
    2d4c:	030a0a13          	addi	s4,s4,48
      buffer[charCount++] = c;
    2d50:	ff4a8fa3          	sb	s4,-1(s5)

00002d54 <.LBE798>:
  while (value);
    2d54:	c3a1                	beqz	a5,2d94 <.L1501>

00002d56 <.LBB799>:
      char c = '0' + (value % 10);
    2d56:	03c7ea33          	rem	s4,a5,t3
    2d5a:	84ba                	mv	s1,a4
      buffer[charCount++] = c;
    2d5c:	00c10a93          	addi	s5,sp,12

00002d60 <.LVL1425>:
    2d60:	00690713          	addi	a4,s2,6

00002d64 <.LVL1426>:
    2d64:	9aba                	add	s5,s5,a4

00002d66 <.LVL1427>:
      value = value / 10;
    2d66:	03c7c7b3          	div	a5,a5,t3

00002d6a <.LVL1428>:
      char c = '0' + (value % 10);
    2d6a:	030a0a13          	addi	s4,s4,48
      buffer[charCount++] = c;
    2d6e:	ff4a8fa3          	sb	s4,-1(s5)

00002d72 <.LBE799>:
  while (value);
    2d72:	c38d                	beqz	a5,2d94 <.L1501>

00002d74 <.LBB800>:
      char c = '0' + (value % 10);
    2d74:	03c7ea33          	rem	s4,a5,t3
    2d78:	84ba                	mv	s1,a4
      buffer[charCount++] = c;
    2d7a:	00790713          	addi	a4,s2,7

00002d7e <.LVL1430>:
    2d7e:	00c10913          	addi	s2,sp,12

00002d82 <.LVL1431>:
    2d82:	00e90ab3          	add	s5,s2,a4
      value = value / 10;
    2d86:	03c7c7b3          	div	a5,a5,t3

00002d8a <.LVL1432>:
      char c = '0' + (value % 10);
    2d8a:	030a0a13          	addi	s4,s4,48
      buffer[charCount++] = c;
    2d8e:	ff4a8fa3          	sb	s4,-1(s5)

00002d92 <.LBE800>:
  while (value);
    2d92:	fb89                	bnez	a5,2ca4 <.L1269>

00002d94 <.L1501>:
  char* p = buffer + charCount - 1;
    2d94:	00c10913          	addi	s2,sp,12
    2d98:	009907b3          	add	a5,s2,s1

00002d9c <.LBB801>:
  for (unsigned i = 0; i < charCount; ++i)
    2d9c:	41e78ab3          	sub	s5,a5,t5
    2da0:	007af913          	andi	s2,s5,7
    2da4:	06090963          	beqz	s2,2e16 <.L1270>
    2da8:	4a05                	li	s4,1
    2daa:	05490f63          	beq	s2,s4,2e08 <.L1432>
    2dae:	4a89                	li	s5,2
    2db0:	05590763          	beq	s2,s5,2dfe <.L1433>
    2db4:	4a0d                	li	s4,3
    2db6:	03490f63          	beq	s2,s4,2df4 <.L1434>
    2dba:	4a91                	li	s5,4
    2dbc:	03590763          	beq	s2,s5,2dea <.L1435>
    2dc0:	4a15                	li	s4,5
    2dc2:	01490f63          	beq	s2,s4,2de0 <.L1436>
    2dc6:	4a99                	li	s5,6
    2dc8:	01590763          	beq	s2,s5,2dd6 <.L1437>

00002dcc <.LVL1435>:
    whisperPutc(*p--);
    2dcc:	0007c903          	lbu	s2,0(a5)
    2dd0:	17fd                	addi	a5,a5,-1

00002dd2 <.LBB802>:
  *(volatile char*)(STDOUT) = c;
    2dd2:	01280023          	sb	s2,0(a6)

00002dd6 <.L1437>:
    whisperPutc(*p--);
    2dd6:	0007ca03          	lbu	s4,0(a5)
    2dda:	17fd                	addi	a5,a5,-1

00002ddc <.LBB819>:
  *(volatile char*)(STDOUT) = c;
    2ddc:	01480023          	sb	s4,0(a6)

00002de0 <.L1436>:
    whisperPutc(*p--);
    2de0:	0007ca83          	lbu	s5,0(a5)
    2de4:	17fd                	addi	a5,a5,-1

00002de6 <.LBB820>:
  *(volatile char*)(STDOUT) = c;
    2de6:	01580023          	sb	s5,0(a6)

00002dea <.L1435>:
    whisperPutc(*p--);
    2dea:	0007c903          	lbu	s2,0(a5)
    2dee:	17fd                	addi	a5,a5,-1

00002df0 <.LBB821>:
  *(volatile char*)(STDOUT) = c;
    2df0:	01280023          	sb	s2,0(a6)

00002df4 <.L1434>:
    whisperPutc(*p--);
    2df4:	0007ca03          	lbu	s4,0(a5)
    2df8:	17fd                	addi	a5,a5,-1

00002dfa <.LBB822>:
  *(volatile char*)(STDOUT) = c;
    2dfa:	01480023          	sb	s4,0(a6)

00002dfe <.L1433>:
    whisperPutc(*p--);
    2dfe:	0007ca83          	lbu	s5,0(a5)
    2e02:	17fd                	addi	a5,a5,-1

00002e04 <.LBB823>:
  *(volatile char*)(STDOUT) = c;
    2e04:	01580023          	sb	s5,0(a6)

00002e08 <.L1432>:
    whisperPutc(*p--);
    2e08:	0007c903          	lbu	s2,0(a5)
    2e0c:	17fd                	addi	a5,a5,-1

00002e0e <.LBB824>:
  *(volatile char*)(STDOUT) = c;
    2e0e:	01280023          	sb	s2,0(a6)

00002e12 <.LBE824>:
  for (unsigned i = 0; i < charCount; ++i)
    2e12:	e1e787e3          	beq	a5,t5,2c20 <.L1504>

00002e16 <.L1270>:
    whisperPutc(*p--);
    2e16:	0007ca03          	lbu	s4,0(a5)

00002e1a <.LBB825>:
    2e1a:	17e1                	addi	a5,a5,-8

00002e1c <.LBB826>:
  *(volatile char*)(STDOUT) = c;
    2e1c:	01480023          	sb	s4,0(a6)

00002e20 <.LBE826>:
    whisperPutc(*p--);
    2e20:	0077ca83          	lbu	s5,7(a5)

00002e24 <.LBB827>:
  *(volatile char*)(STDOUT) = c;
    2e24:	01580023          	sb	s5,0(a6)

00002e28 <.LBE827>:
    whisperPutc(*p--);
    2e28:	0067c903          	lbu	s2,6(a5)

00002e2c <.LBB828>:
  *(volatile char*)(STDOUT) = c;
    2e2c:	01280023          	sb	s2,0(a6)

00002e30 <.LBE828>:
    whisperPutc(*p--);
    2e30:	0057ca03          	lbu	s4,5(a5)

00002e34 <.LBB829>:
  *(volatile char*)(STDOUT) = c;
    2e34:	01480023          	sb	s4,0(a6)

00002e38 <.LBE829>:
    whisperPutc(*p--);
    2e38:	0047ca83          	lbu	s5,4(a5)

00002e3c <.LBB830>:
  *(volatile char*)(STDOUT) = c;
    2e3c:	01580023          	sb	s5,0(a6)

00002e40 <.LBE830>:
    whisperPutc(*p--);
    2e40:	0037c903          	lbu	s2,3(a5)

00002e44 <.LBB831>:
  *(volatile char*)(STDOUT) = c;
    2e44:	01280023          	sb	s2,0(a6)

00002e48 <.LBE831>:
    whisperPutc(*p--);
    2e48:	0027ca03          	lbu	s4,2(a5)

00002e4c <.LBB832>:
  *(volatile char*)(STDOUT) = c;
    2e4c:	01480023          	sb	s4,0(a6)

00002e50 <.LBE832>:
    whisperPutc(*p--);
    2e50:	0017ca83          	lbu	s5,1(a5)

00002e54 <.LBB833>:
  *(volatile char*)(STDOUT) = c;
    2e54:	01580023          	sb	s5,0(a6)

00002e58 <.LBE833>:
  for (unsigned i = 0; i < charCount; ++i)
    2e58:	fbe79fe3          	bne	a5,t5,2e16 <.L1270>
    2e5c:	b3d1                	j	2c20 <.L1504>

00002e5e <.L1265>:
  unsigned uu = value;
    2e5e:	4184                	lw	s1,0(a1)
  int charCount = 0;
    2e60:	4781                	li	a5,0

00002e62 <.LBE837>:
          count += whisperPrintInt(va_arg(ap, int), 8);
    2e62:	0591                	addi	a1,a1,4

00002e64 <.L1280>:
          char c = '0' + (uu & 7);
    2e64:	0074f913          	andi	s2,s1,7
    2e68:	873e                	mv	a4,a5
          buffer[charCount++] = c;
    2e6a:	00c10a13          	addi	s4,sp,12
    2e6e:	0785                	addi	a5,a5,1

00002e70 <.LVL1459>:
    2e70:	00fa0ab3          	add	s5,s4,a5
          char c = '0' + (uu & 7);
    2e74:	03090993          	addi	s3,s2,48
          buffer[charCount++] = c;
    2e78:	ff3a8fa3          	sb	s3,-1(s5)
          uu >>= 3;
    2e7c:	0034d913          	srli	s2,s1,0x3
          buffer[charCount++] = c;
    2e80:	8abe                	mv	s5,a5

00002e82 <.LBE839>:
      while (uu);
    2e82:	0e090563          	beqz	s2,2f6c <.L1503>

00002e86 <.LBB840>:
          char c = '0' + (uu & 7);
    2e86:	00797993          	andi	s3,s2,7
    2e8a:	873e                	mv	a4,a5
          buffer[charCount++] = c;
    2e8c:	00c10a13          	addi	s4,sp,12
    2e90:	0785                	addi	a5,a5,1
          char c = '0' + (uu & 7);
    2e92:	03098913          	addi	s2,s3,48
          buffer[charCount++] = c;
    2e96:	9a3e                	add	s4,s4,a5
    2e98:	ff2a0fa3          	sb	s2,-1(s4)
          uu >>= 3;
    2e9c:	0064d993          	srli	s3,s1,0x6

00002ea0 <.LBE840>:
      while (uu);
    2ea0:	0c098663          	beqz	s3,2f6c <.L1503>

00002ea4 <.LBB841>:
          char c = '0' + (uu & 7);
    2ea4:	0079f913          	andi	s2,s3,7
          buffer[charCount++] = c;
    2ea8:	00c10a13          	addi	s4,sp,12
    2eac:	873e                	mv	a4,a5
    2eae:	002a8793          	addi	a5,s5,2
    2eb2:	00fa09b3          	add	s3,s4,a5
          char c = '0' + (uu & 7);
    2eb6:	03090913          	addi	s2,s2,48
          buffer[charCount++] = c;
    2eba:	ff298fa3          	sb	s2,-1(s3)
          uu >>= 3;
    2ebe:	0094da13          	srli	s4,s1,0x9

00002ec2 <.LBE841>:
      while (uu);
    2ec2:	0a0a0563          	beqz	s4,2f6c <.L1503>

00002ec6 <.LBB842>:
          char c = '0' + (uu & 7);
    2ec6:	007a7993          	andi	s3,s4,7
          buffer[charCount++] = c;
    2eca:	00c10913          	addi	s2,sp,12
    2ece:	873e                	mv	a4,a5
    2ed0:	003a8793          	addi	a5,s5,3
    2ed4:	00f90a33          	add	s4,s2,a5
          char c = '0' + (uu & 7);
    2ed8:	03098993          	addi	s3,s3,48
          buffer[charCount++] = c;
    2edc:	ff3a0fa3          	sb	s3,-1(s4)
          uu >>= 3;
    2ee0:	00c4d913          	srli	s2,s1,0xc

00002ee4 <.LBE842>:
      while (uu);
    2ee4:	08090463          	beqz	s2,2f6c <.L1503>

00002ee8 <.LBB843>:
          char c = '0' + (uu & 7);
    2ee8:	00797993          	andi	s3,s2,7
    2eec:	873e                	mv	a4,a5
          buffer[charCount++] = c;
    2eee:	00c10a13          	addi	s4,sp,12
    2ef2:	004a8793          	addi	a5,s5,4
          char c = '0' + (uu & 7);
    2ef6:	03098913          	addi	s2,s3,48
          buffer[charCount++] = c;
    2efa:	9a3e                	add	s4,s4,a5
    2efc:	ff2a0fa3          	sb	s2,-1(s4)
          uu >>= 3;
    2f00:	00f4d993          	srli	s3,s1,0xf

00002f04 <.LBE843>:
      while (uu);
    2f04:	06098463          	beqz	s3,2f6c <.L1503>

00002f08 <.LBB844>:
          char c = '0' + (uu & 7);
    2f08:	0079f913          	andi	s2,s3,7
          buffer[charCount++] = c;
    2f0c:	00c10a13          	addi	s4,sp,12
    2f10:	873e                	mv	a4,a5
    2f12:	005a8793          	addi	a5,s5,5
    2f16:	00fa09b3          	add	s3,s4,a5
          char c = '0' + (uu & 7);
    2f1a:	03090913          	addi	s2,s2,48
          buffer[charCount++] = c;
    2f1e:	ff298fa3          	sb	s2,-1(s3)
          uu >>= 3;
    2f22:	0124da13          	srli	s4,s1,0x12

00002f26 <.LBE844>:
      while (uu);
    2f26:	040a0363          	beqz	s4,2f6c <.L1503>

00002f2a <.LBB845>:
          char c = '0' + (uu & 7);
    2f2a:	007a7993          	andi	s3,s4,7
          buffer[charCount++] = c;
    2f2e:	00c10913          	addi	s2,sp,12
    2f32:	873e                	mv	a4,a5
    2f34:	006a8793          	addi	a5,s5,6
    2f38:	00f90a33          	add	s4,s2,a5
          char c = '0' + (uu & 7);
    2f3c:	03098993          	addi	s3,s3,48
          buffer[charCount++] = c;
    2f40:	ff3a0fa3          	sb	s3,-1(s4)
          uu >>= 3;
    2f44:	0154d913          	srli	s2,s1,0x15

00002f48 <.LBE845>:
      while (uu);
    2f48:	02090263          	beqz	s2,2f6c <.L1503>

00002f4c <.LBB846>:
          buffer[charCount++] = c;
    2f4c:	873e                	mv	a4,a5
          char c = '0' + (uu & 7);
    2f4e:	00797a13          	andi	s4,s2,7
          buffer[charCount++] = c;
    2f52:	007a8793          	addi	a5,s5,7
    2f56:	00c10a93          	addi	s5,sp,12
    2f5a:	00fa89b3          	add	s3,s5,a5
          char c = '0' + (uu & 7);
    2f5e:	030a0913          	addi	s2,s4,48
          buffer[charCount++] = c;
    2f62:	ff298fa3          	sb	s2,-1(s3)

00002f66 <.LVL1468>:
          uu >>= 3;
    2f66:	80e1                	srli	s1,s1,0x18

00002f68 <.LBE846>:
      while (uu);
    2f68:	ee049ee3          	bnez	s1,2e64 <.L1280>

00002f6c <.L1503>:
  char* p = buffer + charCount - 1;
    2f6c:	00c10a13          	addi	s4,sp,12
    2f70:	9752                	add	a4,a4,s4

00002f72 <.LBB847>:
  for (unsigned i = 0; i < charCount; ++i)
    2f72:	41e70ab3          	sub	s5,a4,t5
    2f76:	007af993          	andi	s3,s5,7
    2f7a:	06098963          	beqz	s3,2fec <.L1281>
    2f7e:	4905                	li	s2,1
    2f80:	05298f63          	beq	s3,s2,2fde <.L1452>
    2f84:	4489                	li	s1,2
    2f86:	04998763          	beq	s3,s1,2fd4 <.L1453>
    2f8a:	4a0d                	li	s4,3
    2f8c:	03498f63          	beq	s3,s4,2fca <.L1454>
    2f90:	4a91                	li	s5,4
    2f92:	03598763          	beq	s3,s5,2fc0 <.L1455>
    2f96:	4915                	li	s2,5
    2f98:	01298f63          	beq	s3,s2,2fb6 <.L1456>
    2f9c:	4499                	li	s1,6
    2f9e:	00998763          	beq	s3,s1,2fac <.L1457>

00002fa2 <.LVL1471>:
    whisperPutc(*p--);
    2fa2:	00074983          	lbu	s3,0(a4)
    2fa6:	177d                	addi	a4,a4,-1

00002fa8 <.LBB848>:
  *(volatile char*)(STDOUT) = c;
    2fa8:	01380023          	sb	s3,0(a6)

00002fac <.L1457>:
    whisperPutc(*p--);
    2fac:	00074a03          	lbu	s4,0(a4)
    2fb0:	177d                	addi	a4,a4,-1

00002fb2 <.LBB865>:
  *(volatile char*)(STDOUT) = c;
    2fb2:	01480023          	sb	s4,0(a6)

00002fb6 <.L1456>:
    whisperPutc(*p--);
    2fb6:	00074a83          	lbu	s5,0(a4)
    2fba:	177d                	addi	a4,a4,-1

00002fbc <.LBB866>:
  *(volatile char*)(STDOUT) = c;
    2fbc:	01580023          	sb	s5,0(a6)

00002fc0 <.L1455>:
    whisperPutc(*p--);
    2fc0:	00074903          	lbu	s2,0(a4)
    2fc4:	177d                	addi	a4,a4,-1

00002fc6 <.LBB867>:
  *(volatile char*)(STDOUT) = c;
    2fc6:	01280023          	sb	s2,0(a6)

00002fca <.L1454>:
    whisperPutc(*p--);
    2fca:	00074483          	lbu	s1,0(a4)
    2fce:	177d                	addi	a4,a4,-1

00002fd0 <.LBB868>:
  *(volatile char*)(STDOUT) = c;
    2fd0:	00980023          	sb	s1,0(a6)

00002fd4 <.L1453>:
    whisperPutc(*p--);
    2fd4:	00074983          	lbu	s3,0(a4)
    2fd8:	177d                	addi	a4,a4,-1

00002fda <.LBB869>:
  *(volatile char*)(STDOUT) = c;
    2fda:	01380023          	sb	s3,0(a6)

00002fde <.L1452>:
    whisperPutc(*p--);
    2fde:	00074a03          	lbu	s4,0(a4)
    2fe2:	177d                	addi	a4,a4,-1

00002fe4 <.LBB870>:
  *(volatile char*)(STDOUT) = c;
    2fe4:	01480023          	sb	s4,0(a6)

00002fe8 <.LBE870>:
  for (unsigned i = 0; i < charCount; ++i)
    2fe8:	05e70563          	beq	a4,t5,3032 <.L1502>

00002fec <.L1281>:
    whisperPutc(*p--);
    2fec:	00074a83          	lbu	s5,0(a4)

00002ff0 <.LBB871>:
    2ff0:	1761                	addi	a4,a4,-8

00002ff2 <.LBB872>:
  *(volatile char*)(STDOUT) = c;
    2ff2:	01580023          	sb	s5,0(a6)

00002ff6 <.LBE872>:
    whisperPutc(*p--);
    2ff6:	00774903          	lbu	s2,7(a4)

00002ffa <.LBB873>:
  *(volatile char*)(STDOUT) = c;
    2ffa:	01280023          	sb	s2,0(a6)

00002ffe <.LBE873>:
    whisperPutc(*p--);
    2ffe:	00674483          	lbu	s1,6(a4)

00003002 <.LBB874>:
  *(volatile char*)(STDOUT) = c;
    3002:	00980023          	sb	s1,0(a6)

00003006 <.LBE874>:
    whisperPutc(*p--);
    3006:	00574983          	lbu	s3,5(a4)

0000300a <.LBB875>:
  *(volatile char*)(STDOUT) = c;
    300a:	01380023          	sb	s3,0(a6)

0000300e <.LBE875>:
    whisperPutc(*p--);
    300e:	00474a03          	lbu	s4,4(a4)

00003012 <.LBB876>:
  *(volatile char*)(STDOUT) = c;
    3012:	01480023          	sb	s4,0(a6)

00003016 <.LBE876>:
    whisperPutc(*p--);
    3016:	00374a83          	lbu	s5,3(a4)

0000301a <.LBB877>:
  *(volatile char*)(STDOUT) = c;
    301a:	01580023          	sb	s5,0(a6)

0000301e <.LBE877>:
    whisperPutc(*p--);
    301e:	00274903          	lbu	s2,2(a4)

00003022 <.LBB878>:
  *(volatile char*)(STDOUT) = c;
    3022:	01280023          	sb	s2,0(a6)

00003026 <.LBE878>:
    whisperPutc(*p--);
    3026:	00174483          	lbu	s1,1(a4)

0000302a <.LBB879>:
  *(volatile char*)(STDOUT) = c;
    302a:	00980023          	sb	s1,0(a6)

0000302e <.LBE879>:
  for (unsigned i = 0; i < charCount; ++i)
    302e:	fbe71fe3          	bne	a4,t5,2fec <.L1281>

00003032 <.L1502>:
          count += whisperPrintInt(va_arg(ap, int), 8);
    3032:	953e                	add	a0,a0,a5
          break;
    3034:	f86ff06f          	j	27ba <.L1253>

00003038 <.L1267>:
          whisperPutc(va_arg(ap, int));
    3038:	0005c703          	lbu	a4,0(a1)

0000303c <.LBB882>:
          ++count;
    303c:	0505                	addi	a0,a0,1

0000303e <.LVL1501>:
          whisperPutc(va_arg(ap, int));
    303e:	0591                	addi	a1,a1,4

00003040 <.LBB885>:
  *(volatile char*)(STDOUT) = c;
    3040:	00e80023          	sb	a4,0(a6)

00003044 <.LBE885>:
          break;
    3044:	f76ff06f          	j	27ba <.L1253>

00003048 <.L1519>:
      value = -value;
    3048:	413007b3          	neg	a5,s3

0000304c <.LBB834>:
  *(volatile char*)(STDOUT) = c;
    304c:	00580023          	sb	t0,0(a6)
  return c;
    3050:	b989                	j	2ca2 <.L1268>

00003052 <.L1518>:
      value = -value;
    3052:	413007b3          	neg	a5,s3

00003056 <.LBB774>:
  *(volatile char*)(STDOUT) = c;
    3056:	00580023          	sb	t0,0(a6)
  return c;
    305a:	b429                	j	2a64 <.L1272>

0000305c <.L1516>:
          while (*fp >= '0' && *fp <= '9')
    305c:	863a                	mv	a2,a4
    305e:	feeff06f          	j	284c <.L1260>

00003062 <.L1285>:
  int count = 0;  // Printed character count
    3062:	4501                	li	a0,0

00003064 <.LVL1510>:
}
    3064:	8082                	ret

00003066 <whisperPrintf>:


int
whisperPrintf(const char* format, ...)
{
    3066:	7139                	addi	sp,sp,-64
  va_list ap;

  va_start(ap, format);
    3068:	02410313          	addi	t1,sp,36
{
    306c:	d22e                	sw	a1,36(sp)
  int code = whisperPrintfImpl(format, ap);
    306e:	859a                	mv	a1,t1
{
    3070:	ce06                	sw	ra,28(sp)
    3072:	d432                	sw	a2,40(sp)
    3074:	d636                	sw	a3,44(sp)
    3076:	d83a                	sw	a4,48(sp)
    3078:	da3e                	sw	a5,52(sp)
    307a:	dc42                	sw	a6,56(sp)
    307c:	de46                	sw	a7,60(sp)
  va_start(ap, format);
    307e:	c61a                	sw	t1,12(sp)
  int code = whisperPrintfImpl(format, ap);
    3080:	eecff0ef          	jal	ra,276c <whisperPrintfImpl>

00003084 <.LVL1512>:
  va_end(ap);

  return code;
}
    3084:	40f2                	lw	ra,28(sp)
    3086:	6121                	addi	sp,sp,64
    3088:	8082                	ret

0000308a <printf>:


int
printf(const char* format, ...)
{
    308a:	7139                	addi	sp,sp,-64
  va_list ap;

  va_start(ap, format);
    308c:	02410313          	addi	t1,sp,36
{
    3090:	d22e                	sw	a1,36(sp)
  int code = whisperPrintfImpl(format, ap);
    3092:	859a                	mv	a1,t1
{
    3094:	ce06                	sw	ra,28(sp)
    3096:	d432                	sw	a2,40(sp)
    3098:	d636                	sw	a3,44(sp)
    309a:	d83a                	sw	a4,48(sp)
    309c:	da3e                	sw	a5,52(sp)
    309e:	dc42                	sw	a6,56(sp)
    30a0:	de46                	sw	a7,60(sp)
  va_start(ap, format);
    30a2:	c61a                	sw	t1,12(sp)
  int code = whisperPrintfImpl(format, ap);
    30a4:	ec8ff0ef          	jal	ra,276c <whisperPrintfImpl>

000030a8 <.LVL1712>:
  va_end(ap);

  return code;
}
    30a8:	40f2                	lw	ra,28(sp)
    30aa:	6121                	addi	sp,sp,64
    30ac:	8082                	ret

000030ae <memset>:


void* memset(void* s, int c, size_t n)
{
  asm("mv t0, a0");
    30ae:	82aa                	mv	t0,a0
  asm("add a2, a2, a0");  // end = s + n
    30b0:	962a                	add	a2,a2,a0

000030b2 <.memset_loop>:
  asm(".memset_loop: bge a0, a2, .memset_end");
    30b2:	00c55663          	bge	a0,a2,30be <.memset_end>
  asm("sb a1, 0(a0)");
    30b6:	00b50023          	sb	a1,0(a0)
  asm("addi a0, a0, 1");
    30ba:	0505                	addi	a0,a0,1
  asm("j .memset_loop");
    30bc:	bfdd                	j	30b2 <.memset_loop>

000030be <.memset_end>:
  asm(".memset_end:");
  asm("mv a0, t0");
    30be:	8516                	mv	a0,t0
  asm("jr ra");
    30c0:	8082                	ret

000030c2 <.LVL1714>:
}
    30c2:	8082                	ret

000030c4 <main>:
MAIN_RETURN_TYPE main(void) {
    30c4:	7159                	addi	sp,sp,-112

000030c6 <.LBB932>:
    30c6:	d686                	sw	ra,108(sp)

000030c8 <.LBB936>:
                                retval=seed1_volatile;
    30c8:	67c5                	lui	a5,0x11

000030ca <.LBB940>:
                                retval=seed2_volatile;
    30ca:	60c5                	lui	ra,0x11

000030cc <.LBB944>:
                                retval=seed1_volatile;
    30cc:	a6c7a683          	lw	a3,-1428(a5) # 10a6c <seed1_volatile>

000030d0 <.LBB945>:
                                retval=seed3_volatile;
    30d0:	62c1                	lui	t0,0x10

000030d2 <.LBB949>:
                                retval=seed2_volatile;
    30d2:	a680a703          	lw	a4,-1432(ra) # 10a68 <seed2_volatile>

000030d6 <.LBB950>:
                                retval=seed3_volatile;
    30d6:	0b02a303          	lw	t1,176(t0) # 100b0 <seed3_volatile>

000030da <.LBB951>:
                                retval=seed4_volatile;
    30da:	6641                	lui	a2,0x10
    30dc:	0ac62383          	lw	t2,172(a2) # 100ac <seed4_volatile>

000030e0 <.LBE951>:
        results[0].seed1=get_seed(1);
    30e0:	00d11623          	sh	a3,12(sp)
        results[0].seed2=get_seed(2);
    30e4:	00e11723          	sh	a4,14(sp)
MAIN_RETURN_TYPE main(void) {
    30e8:	d4a2                	sw	s0,104(sp)
        results[0].seed3=get_seed(3);
    30ea:	01031513          	slli	a0,t1,0x10
        if ((results[0].seed1==0) && (results[0].seed2==0) && (results[0].seed3==0)) { /* validation run */
    30ee:	4432                	lw	s0,12(sp)
MAIN_RETURN_TYPE main(void) {
    30f0:	d2a6                	sw	s1,100(sp)
        results[0].seed3=get_seed(3);
    30f2:	41055593          	srai	a1,a0,0x10

000030f6 <.LBB954>:
        p->portable_id=1;
    30f6:	4485                	li	s1,1

000030f8 <.LBE954>:
MAIN_RETURN_TYPE main(void) {
    30f8:	d0ca                	sw	s2,96(sp)
    30fa:	cece                	sw	s3,92(sp)
    30fc:	ccd2                	sw	s4,88(sp)
    30fe:	cad6                	sw	s5,84(sp)
    3100:	c8da                	sw	s6,80(sp)
    3102:	c6de                	sw	s7,76(sp)

00003104 <.LBB955>:
        p->portable_id=1;
    3104:	02910f23          	sb	s1,62(sp)

00003108 <.LBB956>:
        results[0].seed3=get_seed(3);
    3108:	00b11823          	sh	a1,16(sp)

0000310c <.LBB959>:
        results[0].iterations=get_seed_32(4);
    310c:	d41e                	sw	t2,40(sp)
        results[0].execs=ID_LIST;
    310e:	d626                	sw	s1,44(sp)
        if ((results[0].seed1==0) && (results[0].seed2==0) && (results[0].seed3==0)) { /* validation run */
    3110:	72041a63          	bnez	s0,3844 <.L1523>
    3114:	74058163          	beqz	a1,3856 <.L1691>

00003118 <.L1524>:
                        results[i].list=core_list_init(results[0].size,results[i].memblock[1],results[i].seed1);
    3118:	00c11603          	lh	a2,12(sp)
        results[0].memblock[0]=(void *)static_memblk;
    311c:	69c1                	lui	s3,0x10
    311e:	28898a13          	addi	s4,s3,648 # 10288 <static_memblk>
                        results[i].list=core_list_init(results[0].size,results[i].memblock[1],results[i].seed1);
    3122:	28898593          	addi	a1,s3,648
    3126:	7d000513          	li	a0,2000
                results[i].size=results[i].size/num_algorithms;
    312a:	7d000a93          	li	s5,2000
        results[0].memblock[0]=(void *)static_memblk;
    312e:	ca52                	sw	s4,20(sp)
        results[0].err=0;
    3130:	02011e23          	sh	zero,60(sp)

00003134 <.LVL1517>:
                results[i].size=results[i].size/num_algorithms;
    3134:	d256                	sw	s5,36(sp)

00003136 <.LBB960>:
                                results[ctx].memblock[i+1]=(char *)(results[ctx].memblock[0])+results[0].size*j;
    3136:	cc52                	sw	s4,24(sp)

00003138 <.LBE960>:
                        results[i].list=core_list_init(results[0].size,results[i].memblock[1],results[i].seed1);
    3138:	81efe0ef          	jal	ra,1156 <core_list_init>

0000313c <.LVL1520>:
        if (results[0].iterations==0) {
    313c:	5b22                	lw	s6,40(sp)
                        results[i].list=core_list_init(results[0].size,results[i].memblock[1],results[i].seed1);
    313e:	d82a                	sw	a0,48(sp)

00003140 <.LVL1521>:
        if (results[0].iterations==0) {
    3140:	6a0b1f63          	bnez	s6,37fe <.L1692>

00003144 <.LBB961>:
                   crc |= 0x8000;
    3144:	7be9                	lui	s7,0xffffa
    3146:	4905                	li	s2,1
    3148:	69c5                	lui	s3,0x11
    314a:	6ac5                	lui	s5,0x11
    314c:	0064                	addi	s1,sp,12
    314e:	0b85                	addi	s7,s7,1

00003150 <.LBE962>:
                while (secs_passed < (secs_ret)1) {
    3150:	3e700b13          	li	s6,999

00003154 <.L1527>:
                        results[0].iterations*=10;
    3154:	00291e13          	slli	t3,s2,0x2
    3158:	012e0eb3          	add	t4,t3,s2
    315c:	001e9913          	slli	s2,t4,0x1
    3160:	d44a                	sw	s2,40(sp)

00003162 <.LBB986>:
        asm volatile ("csrr %0,mcycle"  : "=r" (mcyclel) );
    3162:	b0002a73          	csrr	s4,mcycle

00003166 <.LVL1524>:
        start_time_val = mcyclel;
    3166:	a749a023          	sw	s4,-1440(s3) # 10a60 <start_time_val>

0000316a <.LBB988>:
        res->crc=0;
    316a:	da02                	sw	zero,52(sp)
    316c:	dc02                	sw	zero,56(sp)

0000316e <.LVL1526>:
        for (i=0; i<iterations; i++) {
    316e:	4401                	li	s0,0
    3170:	42090163          	beqz	s2,3592 <.L1565>

00003174 <.L1526>:
                crc=core_bench_list(res,1);
    3174:	4585                	li	a1,1
    3176:	8526                	mv	a0,s1
    3178:	eb0fd0ef          	jal	ra,828 <core_bench_list>

0000317c <.LVL1528>:
                res->crc=crcu16(crc,res->crc);
    317c:	03415f03          	lhu	t5,52(sp)

00003180 <.LBB975>:
        crc=crcu8( (ee_u8) (newval)                             ,crc);
    3180:	0ff57f93          	andi	t6,a0,255

00003184 <.LBB969>:
                data >>= 1;
    3184:	001fd713          	srli	a4,t6,0x1

00003188 <.LVL1531>:
                x16 = (ee_u8)((data & 1) ^ ((ee_u8)crc & 1));
    3188:	00af47b3          	xor	a5,t5,a0
                if (x16 == 1)
    318c:	0017f693          	andi	a3,a5,1
                crc >>= 1;
    3190:	001f5313          	srli	t1,t5,0x1
                if (x16 == 1)
    3194:	c699                	beqz	a3,31a2 <.L1530>

00003196 <.LVL1532>:
                   crc |= 0x8000;
    3196:	017340b3          	xor	ra,t1,s7
    319a:	01009293          	slli	t0,ra,0x10
    319e:	0102d313          	srli	t1,t0,0x10

000031a2 <.L1530>:
                x16 = (ee_u8)((data & 1) ^ ((ee_u8)crc & 1));
    31a2:	00e34633          	xor	a2,t1,a4
                if (x16 == 1)
    31a6:	00167393          	andi	t2,a2,1
                data >>= 1;
    31aa:	002fd593          	srli	a1,t6,0x2

000031ae <.LVL1534>:
                if (x16 == 1)
    31ae:	00135e13          	srli	t3,t1,0x1
    31b2:	00038863          	beqz	t2,31c2 <.L1531>

000031b6 <.LVL1535>:
                   crc |= 0x8000;
    31b6:	017e4833          	xor	a6,t3,s7

000031ba <.LVL1536>:
    31ba:	01081893          	slli	a7,a6,0x10
    31be:	0108de13          	srli	t3,a7,0x10

000031c2 <.L1531>:
                x16 = (ee_u8)((data & 1) ^ ((ee_u8)crc & 1));
    31c2:	00be4eb3          	xor	t4,t3,a1
                if (x16 == 1)
    31c6:	001eff13          	andi	t5,t4,1

000031ca <.LVL1538>:
                data >>= 1;
    31ca:	003fd693          	srli	a3,t6,0x3

000031ce <.LVL1539>:
                if (x16 == 1)
    31ce:	001e5093          	srli	ra,t3,0x1
    31d2:	000f0863          	beqz	t5,31e2 <.L1532>

000031d6 <.LVL1540>:
                   crc |= 0x8000;
    31d6:	0170c7b3          	xor	a5,ra,s7

000031da <.LVL1541>:
    31da:	01079713          	slli	a4,a5,0x10
    31de:	01075093          	srli	ra,a4,0x10

000031e2 <.L1532>:
                x16 = (ee_u8)((data & 1) ^ ((ee_u8)crc & 1));
    31e2:	00d0c2b3          	xor	t0,ra,a3
                if (x16 == 1)
    31e6:	0012f313          	andi	t1,t0,1
                data >>= 1;
    31ea:	004fd613          	srli	a2,t6,0x4

000031ee <.LVL1543>:
                if (x16 == 1)
    31ee:	0010d813          	srli	a6,ra,0x1
    31f2:	00030863          	beqz	t1,3202 <.L1533>

000031f6 <.LVL1544>:
                   crc |= 0x8000;
    31f6:	017843b3          	xor	t2,a6,s7

000031fa <.LVL1545>:
    31fa:	01039593          	slli	a1,t2,0x10
    31fe:	0105d813          	srli	a6,a1,0x10

00003202 <.L1533>:
                x16 = (ee_u8)((data & 1) ^ ((ee_u8)crc & 1));
    3202:	00c848b3          	xor	a7,a6,a2
                if (x16 == 1)
    3206:	0018fe13          	andi	t3,a7,1
                data >>= 1;
    320a:	005fde93          	srli	t4,t6,0x5

0000320e <.LVL1547>:
                if (x16 == 1)
    320e:	00185793          	srli	a5,a6,0x1
    3212:	000e0863          	beqz	t3,3222 <.L1534>

00003216 <.LVL1548>:
                   crc |= 0x8000;
    3216:	0177cf33          	xor	t5,a5,s7

0000321a <.LVL1549>:
    321a:	010f1693          	slli	a3,t5,0x10
    321e:	0106d793          	srli	a5,a3,0x10

00003222 <.L1534>:
                x16 = (ee_u8)((data & 1) ^ ((ee_u8)crc & 1));
    3222:	01d7c733          	xor	a4,a5,t4
                if (x16 == 1)
    3226:	00177093          	andi	ra,a4,1
                data >>= 1;
    322a:	006fd293          	srli	t0,t6,0x6

0000322e <.LVL1551>:
                if (x16 == 1)
    322e:	0017d393          	srli	t2,a5,0x1
    3232:	00008863          	beqz	ra,3242 <.L1535>

00003236 <.LVL1552>:
                   crc |= 0x8000;
    3236:	0173c333          	xor	t1,t2,s7

0000323a <.LVL1553>:
    323a:	01031613          	slli	a2,t1,0x10
    323e:	01065393          	srli	t2,a2,0x10

00003242 <.L1535>:
                x16 = (ee_u8)((data & 1) ^ ((ee_u8)crc & 1));
    3242:	0053c5b3          	xor	a1,t2,t0
                if (x16 == 1)
    3246:	0015f813          	andi	a6,a1,1
                data >>= 1;
    324a:	007fdf93          	srli	t6,t6,0x7

0000324e <.LVL1555>:
                if (x16 == 1)
    324e:	0013de93          	srli	t4,t2,0x1
    3252:	00080863          	beqz	a6,3262 <.L1536>

00003256 <.LVL1556>:
                   crc |= 0x8000;
    3256:	017ec8b3          	xor	a7,t4,s7

0000325a <.LVL1557>:
    325a:	01089e13          	slli	t3,a7,0x10
    325e:	010e5e93          	srli	t4,t3,0x10

00003262 <.L1536>:
                if (x16 == 1)
    3262:	001eff13          	andi	t5,t4,1
    3266:	001ed093          	srli	ra,t4,0x1
    326a:	01ff0863          	beq	t5,t6,327a <.L1537>

0000326e <.LVL1559>:
                   crc |= 0x8000;
    326e:	0170c6b3          	xor	a3,ra,s7

00003272 <.LVL1560>:
    3272:	01069793          	slli	a5,a3,0x10
    3276:	0107d093          	srli	ra,a5,0x10

0000327a <.L1537>:
        crc=crcu8( (ee_u8) ((newval)>>8)        ,crc);
    327a:	8121                	srli	a0,a0,0x8

0000327c <.LBB970>:
                x16 = (ee_u8)((data & 1) ^ ((ee_u8)crc & 1));
    327c:	001542b3          	xor	t0,a0,ra

00003280 <.LBE970>:
        crc=crcu8( (ee_u8) ((newval)>>8)        ,crc);
    3280:	0ff57713          	andi	a4,a0,255

00003284 <.LBB973>:
                if (x16 == 1)
    3284:	0012f313          	andi	t1,t0,1
                data >>= 1;
    3288:	00175613          	srli	a2,a4,0x1

0000328c <.LVL1564>:
                if (x16 == 1)
    328c:	0010d813          	srli	a6,ra,0x1
    3290:	00030863          	beqz	t1,32a0 <.L1538>

00003294 <.LVL1565>:
                   crc |= 0x8000;
    3294:	017843b3          	xor	t2,a6,s7

00003298 <.LVL1566>:
    3298:	01039593          	slli	a1,t2,0x10
    329c:	0105d813          	srli	a6,a1,0x10

000032a0 <.L1538>:
                x16 = (ee_u8)((data & 1) ^ ((ee_u8)crc & 1));
    32a0:	00c84fb3          	xor	t6,a6,a2
                if (x16 == 1)
    32a4:	001ff893          	andi	a7,t6,1
                data >>= 1;
    32a8:	00275e13          	srli	t3,a4,0x2

000032ac <.LVL1568>:
                if (x16 == 1)
    32ac:	00185793          	srli	a5,a6,0x1
    32b0:	00088863          	beqz	a7,32c0 <.L1539>

000032b4 <.LVL1569>:
                   crc |= 0x8000;
    32b4:	0177ceb3          	xor	t4,a5,s7

000032b8 <.LVL1570>:
    32b8:	010e9f13          	slli	t5,t4,0x10
    32bc:	010f5793          	srli	a5,t5,0x10

000032c0 <.L1539>:
                x16 = (ee_u8)((data & 1) ^ ((ee_u8)crc & 1));
    32c0:	01c7c6b3          	xor	a3,a5,t3
                if (x16 == 1)
    32c4:	0016f093          	andi	ra,a3,1
                data >>= 1;
    32c8:	00375513          	srli	a0,a4,0x3

000032cc <.LVL1572>:
                if (x16 == 1)
    32cc:	0017d393          	srli	t2,a5,0x1
    32d0:	00008863          	beqz	ra,32e0 <.L1540>

000032d4 <.LVL1573>:
                   crc |= 0x8000;
    32d4:	0173c2b3          	xor	t0,t2,s7

000032d8 <.LVL1574>:
    32d8:	01029313          	slli	t1,t0,0x10
    32dc:	01035393          	srli	t2,t1,0x10

000032e0 <.L1540>:
                x16 = (ee_u8)((data & 1) ^ ((ee_u8)crc & 1));
    32e0:	00a3c633          	xor	a2,t2,a0
                if (x16 == 1)
    32e4:	00167593          	andi	a1,a2,1
                data >>= 1;
    32e8:	00475813          	srli	a6,a4,0x4

000032ec <.LVL1576>:
                if (x16 == 1)
    32ec:	0013de13          	srli	t3,t2,0x1
    32f0:	c599                	beqz	a1,32fe <.L1541>

000032f2 <.LVL1577>:
                   crc |= 0x8000;
    32f2:	017e4fb3          	xor	t6,t3,s7

000032f6 <.LVL1578>:
    32f6:	010f9893          	slli	a7,t6,0x10
    32fa:	0108de13          	srli	t3,a7,0x10

000032fe <.L1541>:
                x16 = (ee_u8)((data & 1) ^ ((ee_u8)crc & 1));
    32fe:	010e4eb3          	xor	t4,t3,a6
                if (x16 == 1)
    3302:	001eff13          	andi	t5,t4,1
                data >>= 1;
    3306:	00575693          	srli	a3,a4,0x5

0000330a <.LVL1580>:
                if (x16 == 1)
    330a:	001e5513          	srli	a0,t3,0x1
    330e:	000f0863          	beqz	t5,331e <.L1542>

00003312 <.LVL1581>:
                   crc |= 0x8000;
    3312:	017547b3          	xor	a5,a0,s7

00003316 <.LVL1582>:
    3316:	01079093          	slli	ra,a5,0x10
    331a:	0100d513          	srli	a0,ra,0x10

0000331e <.L1542>:
                x16 = (ee_u8)((data & 1) ^ ((ee_u8)crc & 1));
    331e:	00d542b3          	xor	t0,a0,a3
                if (x16 == 1)
    3322:	0012f313          	andi	t1,t0,1
                data >>= 1;
    3326:	00675393          	srli	t2,a4,0x6

0000332a <.LVL1584>:
                if (x16 == 1)
    332a:	00155813          	srli	a6,a0,0x1
    332e:	00030863          	beqz	t1,333e <.L1543>

00003332 <.LVL1585>:
                   crc |= 0x8000;
    3332:	01784633          	xor	a2,a6,s7

00003336 <.LVL1586>:
    3336:	01061593          	slli	a1,a2,0x10
    333a:	0105d813          	srli	a6,a1,0x10

0000333e <.L1543>:
                x16 = (ee_u8)((data & 1) ^ ((ee_u8)crc & 1));
    333e:	00784fb3          	xor	t6,a6,t2
                if (x16 == 1)
    3342:	001ff893          	andi	a7,t6,1
                data >>= 1;
    3346:	831d                	srli	a4,a4,0x7

00003348 <.LVL1588>:
                if (x16 == 1)
    3348:	00185f13          	srli	t5,a6,0x1
    334c:	00088863          	beqz	a7,335c <.L1544>

00003350 <.LVL1589>:
                   crc |= 0x8000;
    3350:	017f4e33          	xor	t3,t5,s7

00003354 <.LVL1590>:
    3354:	010e1e93          	slli	t4,t3,0x10
    3358:	010edf13          	srli	t5,t4,0x10

0000335c <.L1544>:
                x16 = (ee_u8)((data & 1) ^ ((ee_u8)crc & 1));
    335c:	00ef46b3          	xor	a3,t5,a4
                if (x16 == 1)
    3360:	0016f093          	andi	ra,a3,1
    3364:	001f5293          	srli	t0,t5,0x1
    3368:	00008863          	beqz	ra,3378 <.L1545>

0000336c <.LVL1592>:
                   crc |= 0x8000;
    336c:	0172c7b3          	xor	a5,t0,s7
    3370:	01079513          	slli	a0,a5,0x10
    3374:	01055293          	srli	t0,a0,0x10

00003378 <.L1545>:
                crc=core_bench_list(res,-1);
    3378:	55fd                	li	a1,-1
    337a:	8526                	mv	a0,s1
                res->crc=crcu16(crc,res->crc);
    337c:	02511a23          	sh	t0,52(sp)
                crc=core_bench_list(res,-1);
    3380:	ca8fd0ef          	jal	ra,828 <core_bench_list>

00003384 <.LVL1594>:
                res->crc=crcu16(crc,res->crc);
    3384:	03415303          	lhu	t1,52(sp)

00003388 <.LBB976>:
        crc=crcu8( (ee_u8) (newval)                             ,crc);
    3388:	0ff57393          	andi	t2,a0,255

0000338c <.LBB978>:
                data >>= 1;
    338c:	0013d813          	srli	a6,t2,0x1

00003390 <.LVL1597>:
                x16 = (ee_u8)((data & 1) ^ ((ee_u8)crc & 1));
    3390:	00a34633          	xor	a2,t1,a0
                if (x16 == 1)
    3394:	00167593          	andi	a1,a2,1
                crc >>= 1;
    3398:	00135e13          	srli	t3,t1,0x1
                if (x16 == 1)
    339c:	c599                	beqz	a1,33aa <.L1547>

0000339e <.LVL1598>:
                   crc |= 0x8000;
    339e:	017e4fb3          	xor	t6,t3,s7
    33a2:	010f9893          	slli	a7,t6,0x10
    33a6:	0108de13          	srli	t3,a7,0x10

000033aa <.L1547>:
                x16 = (ee_u8)((data & 1) ^ ((ee_u8)crc & 1));
    33aa:	010e4733          	xor	a4,t3,a6
                if (x16 == 1)
    33ae:	00177e93          	andi	t4,a4,1
                data >>= 1;
    33b2:	0023df13          	srli	t5,t2,0x2

000033b6 <.LVL1600>:
                if (x16 == 1)
    33b6:	001e5793          	srli	a5,t3,0x1
    33ba:	000e8863          	beqz	t4,33ca <.L1548>

000033be <.LVL1601>:
                   crc |= 0x8000;
    33be:	0177c6b3          	xor	a3,a5,s7

000033c2 <.LVL1602>:
    33c2:	01069093          	slli	ra,a3,0x10
    33c6:	0100d793          	srli	a5,ra,0x10

000033ca <.L1548>:
                x16 = (ee_u8)((data & 1) ^ ((ee_u8)crc & 1));
    33ca:	01e7c2b3          	xor	t0,a5,t5
                if (x16 == 1)
    33ce:	0012f313          	andi	t1,t0,1

000033d2 <.LVL1604>:
                data >>= 1;
    33d2:	0033d613          	srli	a2,t2,0x3

000033d6 <.LVL1605>:
                if (x16 == 1)
    33d6:	0017df93          	srli	t6,a5,0x1
    33da:	00030863          	beqz	t1,33ea <.L1549>

000033de <.LVL1606>:
                   crc |= 0x8000;
    33de:	017fc5b3          	xor	a1,t6,s7

000033e2 <.LVL1607>:
    33e2:	01059813          	slli	a6,a1,0x10
    33e6:	01085f93          	srli	t6,a6,0x10

000033ea <.L1549>:
                x16 = (ee_u8)((data & 1) ^ ((ee_u8)crc & 1));
    33ea:	00cfc8b3          	xor	a7,t6,a2
                if (x16 == 1)
    33ee:	0018fe13          	andi	t3,a7,1
                data >>= 1;
    33f2:	0043d713          	srli	a4,t2,0x4

000033f6 <.LVL1609>:
                if (x16 == 1)
    33f6:	001fd693          	srli	a3,t6,0x1
    33fa:	000e0863          	beqz	t3,340a <.L1550>

000033fe <.LVL1610>:
                   crc |= 0x8000;
    33fe:	0176ceb3          	xor	t4,a3,s7

00003402 <.LVL1611>:
    3402:	010e9f13          	slli	t5,t4,0x10
    3406:	010f5693          	srli	a3,t5,0x10

0000340a <.L1550>:
                x16 = (ee_u8)((data & 1) ^ ((ee_u8)crc & 1));
    340a:	00e6c0b3          	xor	ra,a3,a4
                if (x16 == 1)
    340e:	0010f293          	andi	t0,ra,1
                data >>= 1;
    3412:	0053d313          	srli	t1,t2,0x5

00003416 <.LVL1613>:
                if (x16 == 1)
    3416:	0016d593          	srli	a1,a3,0x1
    341a:	00028863          	beqz	t0,342a <.L1551>

0000341e <.LVL1614>:
                   crc |= 0x8000;
    341e:	0175c7b3          	xor	a5,a1,s7

00003422 <.LVL1615>:
    3422:	01079613          	slli	a2,a5,0x10
    3426:	01065593          	srli	a1,a2,0x10

0000342a <.L1551>:
                x16 = (ee_u8)((data & 1) ^ ((ee_u8)crc & 1));
    342a:	0065c833          	xor	a6,a1,t1
                if (x16 == 1)
    342e:	00187f93          	andi	t6,a6,1
                data >>= 1;
    3432:	0063d893          	srli	a7,t2,0x6

00003436 <.LVL1617>:
                if (x16 == 1)
    3436:	0015de93          	srli	t4,a1,0x1
    343a:	000f8863          	beqz	t6,344a <.L1552>

0000343e <.LVL1618>:
                   crc |= 0x8000;
    343e:	017ece33          	xor	t3,t4,s7

00003442 <.LVL1619>:
    3442:	010e1713          	slli	a4,t3,0x10
    3446:	01075e93          	srli	t4,a4,0x10

0000344a <.L1552>:
                x16 = (ee_u8)((data & 1) ^ ((ee_u8)crc & 1));
    344a:	011ecf33          	xor	t5,t4,a7
                if (x16 == 1)
    344e:	001f7093          	andi	ra,t5,1
                data >>= 1;
    3452:	0073d393          	srli	t2,t2,0x7

00003456 <.LVL1621>:
                if (x16 == 1)
    3456:	001ed313          	srli	t1,t4,0x1
    345a:	00008863          	beqz	ra,346a <.L1553>

0000345e <.LVL1622>:
                   crc |= 0x8000;
    345e:	017346b3          	xor	a3,t1,s7

00003462 <.LVL1623>:
    3462:	01069293          	slli	t0,a3,0x10
    3466:	0102d313          	srli	t1,t0,0x10

0000346a <.L1553>:
                if (x16 == 1)
    346a:	00137613          	andi	a2,t1,1
    346e:	00135813          	srli	a6,t1,0x1
    3472:	00760863          	beq	a2,t2,3482 <.L1554>

00003476 <.LVL1625>:
                   crc |= 0x8000;
    3476:	017847b3          	xor	a5,a6,s7

0000347a <.LVL1626>:
    347a:	01079593          	slli	a1,a5,0x10
    347e:	0105d813          	srli	a6,a1,0x10

00003482 <.L1554>:
        crc=crcu8( (ee_u8) ((newval)>>8)        ,crc);
    3482:	8121                	srli	a0,a0,0x8

00003484 <.LBB980>:
                x16 = (ee_u8)((data & 1) ^ ((ee_u8)crc & 1));
    3484:	01054fb3          	xor	t6,a0,a6

00003488 <.LBE980>:
        crc=crcu8( (ee_u8) ((newval)>>8)        ,crc);
    3488:	0ff57893          	andi	a7,a0,255

0000348c <.LBB983>:
                if (x16 == 1)
    348c:	001ffe13          	andi	t3,t6,1
                data >>= 1;
    3490:	0018d713          	srli	a4,a7,0x1

00003494 <.LVL1630>:
                if (x16 == 1)
    3494:	00185093          	srli	ra,a6,0x1
    3498:	000e0863          	beqz	t3,34a8 <.L1555>

0000349c <.LVL1631>:
                   crc |= 0x8000;
    349c:	0170ceb3          	xor	t4,ra,s7

000034a0 <.LVL1632>:
    34a0:	010e9f13          	slli	t5,t4,0x10
    34a4:	010f5093          	srli	ra,t5,0x10

000034a8 <.L1555>:
                x16 = (ee_u8)((data & 1) ^ ((ee_u8)crc & 1));
    34a8:	00e0c3b3          	xor	t2,ra,a4
                if (x16 == 1)
    34ac:	0013f293          	andi	t0,t2,1
                data >>= 1;
    34b0:	0028d693          	srli	a3,a7,0x2

000034b4 <.LVL1634>:
                if (x16 == 1)
    34b4:	0010d793          	srli	a5,ra,0x1
    34b8:	00028863          	beqz	t0,34c8 <.L1556>

000034bc <.LVL1635>:
                   crc |= 0x8000;
    34bc:	0177c333          	xor	t1,a5,s7

000034c0 <.LVL1636>:
    34c0:	01031613          	slli	a2,t1,0x10
    34c4:	01065793          	srli	a5,a2,0x10

000034c8 <.L1556>:
                x16 = (ee_u8)((data & 1) ^ ((ee_u8)crc & 1));
    34c8:	00d7c5b3          	xor	a1,a5,a3
                if (x16 == 1)
    34cc:	0015f813          	andi	a6,a1,1
                data >>= 1;
    34d0:	0038d513          	srli	a0,a7,0x3

000034d4 <.LVL1638>:
                if (x16 == 1)
    34d4:	0017d713          	srli	a4,a5,0x1
    34d8:	00080863          	beqz	a6,34e8 <.L1557>

000034dc <.LVL1639>:
                   crc |= 0x8000;
    34dc:	01774fb3          	xor	t6,a4,s7

000034e0 <.LVL1640>:
    34e0:	010f9e13          	slli	t3,t6,0x10
    34e4:	010e5713          	srli	a4,t3,0x10

000034e8 <.L1557>:
                x16 = (ee_u8)((data & 1) ^ ((ee_u8)crc & 1));
    34e8:	00a74eb3          	xor	t4,a4,a0
                if (x16 == 1)
    34ec:	001eff13          	andi	t5,t4,1
                data >>= 1;
    34f0:	0048d093          	srli	ra,a7,0x4

000034f4 <.LVL1642>:
                if (x16 == 1)
    34f4:	00175313          	srli	t1,a4,0x1
    34f8:	000f0863          	beqz	t5,3508 <.L1558>

000034fc <.LVL1643>:
                   crc |= 0x8000;
    34fc:	017343b3          	xor	t2,t1,s7

00003500 <.LVL1644>:
    3500:	01039293          	slli	t0,t2,0x10
    3504:	0102d313          	srli	t1,t0,0x10

00003508 <.L1558>:
                x16 = (ee_u8)((data & 1) ^ ((ee_u8)crc & 1));
    3508:	001346b3          	xor	a3,t1,ra
                if (x16 == 1)
    350c:	0016f593          	andi	a1,a3,1
                data >>= 1;
    3510:	0058d613          	srli	a2,a7,0x5

00003514 <.LVL1646>:
                if (x16 == 1)
    3514:	00135513          	srli	a0,t1,0x1
    3518:	c599                	beqz	a1,3526 <.L1559>

0000351a <.LVL1647>:
                   crc |= 0x8000;
    351a:	017547b3          	xor	a5,a0,s7

0000351e <.LVL1648>:
    351e:	01079813          	slli	a6,a5,0x10
    3522:	01085513          	srli	a0,a6,0x10

00003526 <.L1559>:
                x16 = (ee_u8)((data & 1) ^ ((ee_u8)crc & 1));
    3526:	00c54fb3          	xor	t6,a0,a2
                if (x16 == 1)
    352a:	001ffe13          	andi	t3,t6,1
                data >>= 1;
    352e:	0068d713          	srli	a4,a7,0x6

00003532 <.LVL1650>:
                if (x16 == 1)
    3532:	00155093          	srli	ra,a0,0x1
    3536:	000e0863          	beqz	t3,3546 <.L1560>

0000353a <.LVL1651>:
                   crc |= 0x8000;
    353a:	0170ceb3          	xor	t4,ra,s7

0000353e <.LVL1652>:
    353e:	010e9f13          	slli	t5,t4,0x10
    3542:	010f5093          	srli	ra,t5,0x10

00003546 <.L1560>:
                x16 = (ee_u8)((data & 1) ^ ((ee_u8)crc & 1));
    3546:	00e0c3b3          	xor	t2,ra,a4
                if (x16 == 1)
    354a:	0013f293          	andi	t0,t2,1
                data >>= 1;
    354e:	0078d893          	srli	a7,a7,0x7

00003552 <.LVL1654>:
                if (x16 == 1)
    3552:	0010d593          	srli	a1,ra,0x1
    3556:	00028863          	beqz	t0,3566 <.L1561>

0000355a <.LVL1655>:
                   crc |= 0x8000;
    355a:	0175c333          	xor	t1,a1,s7

0000355e <.LVL1656>:
    355e:	01031693          	slli	a3,t1,0x10
    3562:	0106d593          	srli	a1,a3,0x10

00003566 <.L1561>:
                x16 = (ee_u8)((data & 1) ^ ((ee_u8)crc & 1));
    3566:	0115c633          	xor	a2,a1,a7
                if (x16 == 1)
    356a:	00167813          	andi	a6,a2,1
    356e:	0015df93          	srli	t6,a1,0x1
    3572:	00080863          	beqz	a6,3582 <.L1562>

00003576 <.LVL1658>:
                   crc |= 0x8000;
    3576:	017fc7b3          	xor	a5,t6,s7
    357a:	01079513          	slli	a0,a5,0x10
    357e:	01055f93          	srli	t6,a0,0x10

00003582 <.L1562>:
                res->crc=crcu16(crc,res->crc);
    3582:	03f11a23          	sh	t6,52(sp)
                if (i==0) res->crclist=res->crc;
    3586:	26040863          	beqz	s0,37f6 <.L1693>
        for (i=0; i<iterations; i++) {
    358a:	0405                	addi	s0,s0,1
    358c:	be8914e3          	bne	s2,s0,3174 <.L1526>
    3590:	5922                	lw	s2,40(sp)

00003592 <.L1565>:
        asm volatile ("csrr %0,mcycle"  : "=r" (mcyclel) );
    3592:	b0002e73          	csrr	t3,mcycle

00003596 <.LVL1662>:
        stop_time_val = mcyclel;
    3596:	a5caae23          	sw	t3,-1444(s5) # 10a5c <stop_time_val>

0000359a <.LBB991>:
        CORE_TICKS elapsed=(CORE_TICKS)(MYTIMEDIFF(stop_time_val, start_time_val));
    359a:	414e0a33          	sub	s4,t3,s4

0000359e <.LBB993>:
                while (secs_passed < (secs_ret)1) {
    359e:	bb4b7be3          	bgeu	s6,s4,3154 <.L1527>

000035a2 <.LBB996>:
        secs_ret retval=((secs_ret)ticks) / (secs_ret)EE_TICKS_PER_SEC;
    35a2:	3e800b93          	li	s7,1000
    35a6:	037a5b33          	divu	s6,s4,s7

000035aa <.LBE996>:
                results[0].iterations*=1+10/divisor;
    35aa:	4729                	li	a4,10
    35ac:	03675eb3          	divu	t4,a4,s6
    35b0:	001e8f13          	addi	t5,t4,1
    35b4:	03e900b3          	mul	ra,s2,t5
    35b8:	d406                	sw	ra,40(sp)

000035ba <.L1525>:
        asm volatile ("csrr %0,mcycle"  : "=r" (mcyclel) );
    35ba:	b00023f3          	csrr	t2,mcycle

000035be <.LVL1668>:
        start_time_val = mcyclel;
    35be:	a679a023          	sw	t2,-1440(s3)

000035c2 <__perf_start>:
        iterate(&results[0]);
    35c2:	8526                	mv	a0,s1
    35c4:	a36fe0ef          	jal	ra,17fa <iterate>

000035c8 <__perf_end>:
        asm volatile ("csrr %0,mcycle"  : "=r" (mcyclel) );
    35c8:	b00024f3          	csrr	s1,mcycle

000035cc <.LBB1003>:
        CORE_TICKS elapsed=(CORE_TICKS)(MYTIMEDIFF(stop_time_val, start_time_val));
    35cc:	a609a983          	lw	s3,-1440(s3)

000035d0 <.LBE1003>:
        ee_printf("CoreMark Size    : %u\n",(ee_u32)results[0].size);
    35d0:	5592                	lw	a1,36(sp)
    35d2:	62c1                	lui	t0,0x10
    35d4:	0b428513          	addi	a0,t0,180 # 100b4 <.LC0>

000035d8 <.LBB1007>:
        CORE_TICKS elapsed=(CORE_TICKS)(MYTIMEDIFF(stop_time_val, start_time_val));
    35d8:	41348433          	sub	s0,s1,s3

000035dc <.LBB1008>:
        stop_time_val = mcyclel;
    35dc:	a49aae23          	sw	s1,-1444(s5)

000035e0 <.LBB1009>:
        ee_printf("CoreMark Size    : %u\n",(ee_u32)results[0].size);
    35e0:	3459                	jal	3066 <whisperPrintf>

000035e2 <.LVL1673>:
        ee_printf("Total ticks      : %u\n",(ee_u32)total_time);
    35e2:	6ac1                	lui	s5,0x10
    35e4:	85a2                	mv	a1,s0
    35e6:	0cca8513          	addi	a0,s5,204 # 100cc <.LC1>

000035ea <.LBB1010>:
        secs_ret retval=((secs_ret)ticks) / (secs_ret)EE_TICKS_PER_SEC;
    35ea:	3e800a13          	li	s4,1000

000035ee <.LBE1010>:
        ee_printf("Total ticks      : %u\n",(ee_u32)total_time);
    35ee:	3ca5                	jal	3066 <whisperPrintf>

000035f0 <.LBB1013>:
        secs_ret retval=((secs_ret)ticks) / (secs_ret)EE_TICKS_PER_SEC;
    35f0:	03445bb3          	divu	s7,s0,s4

000035f4 <.LBE1013>:
        ee_printf("Total time (secs): %d\n",time_in_secs(total_time));
    35f4:	68c1                	lui	a7,0x10
    35f6:	0e488513          	addi	a0,a7,228 # 100e4 <.LC2>
                ee_printf("Iterat/Sec/MHz   : %d.%d\n",1000*default_num_contexts*results[0].iterations/time_in_secs(total_time),
    35fa:	6941                	lui	s2,0x10
        ee_printf("Total time (secs): %d\n",time_in_secs(total_time));
    35fc:	85de                	mv	a1,s7
    35fe:	34a5                	jal	3066 <whisperPrintf>

00003600 <.LVL1676>:
        if (time_in_secs(total_time) > 0)
    3600:	3e700313          	li	t1,999
    3604:	20836163          	bltu	t1,s0,3806 <.L1566>

00003608 <.L1568>:
                ee_printf("ERROR! Must execute for at least 10 secs for a valid result!\n");
    3608:	60c1                	lui	ra,0x10
    360a:	0fc08513          	addi	a0,ra,252 # 100fc <.LC3>
    360e:	3ca1                	jal	3066 <whisperPrintf>

00003610 <.LVL1677>:
                total_errors++;
    3610:	4485                	li	s1,1

00003612 <.L1567>:
        ee_printf("Iterations       : %u\n",(ee_u32)default_num_contexts*results[0].iterations);
    3612:	0a892383          	lw	t2,168(s2) # 100a8 <default_num_contexts>
    3616:	5422                	lw	s0,40(sp)

00003618 <.LVL1679>:
    3618:	69c1                	lui	s3,0x10
    361a:	15898513          	addi	a0,s3,344 # 10158 <.LC5>
    361e:	027405b3          	mul	a1,s0,t2
        ee_printf("Compiler version : %s\n",COMPILER_VERSION);
    3622:	6ac1                	lui	s5,0x10
        ee_printf("Compiler flags   : %s\n",COMPILER_FLAGS);
    3624:	6a41                	lui	s4,0x10
    3626:	6bc1                	lui	s7,0x10
        ee_printf("Iterations       : %u\n",(ee_u32)default_num_contexts*results[0].iterations);
    3628:	3c3d                	jal	3066 <whisperPrintf>

0000362a <.LVL1680>:
        ee_printf("Compiler version : %s\n",COMPILER_VERSION);
    362a:	62c1                	lui	t0,0x10
    362c:	17028593          	addi	a1,t0,368 # 10170 <.LC6>
    3630:	17ca8513          	addi	a0,s5,380 # 1017c <.LC7>
    3634:	3c0d                	jal	3066 <whisperPrintf>

00003636 <.LVL1681>:
        ee_printf("Compiler flags   : %s\n",COMPILER_FLAGS);
    3636:	194a0593          	addi	a1,s4,404 # 10194 <.LC8>
    363a:	198b8513          	addi	a0,s7,408 # 10198 <.LC9>
    363e:	3425                	jal	3066 <whisperPrintf>

00003640 <.LVL1682>:
        ee_printf("Memory location  : %s\n",MEM_LOCATION);
    3640:	68c1                	lui	a7,0x10
    3642:	6341                	lui	t1,0x10
    3644:	1b088593          	addi	a1,a7,432 # 101b0 <.LC10>
    3648:	1b830513          	addi	a0,t1,440 # 101b8 <.LC11>
    364c:	3c29                	jal	3066 <whisperPrintf>

0000364e <.LVL1683>:
        ee_printf("seedcrc          : 0x%04x\n",seedcrc);
    364e:	66c1                	lui	a3,0x10
    3650:	4581                	li	a1,0
    3652:	1d068513          	addi	a0,a3,464 # 101d0 <.LC12>
    3656:	3c01                	jal	3066 <whisperPrintf>

00003658 <.LVL1684>:
        if (results[0].execs & ID_LIST)
    3658:	55b2                	lw	a1,44(sp)
    365a:	0015f613          	andi	a2,a1,1
    365e:	c269                	beqz	a2,3720 <.L1575>

00003660 <.LVL1685>:
                for (i=0 ; i<default_num_contexts; i++)
    3660:	0a892803          	lw	a6,168(s2)
    3664:	16080d63          	beqz	a6,37de <.L1571>
    3668:	4a01                	li	s4,0
    366a:	6b41                	lui	s6,0x10
                        ee_printf("[%d]crclist       : 0x%04x\n",i,results[i].crclist);
    366c:	03400993          	li	s3,52

00003670 <.L1572>:
    3670:	033a07b3          	mul	a5,s4,s3
    3674:	04010f93          	addi	t6,sp,64
    3678:	85d2                	mv	a1,s4
    367a:	1ecb0513          	addi	a0,s6,492 # 101ec <.LC13>
    367e:	00ff8e33          	add	t3,t6,a5
    3682:	ff6e5603          	lhu	a2,-10(t3)
    3686:	32c5                	jal	3066 <whisperPrintf>

00003688 <.LVL1687>:
                for (i=0 ; i<default_num_contexts; i++)
    3688:	001a0e93          	addi	t4,s4,1
    368c:	0a892703          	lw	a4,168(s2)
    3690:	010e9f13          	slli	t5,t4,0x10
    3694:	010f5413          	srli	s0,t5,0x10
                        ee_printf("[%d]crclist       : 0x%04x\n",i,results[i].crclist);
    3698:	1ecb0513          	addi	a0,s6,492
    369c:	85a2                	mv	a1,s0
                for (i=0 ; i<default_num_contexts; i++)
    369e:	08e47163          	bgeu	s0,a4,3720 <.L1575>
                        ee_printf("[%d]crclist       : 0x%04x\n",i,results[i].crclist);
    36a2:	033400b3          	mul	ra,s0,s3
    36a6:	04010393          	addi	t2,sp,64
                for (i=0 ; i<default_num_contexts; i++)
    36aa:	00140a13          	addi	s4,s0,1
    36ae:	010a1b93          	slli	s7,s4,0x10
    36b2:	010bd413          	srli	s0,s7,0x10
                        ee_printf("[%d]crclist       : 0x%04x\n",i,results[i].crclist);
    36b6:	001382b3          	add	t0,t2,ra
    36ba:	ff62d603          	lhu	a2,-10(t0)
    36be:	3265                	jal	3066 <whisperPrintf>

000036c0 <.LVL1688>:
                for (i=0 ; i<default_num_contexts; i++)
    36c0:	0a892a83          	lw	s5,168(s2)
                        ee_printf("[%d]crclist       : 0x%04x\n",i,results[i].crclist);
    36c4:	1ecb0513          	addi	a0,s6,492
    36c8:	85a2                	mv	a1,s0
                for (i=0 ; i<default_num_contexts; i++)
    36ca:	05547b63          	bgeu	s0,s5,3720 <.L1575>
                        ee_printf("[%d]crclist       : 0x%04x\n",i,results[i].crclist);
    36ce:	033408b3          	mul	a7,s0,s3
    36d2:	04010313          	addi	t1,sp,64
    36d6:	011306b3          	add	a3,t1,a7
    36da:	ff66d603          	lhu	a2,-10(a3)
    36de:	3261                	jal	3066 <whisperPrintf>

000036e0 <.LVL1689>:
                for (i=0 ; i<default_num_contexts; i++)
    36e0:	00140593          	addi	a1,s0,1
    36e4:	0a892603          	lw	a2,168(s2)
    36e8:	01059813          	slli	a6,a1,0x10
    36ec:	01085a93          	srli	s5,a6,0x10
                        ee_printf("[%d]crclist       : 0x%04x\n",i,results[i].crclist);
    36f0:	1ecb0513          	addi	a0,s6,492
    36f4:	85d6                	mv	a1,s5
                for (i=0 ; i<default_num_contexts; i++)
    36f6:	02caf563          	bgeu	s5,a2,3720 <.L1575>
                        ee_printf("[%d]crclist       : 0x%04x\n",i,results[i].crclist);
    36fa:	033a87b3          	mul	a5,s5,s3
    36fe:	04010f93          	addi	t6,sp,64
    3702:	00ff8e33          	add	t3,t6,a5
    3706:	ff6e5603          	lhu	a2,-10(t3)
    370a:	3ab1                	jal	3066 <whisperPrintf>

0000370c <.LVL1690>:
                for (i=0 ; i<default_num_contexts; i++)
    370c:	001a8713          	addi	a4,s5,1

00003710 <.LVL1691>:
    3710:	0a892503          	lw	a0,168(s2)
    3714:	01071e93          	slli	t4,a4,0x10
    3718:	010eda13          	srli	s4,t4,0x10
    371c:	f4aa6ae3          	bltu	s4,a0,3670 <.L1572>

00003720 <.L1575>:
        for (i=0 ; i<default_num_contexts; i++)
    3720:	0a892b03          	lw	s6,168(s2)
    3724:	4a01                	li	s4,0
    3726:	69c1                	lui	s3,0x10
                ee_printf("[%d]crcfinal      : 0x%04x\n",i,results[i].crc);
    3728:	03400b93          	li	s7,52
        for (i=0 ; i<default_num_contexts; i++)
    372c:	0a0b0963          	beqz	s6,37de <.L1571>

00003730 <.L1570>:
                ee_printf("[%d]crcfinal      : 0x%04x\n",i,results[i].crc);
    3730:	037a0f33          	mul	t5,s4,s7
    3734:	04010093          	addi	ra,sp,64
    3738:	85d2                	mv	a1,s4
    373a:	20898513          	addi	a0,s3,520 # 10208 <.LC14>
        for (i=0 ; i<default_num_contexts; i++)
    373e:	001a0413          	addi	s0,s4,1
                ee_printf("[%d]crcfinal      : 0x%04x\n",i,results[i].crc);
    3742:	01e083b3          	add	t2,ra,t5
    3746:	ff43d603          	lhu	a2,-12(t2)
    374a:	3a31                	jal	3066 <whisperPrintf>

0000374c <.LVL1694>:
        for (i=0 ; i<default_num_contexts; i++)
    374c:	0a892283          	lw	t0,168(s2)
    3750:	01041893          	slli	a7,s0,0x10
    3754:	0108da93          	srli	s5,a7,0x10
                ee_printf("[%d]crcfinal      : 0x%04x\n",i,results[i].crc);
    3758:	20898513          	addi	a0,s3,520
    375c:	85d6                	mv	a1,s5
        for (i=0 ; i<default_num_contexts; i++)
    375e:	085af063          	bgeu	s5,t0,37de <.L1571>
                ee_printf("[%d]crcfinal      : 0x%04x\n",i,results[i].crc);
    3762:	037a8333          	mul	t1,s5,s7
    3766:	0094                	addi	a3,sp,64
    3768:	00668633          	add	a2,a3,t1
    376c:	ff465603          	lhu	a2,-12(a2)
    3770:	38dd                	jal	3066 <whisperPrintf>

00003772 <.LVL1695>:
        for (i=0 ; i<default_num_contexts; i++)
    3772:	001a8593          	addi	a1,s5,1
    3776:	0a892803          	lw	a6,168(s2)
    377a:	01059793          	slli	a5,a1,0x10
    377e:	0107da13          	srli	s4,a5,0x10
                ee_printf("[%d]crcfinal      : 0x%04x\n",i,results[i].crc);
    3782:	20898513          	addi	a0,s3,520
    3786:	85d2                	mv	a1,s4
        for (i=0 ; i<default_num_contexts; i++)
    3788:	050a7b63          	bgeu	s4,a6,37de <.L1571>
                ee_printf("[%d]crcfinal      : 0x%04x\n",i,results[i].crc);
    378c:	037a0fb3          	mul	t6,s4,s7
    3790:	04010e13          	addi	t3,sp,64
        for (i=0 ; i<default_num_contexts; i++)
    3794:	001a0b13          	addi	s6,s4,1
                ee_printf("[%d]crcfinal      : 0x%04x\n",i,results[i].crc);
    3798:	01fe0733          	add	a4,t3,t6
    379c:	ff475603          	lhu	a2,-12(a4)
    37a0:	30d9                	jal	3066 <whisperPrintf>

000037a2 <.LVL1696>:
        for (i=0 ; i<default_num_contexts; i++)
    37a2:	0a892e83          	lw	t4,168(s2)
    37a6:	010b1f13          	slli	t5,s6,0x10
    37aa:	010f5413          	srli	s0,t5,0x10
                ee_printf("[%d]crcfinal      : 0x%04x\n",i,results[i].crc);
    37ae:	20898513          	addi	a0,s3,520
    37b2:	85a2                	mv	a1,s0
        for (i=0 ; i<default_num_contexts; i++)
    37b4:	03d47563          	bgeu	s0,t4,37de <.L1571>
                ee_printf("[%d]crcfinal      : 0x%04x\n",i,results[i].crc);
    37b8:	037400b3          	mul	ra,s0,s7
    37bc:	04010393          	addi	t2,sp,64
    37c0:	001382b3          	add	t0,t2,ra
    37c4:	ff42d603          	lhu	a2,-12(t0)
    37c8:	3879                	jal	3066 <whisperPrintf>

000037ca <.LVL1697>:
        for (i=0 ; i<default_num_contexts; i++)
    37ca:	00140893          	addi	a7,s0,1

000037ce <.LVL1698>:
    37ce:	0a892503          	lw	a0,168(s2)
    37d2:	01089a93          	slli	s5,a7,0x10
    37d6:	010ada13          	srli	s4,s5,0x10
    37da:	f4aa6be3          	bltu	s4,a0,3730 <.L1570>

000037de <.L1571>:
        if (total_errors==0) {
    37de:	c0c9                	beqz	s1,3860 <.L1694>

000037e0 <.L1522>:
}
    37e0:	50b6                	lw	ra,108(sp)
    37e2:	5426                	lw	s0,104(sp)
    37e4:	5496                	lw	s1,100(sp)

000037e6 <.LVL1701>:
    37e6:	5906                	lw	s2,96(sp)
    37e8:	49f6                	lw	s3,92(sp)
    37ea:	4a66                	lw	s4,88(sp)
    37ec:	4ad6                	lw	s5,84(sp)
    37ee:	4b46                	lw	s6,80(sp)
    37f0:	4bb6                	lw	s7,76(sp)
    37f2:	6165                	addi	sp,sp,112
    37f4:	8082                	ret

000037f6 <.L1693>:
                if (i==0) res->crclist=res->crc;
    37f6:	03f11b23          	sh	t6,54(sp)

000037fa <.LVL1703>:
        for (i=0; i<iterations; i++) {
    37fa:	4405                	li	s0,1
    37fc:	baa5                	j	3174 <.L1526>

000037fe <.L1692>:
    37fe:	69c5                	lui	s3,0x11
    3800:	6ac5                	lui	s5,0x11
    3802:	0064                	addi	s1,sp,12
    3804:	bb5d                	j	35ba <.L1525>

00003806 <.L1566>:
                ee_printf("Iterat/Sec/MHz   : %d.%d\n",1000*default_num_contexts*results[0].iterations/time_in_secs(total_time),
    3806:	55a2                	lw	a1,40(sp)
    3808:	0a892683          	lw	a3,168(s2)
                             100000*default_num_contexts*results[0].iterations/time_in_secs(total_time) % 100);
    380c:	67e1                	lui	a5,0x18
    380e:	6a078f93          	addi	t6,a5,1696 # 186a0 <STACK+0x410>
                ee_printf("Iterat/Sec/MHz   : %d.%d\n",1000*default_num_contexts*results[0].iterations/time_in_secs(total_time),
    3812:	02d58633          	mul	a2,a1,a3
    3816:	06400e93          	li	t4,100
    381a:	6841                	lui	a6,0x10
    381c:	13c80513          	addi	a0,a6,316 # 1013c <.LC4>
                             100000*default_num_contexts*results[0].iterations/time_in_secs(total_time) % 100);
    3820:	03f60e33          	mul	t3,a2,t6
    3824:	037e5b33          	divu	s6,t3,s7
                ee_printf("Iterat/Sec/MHz   : %d.%d\n",1000*default_num_contexts*results[0].iterations/time_in_secs(total_time),
    3828:	03460733          	mul	a4,a2,s4
    382c:	03db7633          	remu	a2,s6,t4
    3830:	037755b3          	divu	a1,a4,s7
    3834:	380d                	jal	3066 <whisperPrintf>

00003836 <.LVL1707>:
        if (time_in_secs(total_time) < 10) {
    3836:	6509                	lui	a0,0x2
    3838:	70f50f13          	addi	t5,a0,1807 # 270f <.LVL1217+0x11>
    383c:	dc8f76e3          	bgeu	t5,s0,3608 <.L1568>
        ee_s16 known_id=-1,total_errors=0;
    3840:	4481                	li	s1,0
    3842:	bbc1                	j	3612 <.L1567>

00003844 <.L1523>:
        if ((results[0].seed1==1) && (results[0].seed2==0) && (results[0].seed3==0)) { /* perfromance run */
    3844:	8c941ae3          	bne	s0,s1,3118 <.L1524>
    3848:	8c0598e3          	bnez	a1,3118 <.L1524>
                results[0].seed1=0x3415;
    384c:	34153837          	lui	a6,0x34153
    3850:	41580893          	addi	a7,a6,1045 # 34153415 <STACK+0x3413b185>
    3854:	c646                	sw	a7,12(sp)

00003856 <.L1691>:
                results[0].seed3=0x66;
    3856:	06600913          	li	s2,102
    385a:	01211823          	sh	s2,16(sp)
    385e:	b86d                	j	3118 <.L1524>

00003860 <.L1694>:
                ee_printf("Correct operation validated. See readme.txt for run and reporting rules.\n");
    3860:	6941                	lui	s2,0x10
    3862:	22490513          	addi	a0,s2,548 # 10224 <.LC15>
    3866:	801ff0ef          	jal	ra,3066 <whisperPrintf>

0000386a <.LVL1710>:
        return MAIN_RETURN_VAL;
    386a:	bf9d                	j	37e0 <.L1522>
