
state.exe:     file format elf32-littleriscv


Disassembly of section .text:

00000000 <_start>:
       0:	5f5552b7          	lui	t0,0x5f555
       4:	55528293          	addi	t0,t0,1365 # 5f555555 <STACK+0x5f53ce85>
       8:	7c029073          	csrw	0x7c0,t0
       c:	00018117          	auipc	sp,0x18
      10:	6c410113          	addi	sp,sp,1732 # 186d0 <STACK>
      14:	6eb070ef          	jal	ra,7efe <main>

00000018 <_finish>:
      18:	d05802b7          	lui	t0,0xd0580
      1c:	0ff00313          	li	t1,255
      20:	00628023          	sb	t1,0(t0) # d0580000 <STACK+0xd0567930>
      24:	fe000ae3          	beqz	zero,18 <_finish>
      28:	0001                	nop
      2a:	0001                	nop
      2c:	0001                	nop
      2e:	0001                	nop
      30:	0001                	nop
      32:	0001                	nop
      34:	0001                	nop
      36:	0001                	nop
      38:	0001                	nop
      3a:	0001                	nop

0000003c <cmp_idx>:
        Compare the idx item in a list cell, and regen the data.

        Can be used by mergesort.
*/
ee_s32 cmp_idx(list_data *a, list_data *b, core_results *res) {
        if (res==NULL) {
      3c:	c619                	beqz	a2,4a <.L4>
                a->data16 = (a->data16 & 0xff00) | (0x00ff & (a->data16>>8));
                b->data16 = (b->data16 & 0xff00) | (0x00ff & (b->data16>>8));
        }
        return a->idx - b->idx;
      3e:	00251503          	lh	a0,2(a0)

00000042 <.LVL1>:
      42:	00259583          	lh	a1,2(a1)

00000046 <.LVL2>:
}
      46:	8d0d                	sub	a0,a0,a1
      48:	8082                	ret

0000004a <.L4>:
                a->data16 = (a->data16 & 0xff00) | (0x00ff & (a->data16>>8));
      4a:	00051783          	lh	a5,0(a0)
      4e:	01079713          	slli	a4,a5,0x10
      52:	01075293          	srli	t0,a4,0x10
      56:	f007f313          	andi	t1,a5,-256
      5a:	0082d393          	srli	t2,t0,0x8
      5e:	00736633          	or	a2,t1,t2

00000062 <.LVL4>:
      62:	00c51023          	sh	a2,0(a0)
                b->data16 = (b->data16 & 0xff00) | (0x00ff & (b->data16>>8));
      66:	00059683          	lh	a3,0(a1)
        return a->idx - b->idx;
      6a:	00251503          	lh	a0,2(a0)

0000006e <.LVL5>:
                b->data16 = (b->data16 & 0xff00) | (0x00ff & (b->data16>>8));
      6e:	01069813          	slli	a6,a3,0x10
      72:	01085893          	srli	a7,a6,0x10
      76:	f006fe13          	andi	t3,a3,-256
      7a:	0088de93          	srli	t4,a7,0x8
      7e:	01de6f33          	or	t5,t3,t4
      82:	01e59023          	sh	t5,0(a1)
        return a->idx - b->idx;
      86:	00259583          	lh	a1,2(a1)

0000008a <.LVL6>:
}
      8a:	8d0d                	sub	a0,a0,a1
      8c:	8082                	ret

0000008e <core_list_mergesort.constprop.0>:
        Note:
        We have a special header for the list that will always be first,
        but the algorithm could theoretically modify where the list starts.

 */
list_head *core_list_mergesort(list_head *list, list_cmp cmp, core_results *res) {
      8e:	872a                	mv	a4,a0
    list_head *p, *q, *e, *tail;
    ee_s32 insize, nmerges, psize, qsize, i;

    insize = 1;
      90:	4f85                	li	t6,1
        }

            tail->next = NULL;

        /* If we have done only one merge, we're finished. */
        if (nmerges <= 1)   /* allow for nmerges==0, the empty list case */
      92:	4385                	li	t2,1

00000094 <.L22>:
        while (p) {
      94:	14070063          	beqz	a4,1d4 <.L6>
        tail = NULL;
      98:	4681                	li	a3,0
        list = NULL;
      9a:	4501                	li	a0,0
        nmerges = 0;  /* count number of merges we do in this pass */
      9c:	4281                	li	t0,0

0000009e <.L20>:
            nmerges++;  /* there exists a merge to be done */
      9e:	007ff593          	andi	a1,t6,7
      a2:	0285                	addi	t0,t0,1

000000a4 <.LVL10>:
      a4:	87ba                	mv	a5,a4
            psize = 0;
      a6:	4601                	li	a2,0
      a8:	c9b1                	beqz	a1,fc <.L9>
      aa:	4805                	li	a6,1
      ac:	05058363          	beq	a1,a6,f2 <.L63>
      b0:	4309                	li	t1,2
      b2:	02658d63          	beq	a1,t1,ec <.L64>
      b6:	488d                	li	a7,3
      b8:	03158763          	beq	a1,a7,e6 <.L65>
      bc:	4e11                	li	t3,4
      be:	03c58163          	beq	a1,t3,e0 <.L66>
      c2:	4e95                	li	t4,5
      c4:	01d58b63          	beq	a1,t4,da <.L67>
      c8:	4f19                	li	t5,6
      ca:	01e58563          	beq	a1,t5,d4 <.L68>

000000ce <.LVL11>:
                            q = q->next;
      ce:	431c                	lw	a5,0(a4)
                psize++;
      d0:	4605                	li	a2,1

000000d2 <.LVL12>:
                if (!q) break;
      d2:	c7a5                	beqz	a5,13a <.L10>

000000d4 <.L68>:
                            q = q->next;
      d4:	439c                	lw	a5,0(a5)

000000d6 <.LVL14>:
                psize++;
      d6:	0605                	addi	a2,a2,1

000000d8 <.LVL15>:
                if (!q) break;
      d8:	c3ad                	beqz	a5,13a <.L10>

000000da <.L67>:
                            q = q->next;
      da:	439c                	lw	a5,0(a5)

000000dc <.LVL17>:
                psize++;
      dc:	0605                	addi	a2,a2,1

000000de <.LVL18>:
                if (!q) break;
      de:	cfb1                	beqz	a5,13a <.L10>

000000e0 <.L66>:
                            q = q->next;
      e0:	439c                	lw	a5,0(a5)

000000e2 <.LVL20>:
                psize++;
      e2:	0605                	addi	a2,a2,1

000000e4 <.LVL21>:
                if (!q) break;
      e4:	cbb9                	beqz	a5,13a <.L10>

000000e6 <.L65>:
                            q = q->next;
      e6:	439c                	lw	a5,0(a5)

000000e8 <.LVL23>:
                psize++;
      e8:	0605                	addi	a2,a2,1

000000ea <.LVL24>:
                if (!q) break;
      ea:	cba1                	beqz	a5,13a <.L10>

000000ec <.L64>:
                            q = q->next;
      ec:	439c                	lw	a5,0(a5)

000000ee <.LVL26>:
                psize++;
      ee:	0605                	addi	a2,a2,1

000000f0 <.LVL27>:
                if (!q) break;
      f0:	c7a9                	beqz	a5,13a <.L10>

000000f2 <.L63>:
                            q = q->next;
      f2:	439c                	lw	a5,0(a5)

000000f4 <.LVL29>:
                psize++;
      f4:	0605                	addi	a2,a2,1

000000f6 <.LVL30>:
                if (!q) break;
      f6:	c3b1                	beqz	a5,13a <.L10>

000000f8 <.L80>:
            for (i = 0; i < insize; i++) {
      f8:	05f60163          	beq	a2,t6,13a <.L10>

000000fc <.L9>:
                            q = q->next;
      fc:	439c                	lw	a5,0(a5)

000000fe <.LVL32>:
                psize++;
      fe:	0605                	addi	a2,a2,1
     100:	85b2                	mv	a1,a2

00000102 <.LVL33>:
                if (!q) break;
     102:	cf85                	beqz	a5,13a <.L10>

00000104 <.LVL34>:
                            q = q->next;
     104:	439c                	lw	a5,0(a5)

00000106 <.LVL35>:
                psize++;
     106:	0605                	addi	a2,a2,1

00000108 <.LVL36>:
                if (!q) break;
     108:	cb8d                	beqz	a5,13a <.L10>

0000010a <.LVL37>:
                            q = q->next;
     10a:	439c                	lw	a5,0(a5)

0000010c <.LVL38>:
                psize++;
     10c:	00258613          	addi	a2,a1,2

00000110 <.LVL39>:
                if (!q) break;
     110:	c78d                	beqz	a5,13a <.L10>

00000112 <.LVL40>:
                            q = q->next;
     112:	439c                	lw	a5,0(a5)

00000114 <.LVL41>:
                psize++;
     114:	00358613          	addi	a2,a1,3

00000118 <.LVL42>:
                if (!q) break;
     118:	c38d                	beqz	a5,13a <.L10>

0000011a <.LVL43>:
                            q = q->next;
     11a:	439c                	lw	a5,0(a5)

0000011c <.LVL44>:
                psize++;
     11c:	00458613          	addi	a2,a1,4

00000120 <.LVL45>:
                if (!q) break;
     120:	cf89                	beqz	a5,13a <.L10>

00000122 <.LVL46>:
                            q = q->next;
     122:	439c                	lw	a5,0(a5)

00000124 <.LVL47>:
                psize++;
     124:	00558613          	addi	a2,a1,5

00000128 <.LVL48>:
                if (!q) break;
     128:	cb89                	beqz	a5,13a <.L10>

0000012a <.LVL49>:
                            q = q->next;
     12a:	439c                	lw	a5,0(a5)

0000012c <.LVL50>:
                psize++;
     12c:	00658613          	addi	a2,a1,6

00000130 <.LVL51>:
                if (!q) break;
     130:	c789                	beqz	a5,13a <.L10>

00000132 <.LVL52>:
                            q = q->next;
     132:	439c                	lw	a5,0(a5)

00000134 <.LVL53>:
                psize++;
     134:	00758613          	addi	a2,a1,7

00000138 <.LVL54>:
                if (!q) break;
     138:	f3e1                	bnez	a5,f8 <.L80>

0000013a <.L10>:
                                    list = e;
     13a:	883a                	mv	a6,a4
     13c:	85fe                	mv	a1,t6
     13e:	873e                	mv	a4,a5

00000140 <.LVL56>:
            while (psize > 0 || (qsize > 0 && q)) {
     140:	c23d                	beqz	a2,1a6 <.L82>

00000142 <.L16>:
                                } else if (qsize == 0 || !q) {
     142:	c9bd                	beqz	a1,1b8 <.L81>
     144:	cb35                	beqz	a4,1b8 <.L81>
                                } else if (cmp(p->info,q->info,res) <= 0) {
     146:	00482e03          	lw	t3,4(a6)
     14a:	00472303          	lw	t1,4(a4)

0000014e <.LBB133>:
                a->data16 = (a->data16 & 0xff00) | (0x00ff & (a->data16>>8));
     14e:	000e1783          	lh	a5,0(t3)
        return a->idx - b->idx;
     152:	00231f03          	lh	t5,2(t1)
     156:	002e1883          	lh	a7,2(t3)
                a->data16 = (a->data16 & 0xff00) | (0x00ff & (a->data16>>8));
     15a:	01079e93          	slli	t4,a5,0x10
     15e:	010ede93          	srli	t4,t4,0x10
     162:	008ede93          	srli	t4,t4,0x8
     166:	f007f793          	andi	a5,a5,-256
     16a:	01d7e7b3          	or	a5,a5,t4
     16e:	00fe1023          	sh	a5,0(t3)
                b->data16 = (b->data16 & 0xff00) | (0x00ff & (b->data16>>8));
     172:	00031e83          	lh	t4,0(t1)
        return a->idx - b->idx;
     176:	41e888b3          	sub	a7,a7,t5
                b->data16 = (b->data16 & 0xff00) | (0x00ff & (b->data16>>8));
     17a:	010e9e13          	slli	t3,t4,0x10

0000017e <.LVL58>:
     17e:	010e5f13          	srli	t5,t3,0x10
     182:	f00ef793          	andi	a5,t4,-256
     186:	008f5e93          	srli	t4,t5,0x8
     18a:	01d7ee33          	or	t3,a5,t4
     18e:	01c31023          	sh	t3,0(t1)

00000192 <.LBE133>:
                                } else if (cmp(p->info,q->info,res) <= 0) {
     192:	03105363          	blez	a7,1b8 <.L81>

00000196 <.LVL60>:
                                    e = q; q = q->next; qsize--;
     196:	833a                	mv	t1,a4
     198:	4318                	lw	a4,0(a4)

0000019a <.LVL61>:
     19a:	15fd                	addi	a1,a1,-1

0000019c <.L11>:
                                if (tail) {
     19c:	ca99                	beqz	a3,1b2 <.L23>

0000019e <.L83>:
                                    tail->next = e;
     19e:	0066a023          	sw	t1,0(a3)
                                    list = e;
     1a2:	869a                	mv	a3,t1

000001a4 <.L84>:
            while (psize > 0 || (qsize > 0 && q)) {
     1a4:	fe59                	bnez	a2,142 <.L16>

000001a6 <.L82>:
     1a6:	cd91                	beqz	a1,1c2 <.L17>
     1a8:	cf19                	beqz	a4,1c6 <.L19>

000001aa <.LVL65>:
                                    e = q; q = q->next; qsize--;
     1aa:	833a                	mv	t1,a4
     1ac:	15fd                	addi	a1,a1,-1
     1ae:	4318                	lw	a4,0(a4)

000001b0 <.LVL67>:
                                if (tail) {
     1b0:	f6fd                	bnez	a3,19e <.L83>

000001b2 <.L23>:
                                    list = e;
     1b2:	851a                	mv	a0,t1
     1b4:	869a                	mv	a3,t1

000001b6 <.LVL68>:
     1b6:	b7fd                	j	1a4 <.L84>

000001b8 <.L81>:
                                    e = p; p = p->next; psize--;
     1b8:	8342                	mv	t1,a6
     1ba:	167d                	addi	a2,a2,-1

000001bc <.LVL70>:
     1bc:	00082803          	lw	a6,0(a6)

000001c0 <.LVL71>:
     1c0:	bff1                	j	19c <.L11>

000001c2 <.L17>:
        while (p) {
     1c2:	ec071ee3          	bnez	a4,9e <.L20>

000001c6 <.L19>:
            tail->next = NULL;
     1c6:	0006a023          	sw	zero,0(a3)
        if (nmerges <= 1)   /* allow for nmerges==0, the empty list case */
     1ca:	00728863          	beq	t0,t2,1da <.L79>
            return list;

        /* Otherwise repeat, merging lists twice the size */
        insize *= 2;
     1ce:	0f86                	slli	t6,t6,0x1
        p = list;
     1d0:	872a                	mv	a4,a0

000001d2 <.LVL75>:
     1d2:	b5c9                	j	94 <.L22>

000001d4 <.L6>:
            tail->next = NULL;
     1d4:	00002023          	sw	zero,0(zero) # 0 <_start>
     1d8:	9002                	ebreak

000001da <.L79>:
    }
#if COMPILER_REQUIRES_SORT_RETURN
        return list;
#endif
}
     1da:	8082                	ret

000001dc <copy_info>:
        to->data16=from->data16;
     1dc:	00059703          	lh	a4,0(a1)
        to->idx=from->idx;
     1e0:	00259783          	lh	a5,2(a1)
        to->data16=from->data16;
     1e4:	00e51023          	sh	a4,0(a0)
        to->idx=from->idx;
     1e8:	00f51123          	sh	a5,2(a0)
}
     1ec:	8082                	ret

000001ee <core_list_insert_new>:
        if ((*memblock+1) >= memblock_end)
     1ee:	00062803          	lw	a6,0(a2)
     1f2:	00880893          	addi	a7,a6,8
     1f6:	04e8f163          	bgeu	a7,a4,238 <.L89>
        if ((*datablock+1) >= datablock_end)
     1fa:	4298                	lw	a4,0(a3)

000001fc <.LVL80>:
     1fc:	00470313          	addi	t1,a4,4
     200:	02f37c63          	bgeu	t1,a5,238 <.L89>

00000204 <.LVL81>:
        (*memblock)++;
     204:	01162023          	sw	a7,0(a2)
        newitem->next=insert_point->next;
     208:	411c                	lw	a5,0(a0)

0000020a <.LBB135>:
        to->data16=from->data16;
     20a:	00059283          	lh	t0,0(a1)
        to->idx=from->idx;
     20e:	00259603          	lh	a2,2(a1)

00000212 <.LBE135>:
        newitem->next=insert_point->next;
     212:	00f82023          	sw	a5,0(a6)
        insert_point->next=newitem;
     216:	01052023          	sw	a6,0(a0)
        newitem->info=*datablock;
     21a:	00e82223          	sw	a4,4(a6)
        (*datablock)++;
     21e:	0006a383          	lw	t2,0(a3)
     222:	00438513          	addi	a0,t2,4

00000226 <.LVL84>:
     226:	c288                	sw	a0,0(a3)
        copy_info(newitem->info,info);
     228:	00482583          	lw	a1,4(a6)

0000022c <.LBB139>:
}
     22c:	8542                	mv	a0,a6

0000022e <.LBB140>:
        to->data16=from->data16;
     22e:	00559023          	sh	t0,0(a1)
        to->idx=from->idx;
     232:	00c59123          	sh	a2,2(a1)

00000236 <.LBE140>:
}
     236:	8082                	ret

00000238 <.L89>:
                return NULL;
     238:	4801                	li	a6,0
}
     23a:	8542                	mv	a0,a6

0000023c <.LVL88>:
     23c:	8082                	ret

0000023e <core_list_remove>:
list_head *core_list_remove(list_head *item) {
     23e:	87aa                	mv	a5,a0
        list_head *ret=item->next;
     240:	4108                	lw	a0,0(a0)

00000242 <.LVL90>:
        tmp=item->info;
     242:	43d4                	lw	a3,4(a5)
        item->info=ret->info;
     244:	4150                	lw	a2,4(a0)
        item->next=item->next->next;
     246:	4118                	lw	a4,0(a0)
        item->info=ret->info;
     248:	c3d0                	sw	a2,4(a5)
        ret->info=tmp;
     24a:	c154                	sw	a3,4(a0)
        item->next=item->next->next;
     24c:	c398                	sw	a4,0(a5)
        ret->next=NULL;
     24e:	00052023          	sw	zero,0(a0)
}
     252:	8082                	ret

00000254 <core_list_undo_remove>:
        item_removed->info=item_modified->info;
     254:	41d0                	lw	a2,4(a1)
        tmp=item_removed->info;
     256:	4154                	lw	a3,4(a0)
        item_removed->next=item_modified->next;
     258:	4198                	lw	a4,0(a1)
        item_removed->info=item_modified->info;
     25a:	c150                	sw	a2,4(a0)
        item_modified->info=tmp;
     25c:	c1d4                	sw	a3,4(a1)
        item_removed->next=item_modified->next;
     25e:	c118                	sw	a4,0(a0)
        item_modified->next=item_removed;
     260:	c188                	sw	a0,0(a1)
}
     262:	8082                	ret

00000264 <core_list_find>:
        if (info->idx>=0) {
     264:	00259603          	lh	a2,2(a1)
     268:	00064d63          	bltz	a2,282 <.L105>
                while (list && (list->info->idx != info->idx))
     26c:	e501                	bnez	a0,274 <.L96>
     26e:	a805                	j	29e <.L106>

00000270 <.L97>:
                        list=list->next;
     270:	4108                	lw	a0,0(a0)

00000272 <.LVL95>:
                while (list && (list->info->idx != info->idx))
     272:	c505                	beqz	a0,29a <.L100>

00000274 <.L96>:
     274:	00452303          	lw	t1,4(a0)
     278:	00231383          	lh	t2,2(t1)
     27c:	fec39ae3          	bne	t2,a2,270 <.L97>
     280:	8082                	ret

00000282 <.L105>:
                while (list && ((list->info->data16 & 0xff) != info->data16))
     282:	cd01                	beqz	a0,29a <.L100>
     284:	00059703          	lh	a4,0(a1)
     288:	a019                	j	28e <.L95>

0000028a <.L98>:
                        list=list->next;
     28a:	4108                	lw	a0,0(a0)
                while (list && ((list->info->data16 & 0xff) != info->data16))
     28c:	c901                	beqz	a0,29c <.L92>

0000028e <.L95>:
     28e:	415c                	lw	a5,4(a0)
     290:	0007c283          	lbu	t0,0(a5)
     294:	fee29be3          	bne	t0,a4,28a <.L98>
     298:	8082                	ret

0000029a <.L100>:
     29a:	4501                	li	a0,0

0000029c <.L92>:
}
     29c:	8082                	ret

0000029e <.L106>:
     29e:	8082                	ret

000002a0 <core_list_reverse>:
        while (list) {
     2a0:	c92d                	beqz	a0,312 <.L108>
                tmp=list->next;
     2a2:	411c                	lw	a5,0(a0)
        list_head *next=NULL, *tmp;
     2a4:	4881                	li	a7,0

000002a6 <.LVL100>:
                list->next=next;
     2a6:	01152023          	sw	a7,0(a0)

000002aa <.LVL101>:
        while (list) {
     2aa:	86aa                	mv	a3,a0
     2ac:	c3bd                	beqz	a5,312 <.L108>

000002ae <.L110>:
                tmp=list->next;
     2ae:	4398                	lw	a4,0(a5)
                list->next=next;
     2b0:	c394                	sw	a3,0(a5)
     2b2:	853e                	mv	a0,a5
        while (list) {
     2b4:	c325                	beqz	a4,314 <.L121>

000002b6 <.LVL103>:
                tmp=list->next;
     2b6:	00072283          	lw	t0,0(a4)
                list->next=next;
     2ba:	c31c                	sw	a5,0(a4)
     2bc:	853a                	mv	a0,a4

000002be <.LVL104>:
        while (list) {
     2be:	04028a63          	beqz	t0,312 <.L108>
                tmp=list->next;
     2c2:	0002a303          	lw	t1,0(t0)
                list->next=next;
     2c6:	00e2a023          	sw	a4,0(t0)
     2ca:	8516                	mv	a0,t0

000002cc <.LVL105>:
        while (list) {
     2cc:	04030363          	beqz	t1,312 <.L108>
                tmp=list->next;
     2d0:	00032383          	lw	t2,0(t1)
                list->next=next;
     2d4:	00532023          	sw	t0,0(t1)
     2d8:	851a                	mv	a0,t1

000002da <.LVL106>:
        while (list) {
     2da:	02038c63          	beqz	t2,312 <.L108>
                tmp=list->next;
     2de:	0003a583          	lw	a1,0(t2)
                list->next=next;
     2e2:	0063a023          	sw	t1,0(t2)
     2e6:	851e                	mv	a0,t2

000002e8 <.LVL107>:
        while (list) {
     2e8:	c58d                	beqz	a1,312 <.L108>
                tmp=list->next;
     2ea:	0005a803          	lw	a6,0(a1)
                list->next=next;
     2ee:	0075a023          	sw	t2,0(a1)
     2f2:	852e                	mv	a0,a1

000002f4 <.LVL108>:
        while (list) {
     2f4:	00080f63          	beqz	a6,312 <.L108>
                tmp=list->next;
     2f8:	00082603          	lw	a2,0(a6)
                list->next=next;
     2fc:	00b82023          	sw	a1,0(a6)
     300:	8542                	mv	a0,a6
        while (list) {
     302:	88c2                	mv	a7,a6
     304:	c619                	beqz	a2,312 <.L108>
     306:	8532                	mv	a0,a2

00000308 <.LVL110>:
                tmp=list->next;
     308:	411c                	lw	a5,0(a0)
                list->next=next;
     30a:	01152023          	sw	a7,0(a0)

0000030e <.LVL111>:
        while (list) {
     30e:	86aa                	mv	a3,a0
     310:	ffd9                	bnez	a5,2ae <.L110>

00000312 <.L108>:
}
     312:	8082                	ret

00000314 <.L121>:
     314:	8082                	ret

00000316 <core_list_mergesort>:
list_head *core_list_mergesort(list_head *list, list_cmp cmp, core_results *res) {
     316:	7179                	addi	sp,sp,-48
     318:	d422                	sw	s0,40(sp)
     31a:	c85a                	sw	s6,16(sp)
     31c:	c65e                	sw	s7,12(sp)
     31e:	c266                	sw	s9,4(sp)
     320:	c06a                	sw	s10,0(sp)
     322:	d606                	sw	ra,44(sp)
     324:	d226                	sw	s1,36(sp)
     326:	d04a                	sw	s2,32(sp)
     328:	ce4e                	sw	s3,28(sp)
     32a:	cc52                	sw	s4,24(sp)
     32c:	ca56                	sw	s5,20(sp)
     32e:	c462                	sw	s8,8(sp)
     330:	842a                	mv	s0,a0
     332:	8b2e                	mv	s6,a1
     334:	8d32                	mv	s10,a2
    insize = 1;
     336:	4b85                	li	s7,1
        if (nmerges <= 1)   /* allow for nmerges==0, the empty list case */
     338:	4c85                	li	s9,1

0000033a <.L139>:
        while (p) {
     33a:	10040163          	beqz	s0,43c <.L123>
        nmerges = 0;  /* count number of merges we do in this pass */
     33e:	4c01                	li	s8,0
        tail = NULL;
     340:	4481                	li	s1,0
        list = NULL;
     342:	4a81                	li	s5,0

00000344 <.L137>:
            nmerges++;  /* there exists a merge to be done */
     344:	007bf713          	andi	a4,s7,7
     348:	0c05                	addi	s8,s8,1

0000034a <.LVL117>:
     34a:	87a2                	mv	a5,s0
            psize = 0;
     34c:	4901                	li	s2,0
     34e:	cb31                	beqz	a4,3a2 <.L126>
     350:	4685                	li	a3,1
     352:	04d70363          	beq	a4,a3,398 <.L180>
     356:	4089                	li	ra,2
     358:	02170d63          	beq	a4,ra,392 <.L181>
     35c:	428d                	li	t0,3
     35e:	02570763          	beq	a4,t0,38c <.L182>
     362:	4311                	li	t1,4
     364:	02670163          	beq	a4,t1,386 <.L183>
     368:	4395                	li	t2,5
     36a:	00770b63          	beq	a4,t2,380 <.L184>
     36e:	4519                	li	a0,6
     370:	00a70563          	beq	a4,a0,37a <.L185>

00000374 <.LVL118>:
                            q = q->next;
     374:	401c                	lw	a5,0(s0)
                psize++;
     376:	4905                	li	s2,1

00000378 <.LVL119>:
                if (!q) break;
     378:	c7a5                	beqz	a5,3e0 <.L127>

0000037a <.L185>:
                            q = q->next;
     37a:	439c                	lw	a5,0(a5)

0000037c <.LVL121>:
                psize++;
     37c:	0905                	addi	s2,s2,1

0000037e <.LVL122>:
                if (!q) break;
     37e:	c3ad                	beqz	a5,3e0 <.L127>

00000380 <.L184>:
                            q = q->next;
     380:	439c                	lw	a5,0(a5)

00000382 <.LVL124>:
                psize++;
     382:	0905                	addi	s2,s2,1

00000384 <.LVL125>:
                if (!q) break;
     384:	cfb1                	beqz	a5,3e0 <.L127>

00000386 <.L183>:
                            q = q->next;
     386:	439c                	lw	a5,0(a5)

00000388 <.LVL127>:
                psize++;
     388:	0905                	addi	s2,s2,1

0000038a <.LVL128>:
                if (!q) break;
     38a:	cbb9                	beqz	a5,3e0 <.L127>

0000038c <.L182>:
                            q = q->next;
     38c:	439c                	lw	a5,0(a5)

0000038e <.LVL130>:
                psize++;
     38e:	0905                	addi	s2,s2,1

00000390 <.LVL131>:
                if (!q) break;
     390:	cba1                	beqz	a5,3e0 <.L127>

00000392 <.L181>:
                            q = q->next;
     392:	439c                	lw	a5,0(a5)

00000394 <.LVL133>:
                psize++;
     394:	0905                	addi	s2,s2,1

00000396 <.LVL134>:
                if (!q) break;
     396:	c7a9                	beqz	a5,3e0 <.L127>

00000398 <.L180>:
                            q = q->next;
     398:	439c                	lw	a5,0(a5)

0000039a <.LVL136>:
                psize++;
     39a:	0905                	addi	s2,s2,1

0000039c <.LVL137>:
                if (!q) break;
     39c:	c3b1                	beqz	a5,3e0 <.L127>

0000039e <.L198>:
            for (i = 0; i < insize; i++) {
     39e:	052b8163          	beq	s7,s2,3e0 <.L127>

000003a2 <.L126>:
                            q = q->next;
     3a2:	439c                	lw	a5,0(a5)

000003a4 <.LVL139>:
                psize++;
     3a4:	0905                	addi	s2,s2,1
     3a6:	85ca                	mv	a1,s2

000003a8 <.LVL140>:
                if (!q) break;
     3a8:	cf85                	beqz	a5,3e0 <.L127>

000003aa <.LVL141>:
                            q = q->next;
     3aa:	439c                	lw	a5,0(a5)

000003ac <.LVL142>:
                psize++;
     3ac:	0905                	addi	s2,s2,1

000003ae <.LVL143>:
                if (!q) break;
     3ae:	cb8d                	beqz	a5,3e0 <.L127>

000003b0 <.LVL144>:
                            q = q->next;
     3b0:	439c                	lw	a5,0(a5)

000003b2 <.LVL145>:
                psize++;
     3b2:	00258913          	addi	s2,a1,2

000003b6 <.LVL146>:
                if (!q) break;
     3b6:	c78d                	beqz	a5,3e0 <.L127>

000003b8 <.LVL147>:
                            q = q->next;
     3b8:	439c                	lw	a5,0(a5)

000003ba <.LVL148>:
                psize++;
     3ba:	00358913          	addi	s2,a1,3

000003be <.LVL149>:
                if (!q) break;
     3be:	c38d                	beqz	a5,3e0 <.L127>

000003c0 <.LVL150>:
                            q = q->next;
     3c0:	439c                	lw	a5,0(a5)

000003c2 <.LVL151>:
                psize++;
     3c2:	00458913          	addi	s2,a1,4

000003c6 <.LVL152>:
                if (!q) break;
     3c6:	cf89                	beqz	a5,3e0 <.L127>

000003c8 <.LVL153>:
                            q = q->next;
     3c8:	439c                	lw	a5,0(a5)

000003ca <.LVL154>:
                psize++;
     3ca:	00558913          	addi	s2,a1,5

000003ce <.LVL155>:
                if (!q) break;
     3ce:	cb89                	beqz	a5,3e0 <.L127>

000003d0 <.LVL156>:
                            q = q->next;
     3d0:	439c                	lw	a5,0(a5)

000003d2 <.LVL157>:
                psize++;
     3d2:	00658913          	addi	s2,a1,6

000003d6 <.LVL158>:
                if (!q) break;
     3d6:	c789                	beqz	a5,3e0 <.L127>

000003d8 <.LVL159>:
                            q = q->next;
     3d8:	439c                	lw	a5,0(a5)

000003da <.LVL160>:
                psize++;
     3da:	00758913          	addi	s2,a1,7

000003de <.LVL161>:
                if (!q) break;
     3de:	f3e1                	bnez	a5,39e <.L198>

000003e0 <.L127>:
                                    list = e;
     3e0:	8a22                	mv	s4,s0
     3e2:	89de                	mv	s3,s7
     3e4:	843e                	mv	s0,a5

000003e6 <.LVL163>:
            while (psize > 0 || (qsize > 0 && q)) {
     3e6:	02090463          	beqz	s2,40e <.L200>

000003ea <.L133>:
                                } else if (qsize == 0 || !q) {
     3ea:	02098c63          	beqz	s3,422 <.L199>
     3ee:	c815                	beqz	s0,422 <.L199>
                                } else if (cmp(p->info,q->info,res) <= 0) {
     3f0:	404c                	lw	a1,4(s0)
     3f2:	004a2503          	lw	a0,4(s4)
     3f6:	866a                	mv	a2,s10
     3f8:	9b02                	jalr	s6

000003fa <.LVL164>:
     3fa:	02a05463          	blez	a0,422 <.L199>

000003fe <.LVL165>:
                                    e = q; q = q->next; qsize--;
     3fe:	8622                	mv	a2,s0
     400:	4000                	lw	s0,0(s0)

00000402 <.LVL166>:
     402:	19fd                	addi	s3,s3,-1

00000404 <.L128>:
                                if (tail) {
     404:	cc81                	beqz	s1,41c <.L140>

00000406 <.L201>:
                                    tail->next = e;
     406:	c090                	sw	a2,0(s1)
                                    list = e;
     408:	84b2                	mv	s1,a2

0000040a <.L202>:
            while (psize > 0 || (qsize > 0 && q)) {
     40a:	fe0910e3          	bnez	s2,3ea <.L133>

0000040e <.L200>:
     40e:	00098f63          	beqz	s3,42c <.L134>
     412:	cc11                	beqz	s0,42e <.L136>

00000414 <.LVL170>:
                                    e = q; q = q->next; qsize--;
     414:	8622                	mv	a2,s0
     416:	19fd                	addi	s3,s3,-1
     418:	4000                	lw	s0,0(s0)

0000041a <.LVL172>:
                                if (tail) {
     41a:	f4f5                	bnez	s1,406 <.L201>

0000041c <.L140>:
                                    list = e;
     41c:	8ab2                	mv	s5,a2
     41e:	84b2                	mv	s1,a2

00000420 <.LVL173>:
     420:	b7ed                	j	40a <.L202>

00000422 <.L199>:
                                    e = p; p = p->next; psize--;
     422:	8652                	mv	a2,s4
     424:	197d                	addi	s2,s2,-1

00000426 <.LVL175>:
     426:	000a2a03          	lw	s4,0(s4)

0000042a <.LVL176>:
     42a:	bfe9                	j	404 <.L128>

0000042c <.L134>:
        while (p) {
     42c:	fc01                	bnez	s0,344 <.L137>

0000042e <.L136>:
            tail->next = NULL;
     42e:	0004a023          	sw	zero,0(s1)
        if (nmerges <= 1)   /* allow for nmerges==0, the empty list case */
     432:	019c0863          	beq	s8,s9,442 <.L196>
        insize *= 2;
     436:	0b86                	slli	s7,s7,0x1
        p = list;
     438:	8456                	mv	s0,s5

0000043a <.LVL180>:
     43a:	b701                	j	33a <.L139>

0000043c <.L123>:
            tail->next = NULL;
     43c:	00002023          	sw	zero,0(zero) # 0 <_start>
     440:	9002                	ebreak

00000442 <.L196>:
}
     442:	50b2                	lw	ra,44(sp)
     444:	5422                	lw	s0,40(sp)

00000446 <.LVL183>:
     446:	5492                	lw	s1,36(sp)
     448:	5902                	lw	s2,32(sp)
     44a:	49f2                	lw	s3,28(sp)

0000044c <.LVL184>:
     44c:	4a62                	lw	s4,24(sp)
     44e:	4b42                	lw	s6,16(sp)

00000450 <.LVL185>:
     450:	4bb2                	lw	s7,12(sp)

00000452 <.LVL186>:
     452:	4c22                	lw	s8,8(sp)
     454:	4c92                	lw	s9,4(sp)
     456:	4d02                	lw	s10,0(sp)

00000458 <.LVL187>:
     458:	8556                	mv	a0,s5
     45a:	4ad2                	lw	s5,20(sp)
     45c:	6145                	addi	sp,sp,48
     45e:	8082                	ret

00000460 <matrix_sum>:
        As long as this value is under the parameter clipval,
        add 1 to the result if the element is bigger then the previous.

        Otherwise, reset the accumulator and add 10 to the result.
*/
ee_s16 matrix_sum(ee_u32 N, MATRES *C, MATDAT clipval) {
     460:	882a                	mv	a6,a0
        MATRES tmp=0,prev=0,cur=0;
        ee_s16 ret=0;
        ee_u32 i,j;
        for (i=0; i<N; i++) {
     462:	3e050663          	beqz	a0,84e <.L209>
     466:	40a008b3          	neg	a7,a0
     46a:	00251713          	slli	a4,a0,0x2
     46e:	972e                	add	a4,a4,a1
     470:	00289313          	slli	t1,a7,0x2
     474:	4581                	li	a1,0

00000476 <.LVL189>:
        ee_s16 ret=0;
     476:	4501                	li	a0,0

00000478 <.LVL190>:
        MATRES tmp=0,prev=0,cur=0;
     478:	4f81                	li	t6,0
     47a:	4e81                	li	t4,0
        for (i=0; i<N; i++) {
     47c:	088e                	slli	a7,a7,0x3

0000047e <.L208>:
                for (j=0; j<N; j++) {
     47e:	00e306b3          	add	a3,t1,a4
     482:	40d707b3          	sub	a5,a4,a3
     486:	ffc78293          	addi	t0,a5,-4
     48a:	0022d393          	srli	t2,t0,0x2
     48e:	00138e13          	addi	t3,t2,1
     492:	007e7793          	andi	a5,t3,7
        MATRES tmp=0,prev=0,cur=0;
     496:	8e36                	mv	t3,a3
     498:	22078063          	beqz	a5,6b8 <.L207>
     49c:	4f05                	li	t5,1
     49e:	0fe78963          	beq	a5,t5,590 <.L247>
     4a2:	4289                	li	t0,2
     4a4:	0c578463          	beq	a5,t0,56c <.L248>
     4a8:	438d                	li	t2,3
     4aa:	0a778163          	beq	a5,t2,54c <.L249>
     4ae:	4f11                	li	t5,4
     4b0:	07e78c63          	beq	a5,t5,528 <.L250>
     4b4:	4295                	li	t0,5
     4b6:	04578763          	beq	a5,t0,504 <.L251>
     4ba:	4399                	li	t2,6
     4bc:	02778463          	beq	a5,t2,4e4 <.L252>

000004c0 <.LVL192>:
                        cur=C[i*N+j];
     4c0:	8e7e                	mv	t3,t6

000004c2 <.LVL193>:
     4c2:	0006af83          	lw	t6,0(a3)

000004c6 <.LVL194>:
                        tmp+=cur;
                        if (tmp>clipval) {
                                ret+=10;
     4c6:	0542                	slli	a0,a0,0x10
     4c8:	01055f13          	srli	t5,a0,0x10
                        tmp+=cur;
     4cc:	9efe                	add	t4,t4,t6

000004ce <.LVL195>:
                        if (tmp>clipval) {
     4ce:	37d65763          	bge	a2,t4,83c <.L256>
                                ret+=10;
     4d2:	00af0e93          	addi	t4,t5,10

000004d6 <.LVL196>:
     4d6:	010e9e13          	slli	t3,t4,0x10
     4da:	410e5513          	srai	a0,t3,0x10

000004de <.LVL197>:
                                tmp=0;
     4de:	4e81                	li	t4,0

000004e0 <.L257>:
                for (j=0; j<N; j++) {
     4e0:	00468e13          	addi	t3,a3,4

000004e4 <.L252>:
                        cur=C[i*N+j];
     4e4:	8f7e                	mv	t5,t6

000004e6 <.LVL200>:
     4e6:	000e2f83          	lw	t6,0(t3)

000004ea <.LVL201>:
                                ret+=10;
     4ea:	0542                	slli	a0,a0,0x10
     4ec:	01055293          	srli	t0,a0,0x10
                        tmp+=cur;
     4f0:	9efe                	add	t4,t4,t6

000004f2 <.LVL202>:
                        if (tmp>clipval) {
     4f2:	33d65c63          	bge	a2,t4,82a <.L258>
                                ret+=10;
     4f6:	00a28e93          	addi	t4,t0,10

000004fa <.LVL203>:
     4fa:	010e9513          	slli	a0,t4,0x10
     4fe:	8541                	srai	a0,a0,0x10

00000500 <.LVL204>:
                                tmp=0;
     500:	4e81                	li	t4,0

00000502 <.L259>:
                for (j=0; j<N; j++) {
     502:	0e11                	addi	t3,t3,4

00000504 <.L251>:
                        cur=C[i*N+j];
     504:	82fe                	mv	t0,t6

00000506 <.LVL207>:
     506:	000e2f83          	lw	t6,0(t3)

0000050a <.LVL208>:
                                ret+=10;
     50a:	01051793          	slli	a5,a0,0x10
     50e:	0107d393          	srli	t2,a5,0x10
                        tmp+=cur;
     512:	9efe                	add	t4,t4,t6

00000514 <.LVL209>:
                        if (tmp>clipval) {
     514:	31d65263          	bge	a2,t4,818 <.L260>
                                ret+=10;
     518:	00a38e93          	addi	t4,t2,10

0000051c <.LVL210>:
     51c:	010e9793          	slli	a5,t4,0x10
     520:	4107d513          	srai	a0,a5,0x10

00000524 <.LVL211>:
                                tmp=0;
     524:	4e81                	li	t4,0

00000526 <.L261>:
                for (j=0; j<N; j++) {
     526:	0e11                	addi	t3,t3,4

00000528 <.L250>:
                        cur=C[i*N+j];
     528:	83fe                	mv	t2,t6

0000052a <.LVL214>:
     52a:	000e2f83          	lw	t6,0(t3)

0000052e <.LVL215>:
                                ret+=10;
     52e:	01051f13          	slli	t5,a0,0x10
     532:	010f5513          	srli	a0,t5,0x10
                        tmp+=cur;
     536:	9efe                	add	t4,t4,t6

00000538 <.LVL216>:
                        if (tmp>clipval) {
     538:	2dd65763          	bge	a2,t4,806 <.L262>
                                ret+=10;
     53c:	00a50e93          	addi	t4,a0,10

00000540 <.LVL217>:
     540:	010e9f13          	slli	t5,t4,0x10
     544:	410f5513          	srai	a0,t5,0x10

00000548 <.LVL218>:
                                tmp=0;
     548:	4e81                	li	t4,0

0000054a <.L263>:
                for (j=0; j<N; j++) {
     54a:	0e11                	addi	t3,t3,4

0000054c <.L249>:
                        cur=C[i*N+j];
     54c:	82fe                	mv	t0,t6

0000054e <.LVL221>:
     54e:	000e2f83          	lw	t6,0(t3)

00000552 <.LVL222>:
                                ret+=10;
     552:	0542                	slli	a0,a0,0x10
     554:	01055393          	srli	t2,a0,0x10
                        tmp+=cur;
     558:	9efe                	add	t4,t4,t6

0000055a <.LVL223>:
                        if (tmp>clipval) {
     55a:	29d65d63          	bge	a2,t4,7f4 <.L264>
                                ret+=10;
     55e:	00a38e93          	addi	t4,t2,10

00000562 <.LVL224>:
     562:	010e9513          	slli	a0,t4,0x10
     566:	8541                	srai	a0,a0,0x10

00000568 <.LVL225>:
                                tmp=0;
     568:	4e81                	li	t4,0

0000056a <.L265>:
                for (j=0; j<N; j++) {
     56a:	0e11                	addi	t3,t3,4

0000056c <.L248>:
                        cur=C[i*N+j];
     56c:	83fe                	mv	t2,t6

0000056e <.LVL228>:
     56e:	000e2f83          	lw	t6,0(t3)

00000572 <.LVL229>:
                                ret+=10;
     572:	01051793          	slli	a5,a0,0x10
     576:	0107df13          	srli	t5,a5,0x10
                        tmp+=cur;
     57a:	9efe                	add	t4,t4,t6

0000057c <.LVL230>:
                        if (tmp>clipval) {
     57c:	27d65363          	bge	a2,t4,7e2 <.L266>
                                ret+=10;
     580:	00af0e93          	addi	t4,t5,10

00000584 <.LVL231>:
     584:	010e9793          	slli	a5,t4,0x10
     588:	4107d513          	srai	a0,a5,0x10

0000058c <.LVL232>:
                                tmp=0;
     58c:	4e81                	li	t4,0

0000058e <.L267>:
                for (j=0; j<N; j++) {
     58e:	0e11                	addi	t3,t3,4

00000590 <.L247>:
                        cur=C[i*N+j];
     590:	8f7e                	mv	t5,t6

00000592 <.LVL235>:
     592:	000e2f83          	lw	t6,0(t3)

00000596 <.LVL236>:
                                ret+=10;
     596:	01051293          	slli	t0,a0,0x10
     59a:	0102d513          	srli	a0,t0,0x10
                        tmp+=cur;
     59e:	9efe                	add	t4,t4,t6

000005a0 <.LVL237>:
                        if (tmp>clipval) {
     5a0:	23d65863          	bge	a2,t4,7d0 <.L268>
                                ret+=10;
     5a4:	00a50e93          	addi	t4,a0,10

000005a8 <.LVL238>:
     5a8:	010e9293          	slli	t0,t4,0x10
     5ac:	4102d513          	srai	a0,t0,0x10

000005b0 <.LVL239>:
                                tmp=0;
     5b0:	4e81                	li	t4,0

000005b2 <.L269>:
                for (j=0; j<N; j++) {
     5b2:	0e11                	addi	t3,t3,4

000005b4 <.LVL241>:
     5b4:	11c71263          	bne	a4,t3,6b8 <.L207>

000005b8 <.L270>:
        for (i=0; i<N; i++) {
     5b8:	0585                	addi	a1,a1,1
     5ba:	41168733          	sub	a4,a3,a7
     5be:	ecb810e3          	bne	a6,a1,47e <.L208>
     5c2:	8082                	ret

000005c4 <.L285>:
                        } else {
                                ret += (cur>prev) ? 1 : 0;
     5c4:	007fafb3          	slt	t6,t6,t2
     5c8:	01ff07b3          	add	a5,t5,t6
                        cur=C[i*N+j];
     5cc:	004e2f83          	lw	t6,4(t3)
                                ret += (cur>prev) ? 1 : 0;
     5d0:	01079293          	slli	t0,a5,0x10
     5d4:	4102df13          	srai	t5,t0,0x10
                                ret+=10;
     5d8:	010f1793          	slli	a5,t5,0x10
                        tmp+=cur;
     5dc:	01fe8533          	add	a0,t4,t6
                for (j=0; j<N; j++) {
     5e0:	0e11                	addi	t3,t3,4
                                ret+=10;
     5e2:	0107d293          	srli	t0,a5,0x10
                        if (tmp>clipval) {
     5e6:	10a65363          	bge	a2,a0,6ec <.L284>

000005ea <.L233>:
                        cur=C[i*N+j];
     5ea:	004e2383          	lw	t2,4(t3)
                                ret+=10;
     5ee:	02a9                	addi	t0,t0,10
     5f0:	01029513          	slli	a0,t0,0x10
     5f4:	41055793          	srai	a5,a0,0x10

000005f8 <.LVL244>:
                                tmp=0;
     5f8:	4501                	li	a0,0

000005fa <.LVL245>:
                                ret+=10;
     5fa:	01079f13          	slli	t5,a5,0x10
                        tmp+=cur;
     5fe:	00750eb3          	add	t4,a0,t2
                                ret+=10;
     602:	010f5793          	srli	a5,t5,0x10
                        if (tmp>clipval) {
     606:	11d65563          	bge	a2,t4,710 <.L272>

0000060a <.L286>:
                        cur=C[i*N+j];
     60a:	008e2f83          	lw	t6,8(t3)
                                ret+=10;
     60e:	07a9                	addi	a5,a5,10
     610:	01079e93          	slli	t4,a5,0x10
     614:	410edf13          	srai	t5,t4,0x10

00000618 <.LVL246>:
                                tmp=0;
     618:	4e81                	li	t4,0

0000061a <.LVL247>:
                                ret+=10;
     61a:	010f1293          	slli	t0,t5,0x10
                        tmp+=cur;
     61e:	9efe                	add	t4,t4,t6
                                ret+=10;
     620:	0102d513          	srli	a0,t0,0x10
                        if (tmp>clipval) {
     624:	11d65763          	bge	a2,t4,732 <.L274>

00000628 <.L287>:
                        cur=C[i*N+j];
     628:	00ce2383          	lw	t2,12(t3)
                                ret+=10;
     62c:	0529                	addi	a0,a0,10
     62e:	01051e93          	slli	t4,a0,0x10
     632:	410ed293          	srai	t0,t4,0x10

00000636 <.LVL248>:
                                tmp=0;
     636:	4e81                	li	t4,0

00000638 <.LVL249>:
                                ret+=10;
     638:	01029f13          	slli	t5,t0,0x10
                        tmp+=cur;
     63c:	007e82b3          	add	t0,t4,t2
                                ret+=10;
     640:	010f5793          	srli	a5,t5,0x10
                        if (tmp>clipval) {
     644:	10565963          	bge	a2,t0,756 <.L276>

00000648 <.L288>:
                                ret+=10;
     648:	07a9                	addi	a5,a5,10
                        cur=C[i*N+j];
     64a:	010e2f83          	lw	t6,16(t3)
                                ret+=10;
     64e:	01079293          	slli	t0,a5,0x10
     652:	4102df13          	srai	t5,t0,0x10

00000656 <.LVL250>:
                                tmp=0;
     656:	4281                	li	t0,0

00000658 <.LVL251>:
                                ret+=10;
     658:	010f1513          	slli	a0,t5,0x10
                        tmp+=cur;
     65c:	01f28eb3          	add	t4,t0,t6
                                ret+=10;
     660:	01055793          	srli	a5,a0,0x10
                        if (tmp>clipval) {
     664:	11d65b63          	bge	a2,t4,77a <.L278>

00000668 <.L289>:
                        cur=C[i*N+j];
     668:	014e2383          	lw	t2,20(t3)
                                ret+=10;
     66c:	07a9                	addi	a5,a5,10
     66e:	01079e93          	slli	t4,a5,0x10
     672:	410ed513          	srai	a0,t4,0x10

00000676 <.LVL252>:
                                tmp=0;
     676:	4e81                	li	t4,0

00000678 <.LVL253>:
                                ret+=10;
     678:	01051f13          	slli	t5,a0,0x10
                        tmp+=cur;
     67c:	9e9e                	add	t4,t4,t2
                                ret+=10;
     67e:	010f5293          	srli	t0,t5,0x10
                        if (tmp>clipval) {
     682:	11d65d63          	bge	a2,t4,79c <.L280>

00000686 <.L290>:
                        cur=C[i*N+j];
     686:	018e2f83          	lw	t6,24(t3)
                                ret+=10;
     68a:	02a9                	addi	t0,t0,10
     68c:	01029e93          	slli	t4,t0,0x10
     690:	410edf13          	srai	t5,t4,0x10

00000694 <.LVL254>:
                                tmp=0;
     694:	4e81                	li	t4,0

00000696 <.LVL255>:
                                ret+=10;
     696:	010f1513          	slli	a0,t5,0x10
                        tmp+=cur;
     69a:	9efe                	add	t4,t4,t6

0000069c <.LVL256>:
                                ret+=10;
     69c:	01055793          	srli	a5,a0,0x10
                        if (tmp>clipval) {
     6a0:	11d65f63          	bge	a2,t4,7be <.L282>

000006a4 <.L291>:
                                ret+=10;
     6a4:	00a78513          	addi	a0,a5,10
     6a8:	01051793          	slli	a5,a0,0x10
     6ac:	4107d513          	srai	a0,a5,0x10

000006b0 <.LVL258>:
                                tmp=0;
     6b0:	4e81                	li	t4,0

000006b2 <.L283>:
                for (j=0; j<N; j++) {
     6b2:	0e71                	addi	t3,t3,28
     6b4:	f1c702e3          	beq	a4,t3,5b8 <.L270>

000006b8 <.L207>:
                        cur=C[i*N+j];
     6b8:	000e2383          	lw	t2,0(t3)
                                ret+=10;
     6bc:	0542                	slli	a0,a0,0x10
     6be:	01055f13          	srli	t5,a0,0x10
                        tmp+=cur;
     6c2:	9e9e                	add	t4,t4,t2
                        if (tmp>clipval) {
     6c4:	f1d650e3          	bge	a2,t4,5c4 <.L285>
                                ret+=10;
     6c8:	00af0e93          	addi	t4,t5,10
                        cur=C[i*N+j];
     6cc:	004e2f83          	lw	t6,4(t3)
                                ret+=10;
     6d0:	010e9513          	slli	a0,t4,0x10
     6d4:	41055f13          	srai	t5,a0,0x10

000006d8 <.LVL261>:
                                tmp=0;
     6d8:	4e81                	li	t4,0

000006da <.LVL262>:
                                ret+=10;
     6da:	010f1793          	slli	a5,t5,0x10
                        tmp+=cur;
     6de:	01fe8533          	add	a0,t4,t6
                for (j=0; j<N; j++) {
     6e2:	0e11                	addi	t3,t3,4
                                ret+=10;
     6e4:	0107d293          	srli	t0,a5,0x10
                        if (tmp>clipval) {
     6e8:	f0a641e3          	blt	a2,a0,5ea <.L233>

000006ec <.L284>:
                                ret += (cur>prev) ? 1 : 0;
     6ec:	01f3a3b3          	slt	t2,t2,t6
     6f0:	00728f33          	add	t5,t0,t2
                        cur=C[i*N+j];
     6f4:	004e2383          	lw	t2,4(t3)
                                ret += (cur>prev) ? 1 : 0;
     6f8:	010f1e93          	slli	t4,t5,0x10
     6fc:	410ed793          	srai	a5,t4,0x10
                                ret+=10;
     700:	01079f13          	slli	t5,a5,0x10
                        tmp+=cur;
     704:	00750eb3          	add	t4,a0,t2
                                ret+=10;
     708:	010f5793          	srli	a5,t5,0x10
                        if (tmp>clipval) {
     70c:	efd64fe3          	blt	a2,t4,60a <.L286>

00000710 <.L272>:
                                ret += (cur>prev) ? 1 : 0;
     710:	007fafb3          	slt	t6,t6,t2
     714:	01f782b3          	add	t0,a5,t6
                        cur=C[i*N+j];
     718:	008e2f83          	lw	t6,8(t3)
                                ret += (cur>prev) ? 1 : 0;
     71c:	01029513          	slli	a0,t0,0x10
     720:	41055f13          	srai	t5,a0,0x10
                                ret+=10;
     724:	010f1293          	slli	t0,t5,0x10
                        tmp+=cur;
     728:	9efe                	add	t4,t4,t6
                                ret+=10;
     72a:	0102d513          	srli	a0,t0,0x10
                        if (tmp>clipval) {
     72e:	efd64de3          	blt	a2,t4,628 <.L287>

00000732 <.L274>:
                                ret += (cur>prev) ? 1 : 0;
     732:	01f3a3b3          	slt	t2,t2,t6
     736:	00750f33          	add	t5,a0,t2
                        cur=C[i*N+j];
     73a:	00ce2383          	lw	t2,12(t3)
                                ret += (cur>prev) ? 1 : 0;
     73e:	010f1793          	slli	a5,t5,0x10
     742:	4107d293          	srai	t0,a5,0x10
                                ret+=10;
     746:	01029f13          	slli	t5,t0,0x10
                        tmp+=cur;
     74a:	007e82b3          	add	t0,t4,t2
                                ret+=10;
     74e:	010f5793          	srli	a5,t5,0x10
                        if (tmp>clipval) {
     752:	ee564be3          	blt	a2,t0,648 <.L288>

00000756 <.L276>:
                                ret += (cur>prev) ? 1 : 0;
     756:	007fafb3          	slt	t6,t6,t2
     75a:	01f78533          	add	a0,a5,t6
                        cur=C[i*N+j];
     75e:	010e2f83          	lw	t6,16(t3)
                                ret += (cur>prev) ? 1 : 0;
     762:	01051e93          	slli	t4,a0,0x10
     766:	410edf13          	srai	t5,t4,0x10
                                ret+=10;
     76a:	010f1513          	slli	a0,t5,0x10
                        tmp+=cur;
     76e:	01f28eb3          	add	t4,t0,t6
                                ret+=10;
     772:	01055793          	srli	a5,a0,0x10
                        if (tmp>clipval) {
     776:	efd649e3          	blt	a2,t4,668 <.L289>

0000077a <.L278>:
                                ret += (cur>prev) ? 1 : 0;
     77a:	01f3a3b3          	slt	t2,t2,t6
     77e:	00778f33          	add	t5,a5,t2
                        cur=C[i*N+j];
     782:	014e2383          	lw	t2,20(t3)
                                ret += (cur>prev) ? 1 : 0;
     786:	010f1293          	slli	t0,t5,0x10
     78a:	4102d513          	srai	a0,t0,0x10
                                ret+=10;
     78e:	01051f13          	slli	t5,a0,0x10
                        tmp+=cur;
     792:	9e9e                	add	t4,t4,t2
                                ret+=10;
     794:	010f5293          	srli	t0,t5,0x10
                        if (tmp>clipval) {
     798:	efd647e3          	blt	a2,t4,686 <.L290>

0000079c <.L280>:
                                ret += (cur>prev) ? 1 : 0;
     79c:	007fafb3          	slt	t6,t6,t2
     7a0:	01f28533          	add	a0,t0,t6
                        cur=C[i*N+j];
     7a4:	018e2f83          	lw	t6,24(t3)
                                ret += (cur>prev) ? 1 : 0;
     7a8:	01051793          	slli	a5,a0,0x10
     7ac:	4107df13          	srai	t5,a5,0x10

000007b0 <.LVL263>:
                                ret+=10;
     7b0:	010f1513          	slli	a0,t5,0x10
                        tmp+=cur;
     7b4:	9efe                	add	t4,t4,t6

000007b6 <.LVL264>:
                                ret+=10;
     7b6:	01055793          	srli	a5,a0,0x10
                        if (tmp>clipval) {
     7ba:	efd645e3          	blt	a2,t4,6a4 <.L291>

000007be <.L282>:
                                ret += (cur>prev) ? 1 : 0;
     7be:	01f3a3b3          	slt	t2,t2,t6
     7c2:	00778f33          	add	t5,a5,t2
     7c6:	010f1293          	slli	t0,t5,0x10
     7ca:	4102d513          	srai	a0,t0,0x10
     7ce:	b5d5                	j	6b2 <.L283>

000007d0 <.L268>:
     7d0:	01ff23b3          	slt	t2,t5,t6
     7d4:	007507b3          	add	a5,a0,t2

000007d8 <.LVL265>:
     7d8:	01079f13          	slli	t5,a5,0x10
     7dc:	410f5513          	srai	a0,t5,0x10
     7e0:	bbc9                	j	5b2 <.L269>

000007e2 <.L266>:
     7e2:	01f3a2b3          	slt	t0,t2,t6
     7e6:	005f0533          	add	a0,t5,t0

000007ea <.LVL267>:
     7ea:	01051393          	slli	t2,a0,0x10
     7ee:	4103d513          	srai	a0,t2,0x10

000007f2 <.LVL268>:
     7f2:	bb71                	j	58e <.L267>

000007f4 <.L264>:
     7f4:	01f2a7b3          	slt	a5,t0,t6
     7f8:	00f38f33          	add	t5,t2,a5

000007fc <.LVL270>:
     7fc:	010f1293          	slli	t0,t5,0x10
     800:	4102d513          	srai	a0,t0,0x10
     804:	b39d                	j	56a <.L265>

00000806 <.L262>:
     806:	01f3a2b3          	slt	t0,t2,t6
     80a:	005507b3          	add	a5,a0,t0

0000080e <.LVL272>:
     80e:	01079393          	slli	t2,a5,0x10
     812:	4103d513          	srai	a0,t2,0x10
     816:	bb15                	j	54a <.L263>

00000818 <.L260>:
     818:	01f2af33          	slt	t5,t0,t6
     81c:	01e38533          	add	a0,t2,t5

00000820 <.LVL274>:
     820:	01051293          	slli	t0,a0,0x10
     824:	4102d513          	srai	a0,t0,0x10

00000828 <.LVL275>:
     828:	b9fd                	j	526 <.L261>

0000082a <.L258>:
     82a:	01ff27b3          	slt	a5,t5,t6
     82e:	00f283b3          	add	t2,t0,a5

00000832 <.LVL277>:
     832:	01039f13          	slli	t5,t2,0x10
     836:	410f5513          	srai	a0,t5,0x10
     83a:	b1e1                	j	502 <.L259>

0000083c <.L256>:
     83c:	01fe27b3          	slt	a5,t3,t6
     840:	00ff02b3          	add	t0,t5,a5

00000844 <.LVL279>:
     844:	01029393          	slli	t2,t0,0x10
     848:	4103d513          	srai	a0,t2,0x10
     84c:	b951                	j	4e0 <.L257>

0000084e <.L209>:
        ee_s16 ret=0;
     84e:	4501                	li	a0,0

00000850 <.LVL281>:
                        }
                        prev=cur;
                }
        }
        return ret;
}
     850:	8082                	ret

00000852 <matrix_mul_const>:
        Multiply a matrix by a constant.
        This could be used as a scaler for instance.
*/
void matrix_mul_const(ee_u32 N, MATRES *C, MATDAT *A, MATDAT val) {
        ee_u32 i,j;
        for (i=0; i<N; i++) {
     852:	16050163          	beqz	a0,9b4 <.L331>
void matrix_mul_const(ee_u32 N, MATRES *C, MATDAT *A, MATDAT val) {
     856:	1141                	addi	sp,sp,-16
     858:	40a003b3          	neg	t2,a0
     85c:	00151813          	slli	a6,a0,0x1
     860:	c622                	sw	s0,12(sp)
     862:	c426                	sw	s1,8(sp)
     864:	00139413          	slli	s0,t2,0x1
     868:	c24a                	sw	s2,4(sp)
     86a:	c04e                	sw	s3,0(sp)
     86c:	9832                	add	a6,a6,a2
                for (j=0; j<N; j++) {
                        C[i*N+j]=(MATRES)A[i*N+j] * (MATRES)val;
     86e:	4f81                	li	t6,0
        for (i=0; i<N; i++) {
     870:	4281                	li	t0,0
     872:	038a                	slli	t2,t2,0x2

00000874 <.L294>:
                for (j=0; j<N; j++) {
     874:	010408b3          	add	a7,s0,a6
     878:	41180633          	sub	a2,a6,a7
     87c:	ffe60313          	addi	t1,a2,-2
     880:	00135493          	srli	s1,t1,0x1
     884:	00148713          	addi	a4,s1,1
     888:	002f9793          	slli	a5,t6,0x2
     88c:	00777913          	andi	s2,a4,7
     890:	97ae                	add	a5,a5,a1
void matrix_mul_const(ee_u32 N, MATRES *C, MATDAT *A, MATDAT val) {
     892:	8746                	mv	a4,a7
     894:	08090f63          	beqz	s2,932 <.L295>
     898:	4985                	li	s3,1
     89a:	09390263          	beq	s2,s3,91e <.L320>
     89e:	4e09                	li	t3,2
     8a0:	07c90763          	beq	s2,t3,90e <.L321>
     8a4:	4e8d                	li	t4,3
     8a6:	05d90c63          	beq	s2,t4,8fe <.L322>
     8aa:	4f11                	li	t5,4
     8ac:	05e90163          	beq	s2,t5,8ee <.L323>
     8b0:	4615                	li	a2,5
     8b2:	02c90663          	beq	s2,a2,8de <.L324>
     8b6:	4319                	li	t1,6
     8b8:	00690b63          	beq	s2,t1,8ce <.L325>

000008bc <.LVL284>:
                        C[i*N+j]=(MATRES)A[i*N+j] * (MATRES)val;
     8bc:	00089483          	lh	s1,0(a7)
                for (j=0; j<N; j++) {
     8c0:	00288713          	addi	a4,a7,2
     8c4:	0791                	addi	a5,a5,4
                        C[i*N+j]=(MATRES)A[i*N+j] * (MATRES)val;
     8c6:	02d48933          	mul	s2,s1,a3
     8ca:	ff27ae23          	sw	s2,-4(a5)

000008ce <.L325>:
     8ce:	00071983          	lh	s3,0(a4)
                for (j=0; j<N; j++) {
     8d2:	0791                	addi	a5,a5,4
     8d4:	0709                	addi	a4,a4,2
                        C[i*N+j]=(MATRES)A[i*N+j] * (MATRES)val;
     8d6:	02d98e33          	mul	t3,s3,a3
     8da:	ffc7ae23          	sw	t3,-4(a5)

000008de <.L324>:
     8de:	00071e83          	lh	t4,0(a4)
                for (j=0; j<N; j++) {
     8e2:	0791                	addi	a5,a5,4
     8e4:	0709                	addi	a4,a4,2
                        C[i*N+j]=(MATRES)A[i*N+j] * (MATRES)val;
     8e6:	02de8f33          	mul	t5,t4,a3
     8ea:	ffe7ae23          	sw	t5,-4(a5)

000008ee <.L323>:
     8ee:	00071603          	lh	a2,0(a4)
                for (j=0; j<N; j++) {
     8f2:	0791                	addi	a5,a5,4
     8f4:	0709                	addi	a4,a4,2
                        C[i*N+j]=(MATRES)A[i*N+j] * (MATRES)val;
     8f6:	02d60333          	mul	t1,a2,a3
     8fa:	fe67ae23          	sw	t1,-4(a5)

000008fe <.L322>:
     8fe:	00071483          	lh	s1,0(a4)
                for (j=0; j<N; j++) {
     902:	0791                	addi	a5,a5,4
     904:	0709                	addi	a4,a4,2
                        C[i*N+j]=(MATRES)A[i*N+j] * (MATRES)val;
     906:	02d48933          	mul	s2,s1,a3
     90a:	ff27ae23          	sw	s2,-4(a5)

0000090e <.L321>:
     90e:	00071983          	lh	s3,0(a4)
                for (j=0; j<N; j++) {
     912:	0791                	addi	a5,a5,4
     914:	0709                	addi	a4,a4,2
                        C[i*N+j]=(MATRES)A[i*N+j] * (MATRES)val;
     916:	02d98e33          	mul	t3,s3,a3
     91a:	ffc7ae23          	sw	t3,-4(a5)

0000091e <.L320>:
     91e:	00071e83          	lh	t4,0(a4)
                for (j=0; j<N; j++) {
     922:	0791                	addi	a5,a5,4
     924:	0709                	addi	a4,a4,2
                        C[i*N+j]=(MATRES)A[i*N+j] * (MATRES)val;
     926:	02de8f33          	mul	t5,t4,a3
     92a:	ffe7ae23          	sw	t5,-4(a5)
                for (j=0; j<N; j++) {
     92e:	06e80763          	beq	a6,a4,99c <.L329>

00000932 <.L295>:
                        C[i*N+j]=(MATRES)A[i*N+j] * (MATRES)val;
     932:	00071983          	lh	s3,0(a4)
     936:	00271903          	lh	s2,2(a4)
     93a:	00471483          	lh	s1,4(a4)
     93e:	00671f03          	lh	t5,6(a4)
     942:	00871e83          	lh	t4,8(a4)
     946:	00a71e03          	lh	t3,10(a4)
     94a:	00c71303          	lh	t1,12(a4)
     94e:	00e71603          	lh	a2,14(a4)
     952:	02d989b3          	mul	s3,s3,a3
                for (j=0; j<N; j++) {
     956:	0741                	addi	a4,a4,16
     958:	02078793          	addi	a5,a5,32
                        C[i*N+j]=(MATRES)A[i*N+j] * (MATRES)val;
     95c:	02d90933          	mul	s2,s2,a3
     960:	ff37a023          	sw	s3,-32(a5)
     964:	02d484b3          	mul	s1,s1,a3
     968:	ff27a223          	sw	s2,-28(a5)
     96c:	02df0f33          	mul	t5,t5,a3
     970:	fe97a423          	sw	s1,-24(a5)
     974:	02de8eb3          	mul	t4,t4,a3
     978:	ffe7a623          	sw	t5,-20(a5)
     97c:	02de0e33          	mul	t3,t3,a3
     980:	ffd7a823          	sw	t4,-16(a5)
     984:	02d30333          	mul	t1,t1,a3
     988:	ffc7aa23          	sw	t3,-12(a5)
     98c:	02d60633          	mul	a2,a2,a3
     990:	fe67ac23          	sw	t1,-8(a5)
     994:	fec7ae23          	sw	a2,-4(a5)
                for (j=0; j<N; j++) {
     998:	f8e81de3          	bne	a6,a4,932 <.L295>

0000099c <.L329>:
        for (i=0; i<N; i++) {
     99c:	0285                	addi	t0,t0,1
     99e:	9faa                	add	t6,t6,a0
     9a0:	40788833          	sub	a6,a7,t2
     9a4:	ec5518e3          	bne	a0,t0,874 <.L294>
                }
        }
}
     9a8:	4432                	lw	s0,12(sp)
     9aa:	44a2                	lw	s1,8(sp)
     9ac:	4912                	lw	s2,4(sp)
     9ae:	4982                	lw	s3,0(sp)
     9b0:	0141                	addi	sp,sp,16
     9b2:	8082                	ret

000009b4 <.L331>:
     9b4:	8082                	ret

000009b6 <matrix_add_const>:
/* Function: matrix_add_const
        Add a constant value to all elements of a matrix.
*/
void matrix_add_const(ee_u32 N, MATDAT *A, MATDAT val) {
        ee_u32 i,j;
        for (i=0; i<N; i++) {
     9b6:	1e050063          	beqz	a0,b96 <.L373>
     9ba:	40a002b3          	neg	t0,a0
                for (j=0; j<N; j++) {
                        A[i*N+j] += val;
     9be:	01061693          	slli	a3,a2,0x10
     9c2:	00151793          	slli	a5,a0,0x1
     9c6:	00129393          	slli	t2,t0,0x1
     9ca:	82c1                	srli	a3,a3,0x10
     9cc:	00f58633          	add	a2,a1,a5

000009d0 <.LVL288>:
        for (i=0; i<N; i++) {
     9d0:	4f81                	li	t6,0
     9d2:	028a                	slli	t0,t0,0x2

000009d4 <.L374>:
                for (j=0; j<N; j++) {
     9d4:	00c385b3          	add	a1,t2,a2
     9d8:	40b60733          	sub	a4,a2,a1
     9dc:	ffe70313          	addi	t1,a4,-2
     9e0:	00135813          	srli	a6,t1,0x1
     9e4:	00180893          	addi	a7,a6,1
     9e8:	0078fe13          	andi	t3,a7,7
void matrix_add_const(ee_u32 N, MATDAT *A, MATDAT val) {
     9ec:	87ae                	mv	a5,a1
     9ee:	080e0863          	beqz	t3,a7e <.L391>
     9f2:	4e85                	li	t4,1
     9f4:	07de0c63          	beq	t3,t4,a6c <.L377>
     9f8:	4f09                	li	t5,2
     9fa:	07ee0263          	beq	t3,t5,a5e <.L379>
     9fe:	470d                	li	a4,3
     a00:	04ee0863          	beq	t3,a4,a50 <.L381>
     a04:	4311                	li	t1,4
     a06:	026e0e63          	beq	t3,t1,a42 <.L383>
     a0a:	4815                	li	a6,5
     a0c:	030e0463          	beq	t3,a6,a34 <.L385>
     a10:	4899                	li	a7,6
     a12:	011e0a63          	beq	t3,a7,a26 <.L387>

00000a16 <.LVL290>:
                        A[i*N+j] += val;
     a16:	0005de03          	lhu	t3,0(a1)
                for (j=0; j<N; j++) {
     a1a:	00258793          	addi	a5,a1,2
                        A[i*N+j] += val;
     a1e:	01c68eb3          	add	t4,a3,t3
     a22:	01d59023          	sh	t4,0(a1)

00000a26 <.L387>:
     a26:	0007df03          	lhu	t5,0(a5)
                for (j=0; j<N; j++) {
     a2a:	0789                	addi	a5,a5,2
                        A[i*N+j] += val;
     a2c:	01e68733          	add	a4,a3,t5
     a30:	fee79f23          	sh	a4,-2(a5)

00000a34 <.L385>:
     a34:	0007d303          	lhu	t1,0(a5)
                for (j=0; j<N; j++) {
     a38:	0789                	addi	a5,a5,2
                        A[i*N+j] += val;
     a3a:	00668833          	add	a6,a3,t1
     a3e:	ff079f23          	sh	a6,-2(a5)

00000a42 <.L383>:
     a42:	0007d883          	lhu	a7,0(a5)
                for (j=0; j<N; j++) {
     a46:	0789                	addi	a5,a5,2
                        A[i*N+j] += val;
     a48:	01168e33          	add	t3,a3,a7
     a4c:	ffc79f23          	sh	t3,-2(a5)

00000a50 <.L381>:
     a50:	0007de83          	lhu	t4,0(a5)
                for (j=0; j<N; j++) {
     a54:	0789                	addi	a5,a5,2
                        A[i*N+j] += val;
     a56:	01d68f33          	add	t5,a3,t4
     a5a:	ffe79f23          	sh	t5,-2(a5)

00000a5e <.L379>:
     a5e:	0007d703          	lhu	a4,0(a5)
                for (j=0; j<N; j++) {
     a62:	0789                	addi	a5,a5,2
                        A[i*N+j] += val;
     a64:	00e68333          	add	t1,a3,a4
     a68:	fe679f23          	sh	t1,-2(a5)

00000a6c <.L377>:
     a6c:	0007d803          	lhu	a6,0(a5)
                for (j=0; j<N; j++) {
     a70:	0789                	addi	a5,a5,2
                        A[i*N+j] += val;
     a72:	010688b3          	add	a7,a3,a6
     a76:	ff179f23          	sh	a7,-2(a5)
                for (j=0; j<N; j++) {
     a7a:	10f60963          	beq	a2,a5,b8c <.L390>

00000a7e <.L391>:
void matrix_add_const(ee_u32 N, MATDAT *A, MATDAT val) {
     a7e:	1141                	addi	sp,sp,-16
     a80:	c622                	sw	s0,12(sp)

00000a82 <.L337>:
                        A[i*N+j] += val;
     a82:	0007d403          	lhu	s0,0(a5)
     a86:	0027df03          	lhu	t5,2(a5)
     a8a:	0047de83          	lhu	t4,4(a5)
     a8e:	0067de03          	lhu	t3,6(a5)
     a92:	0087d303          	lhu	t1,8(a5)
     a96:	00a7d883          	lhu	a7,10(a5)
     a9a:	00c7d803          	lhu	a6,12(a5)
     a9e:	00e7d703          	lhu	a4,14(a5)
     aa2:	9436                	add	s0,s0,a3
     aa4:	9f36                	add	t5,t5,a3
     aa6:	9eb6                	add	t4,t4,a3
     aa8:	9e36                	add	t3,t3,a3
     aaa:	9336                	add	t1,t1,a3
     aac:	98b6                	add	a7,a7,a3
     aae:	9836                	add	a6,a6,a3
     ab0:	9736                	add	a4,a4,a3
     ab2:	00879023          	sh	s0,0(a5)
     ab6:	01e79123          	sh	t5,2(a5)
     aba:	01d79223          	sh	t4,4(a5)
     abe:	01c79323          	sh	t3,6(a5)
     ac2:	00679423          	sh	t1,8(a5)
     ac6:	01179523          	sh	a7,10(a5)
     aca:	01079623          	sh	a6,12(a5)
     ace:	00e79723          	sh	a4,14(a5)
                for (j=0; j<N; j++) {
     ad2:	07c1                	addi	a5,a5,16
     ad4:	faf617e3          	bne	a2,a5,a82 <.L337>
        for (i=0; i<N; i++) {
     ad8:	0f85                	addi	t6,t6,1
     ada:	40558633          	sub	a2,a1,t0
     ade:	0bf50463          	beq	a0,t6,b86 <.L334>

00000ae2 <.L393>:
                for (j=0; j<N; j++) {
     ae2:	00c385b3          	add	a1,t2,a2
     ae6:	40b607b3          	sub	a5,a2,a1
     aea:	ffe78413          	addi	s0,a5,-2
     aee:	00145f13          	srli	t5,s0,0x1
     af2:	001f0e93          	addi	t4,t5,1
     af6:	007efe13          	andi	t3,t4,7
void matrix_add_const(ee_u32 N, MATDAT *A, MATDAT val) {
     afa:	87ae                	mv	a5,a1
     afc:	f80e03e3          	beqz	t3,a82 <.L337>
     b00:	4305                	li	t1,1
     b02:	066e0463          	beq	t3,t1,b6a <.L362>
     b06:	4889                	li	a7,2
     b08:	051e0a63          	beq	t3,a7,b5c <.L363>
     b0c:	480d                	li	a6,3
     b0e:	050e0063          	beq	t3,a6,b4e <.L364>
     b12:	4711                	li	a4,4
     b14:	02ee0663          	beq	t3,a4,b40 <.L365>
     b18:	4415                	li	s0,5
     b1a:	008e0c63          	beq	t3,s0,b32 <.L366>
     b1e:	4f19                	li	t5,6
     b20:	07ee1c63          	bne	t3,t5,b98 <.L392>

00000b24 <.L367>:
                        A[i*N+j] += val;
     b24:	0007d303          	lhu	t1,0(a5)
                for (j=0; j<N; j++) {
     b28:	0789                	addi	a5,a5,2
                        A[i*N+j] += val;
     b2a:	006688b3          	add	a7,a3,t1
     b2e:	ff179f23          	sh	a7,-2(a5)

00000b32 <.L366>:
     b32:	0007d803          	lhu	a6,0(a5)
                for (j=0; j<N; j++) {
     b36:	0789                	addi	a5,a5,2
                        A[i*N+j] += val;
     b38:	01068733          	add	a4,a3,a6
     b3c:	fee79f23          	sh	a4,-2(a5)

00000b40 <.L365>:
     b40:	0007d403          	lhu	s0,0(a5)
                for (j=0; j<N; j++) {
     b44:	0789                	addi	a5,a5,2
                        A[i*N+j] += val;
     b46:	00868f33          	add	t5,a3,s0
     b4a:	ffe79f23          	sh	t5,-2(a5)

00000b4e <.L364>:
     b4e:	0007de83          	lhu	t4,0(a5)
                for (j=0; j<N; j++) {
     b52:	0789                	addi	a5,a5,2
                        A[i*N+j] += val;
     b54:	01d68e33          	add	t3,a3,t4
     b58:	ffc79f23          	sh	t3,-2(a5)

00000b5c <.L363>:
     b5c:	0007d303          	lhu	t1,0(a5)
                for (j=0; j<N; j++) {
     b60:	0789                	addi	a5,a5,2
                        A[i*N+j] += val;
     b62:	006688b3          	add	a7,a3,t1
     b66:	ff179f23          	sh	a7,-2(a5)

00000b6a <.L362>:
     b6a:	0007d803          	lhu	a6,0(a5)
                for (j=0; j<N; j++) {
     b6e:	0789                	addi	a5,a5,2
                        A[i*N+j] += val;
     b70:	01068733          	add	a4,a3,a6
     b74:	fee79f23          	sh	a4,-2(a5)
                for (j=0; j<N; j++) {
     b78:	f0f615e3          	bne	a2,a5,a82 <.L337>
        for (i=0; i<N; i++) {
     b7c:	0f85                	addi	t6,t6,1
     b7e:	40558633          	sub	a2,a1,t0
     b82:	f7f510e3          	bne	a0,t6,ae2 <.L393>

00000b86 <.L334>:
                }
        }
}
     b86:	4432                	lw	s0,12(sp)
     b88:	0141                	addi	sp,sp,16
     b8a:	8082                	ret

00000b8c <.L390>:
        for (i=0; i<N; i++) {
     b8c:	0f85                	addi	t6,t6,1
     b8e:	40558633          	sub	a2,a1,t0
     b92:	e5f511e3          	bne	a0,t6,9d4 <.L374>

00000b96 <.L373>:
     b96:	8082                	ret

00000b98 <.L392>:
                        A[i*N+j] += val;
     b98:	0005de83          	lhu	t4,0(a1)
                for (j=0; j<N; j++) {
     b9c:	00258793          	addi	a5,a1,2
                        A[i*N+j] += val;
     ba0:	01d68e33          	add	t3,a3,t4
     ba4:	01c59023          	sh	t3,0(a1)
                for (j=0; j<N; j++) {
     ba8:	bfb5                	j	b24 <.L367>

00000baa <matrix_mul_vect>:
        Multiply a matrix by a vector.
        This is common in many simple filters (e.g. fir where a vector of coefficients is applied to the matrix.)
*/
void matrix_mul_vect(ee_u32 N, MATRES *C, MATDAT *A, MATDAT *B) {
        ee_u32 i,j;
        for (i=0; i<N; i++) {
     baa:	1a050863          	beqz	a0,d5a <.L432>
void matrix_mul_vect(ee_u32 N, MATRES *C, MATDAT *A, MATDAT *B) {
     bae:	7179                	addi	sp,sp,-48
     bb0:	d226                	sw	s1,36(sp)
     bb2:	84aa                	mv	s1,a0
     bb4:	ce4e                	sw	s3,28(sp)
                C[i]=0;
     bb6:	00249993          	slli	s3,s1,0x2
void matrix_mul_vect(ee_u32 N, MATRES *C, MATDAT *A, MATDAT *B) {
     bba:	d04a                	sw	s2,32(sp)
     bbc:	852e                	mv	a0,a1

00000bbe <.LVL299>:
     bbe:	8932                	mv	s2,a2
                C[i]=0;
     bc0:	4581                	li	a1,0

00000bc2 <.LVL300>:
     bc2:	864e                	mv	a2,s3

00000bc4 <.LVL301>:
void matrix_mul_vect(ee_u32 N, MATRES *C, MATDAT *A, MATDAT *B) {
     bc4:	d422                	sw	s0,40(sp)
     bc6:	d606                	sw	ra,44(sp)
     bc8:	8436                	mv	s0,a3
     bca:	cc52                	sw	s4,24(sp)
     bcc:	ca56                	sw	s5,20(sp)
     bce:	c85a                	sw	s6,16(sp)
     bd0:	c65e                	sw	s7,12(sp)
     bd2:	c462                	sw	s8,8(sp)
     bd4:	c266                	sw	s9,4(sp)
                C[i]=0;
     bd6:	312070ef          	jal	ra,7ee8 <memset>

00000bda <.LVL302>:
     bda:	00149693          	slli	a3,s1,0x1
     bde:	85aa                	mv	a1,a0
     be0:	96a2                	add	a3,a3,s0
     be2:	954e                	add	a0,a0,s3
     be4:	4601                	li	a2,0

00000be6 <.L397>:
                for (j=0; j<N; j++) {
     be6:	40868333          	sub	t1,a3,s0
     bea:	ffe30093          	addi	ra,t1,-2
     bee:	0010d293          	srli	t0,ra,0x1
     bf2:	00128393          	addi	t2,t0,1
     bf6:	00161793          	slli	a5,a2,0x1
     bfa:	0073f893          	andi	a7,t2,7
     bfe:	97ca                	add	a5,a5,s2
                C[i]=0;
     c00:	8722                	mv	a4,s0
     c02:	4e01                	li	t3,0
     c04:	0a088563          	beqz	a7,cae <.L396>
     c08:	4805                	li	a6,1
     c0a:	09088763          	beq	a7,a6,c98 <.L422>
     c0e:	4a09                	li	s4,2
     c10:	07488b63          	beq	a7,s4,c86 <.L423>
     c14:	4a8d                	li	s5,3
     c16:	05588f63          	beq	a7,s5,c74 <.L424>
     c1a:	4b11                	li	s6,4
     c1c:	05688363          	beq	a7,s6,c62 <.L425>
     c20:	4b95                	li	s7,5
     c22:	03788763          	beq	a7,s7,c50 <.L426>
     c26:	4c19                	li	s8,6
     c28:	01888b63          	beq	a7,s8,c3e <.L427>

00000c2c <.LVL304>:
                        C[i]+=(MATRES)A[i*N+j] * (MATRES)B[j];
     c2c:	00079c83          	lh	s9,0(a5)
     c30:	00041e03          	lh	t3,0(s0)
                for (j=0; j<N; j++) {
     c34:	0789                	addi	a5,a5,2
     c36:	00240713          	addi	a4,s0,2
                        C[i]+=(MATRES)A[i*N+j] * (MATRES)B[j];
     c3a:	03cc8e33          	mul	t3,s9,t3

00000c3e <.L427>:
     c3e:	00079e83          	lh	t4,0(a5)
     c42:	00071f03          	lh	t5,0(a4)
                for (j=0; j<N; j++) {
     c46:	0789                	addi	a5,a5,2
     c48:	0709                	addi	a4,a4,2
                        C[i]+=(MATRES)A[i*N+j] * (MATRES)B[j];
     c4a:	03ee8fb3          	mul	t6,t4,t5
     c4e:	9e7e                	add	t3,t3,t6

00000c50 <.L426>:
     c50:	00079983          	lh	s3,0(a5)
     c54:	00071303          	lh	t1,0(a4)
                for (j=0; j<N; j++) {
     c58:	0789                	addi	a5,a5,2
     c5a:	0709                	addi	a4,a4,2
                        C[i]+=(MATRES)A[i*N+j] * (MATRES)B[j];
     c5c:	026980b3          	mul	ra,s3,t1
     c60:	9e06                	add	t3,t3,ra

00000c62 <.L425>:
     c62:	00079283          	lh	t0,0(a5)
     c66:	00071383          	lh	t2,0(a4)
                for (j=0; j<N; j++) {
     c6a:	0789                	addi	a5,a5,2
     c6c:	0709                	addi	a4,a4,2
                        C[i]+=(MATRES)A[i*N+j] * (MATRES)B[j];
     c6e:	027288b3          	mul	a7,t0,t2
     c72:	9e46                	add	t3,t3,a7

00000c74 <.L424>:
     c74:	00079803          	lh	a6,0(a5)
     c78:	00071a03          	lh	s4,0(a4)
                for (j=0; j<N; j++) {
     c7c:	0789                	addi	a5,a5,2
     c7e:	0709                	addi	a4,a4,2
                        C[i]+=(MATRES)A[i*N+j] * (MATRES)B[j];
     c80:	03480ab3          	mul	s5,a6,s4
     c84:	9e56                	add	t3,t3,s5

00000c86 <.L423>:
     c86:	00079b03          	lh	s6,0(a5)
     c8a:	00071b83          	lh	s7,0(a4)
                for (j=0; j<N; j++) {
     c8e:	0789                	addi	a5,a5,2
     c90:	0709                	addi	a4,a4,2
                        C[i]+=(MATRES)A[i*N+j] * (MATRES)B[j];
     c92:	037b0c33          	mul	s8,s6,s7
     c96:	9e62                	add	t3,t3,s8

00000c98 <.L422>:
     c98:	00079c83          	lh	s9,0(a5)
     c9c:	00071e83          	lh	t4,0(a4)
                for (j=0; j<N; j++) {
     ca0:	0709                	addi	a4,a4,2
     ca2:	0789                	addi	a5,a5,2
                        C[i]+=(MATRES)A[i*N+j] * (MATRES)B[j];
     ca4:	03dc8f33          	mul	t5,s9,t4
     ca8:	9e7a                	add	t3,t3,t5
                for (j=0; j<N; j++) {
     caa:	08e68563          	beq	a3,a4,d34 <.L430>

00000cae <.L396>:
                        C[i]+=(MATRES)A[i*N+j] * (MATRES)B[j];
     cae:	00079f83          	lh	t6,0(a5)
     cb2:	00071983          	lh	s3,0(a4)
     cb6:	00279083          	lh	ra,2(a5)
     cba:	00271a83          	lh	s5,2(a4)
     cbe:	033f88b3          	mul	a7,t6,s3
     cc2:	00479803          	lh	a6,4(a5)
     cc6:	00471c03          	lh	s8,4(a4)
     cca:	00679283          	lh	t0,6(a5)
     cce:	00671b83          	lh	s7,6(a4)
     cd2:	00879c83          	lh	s9,8(a5)
     cd6:	00871b03          	lh	s6,8(a4)
     cda:	00a79f03          	lh	t5,10(a5)
     cde:	00a71a03          	lh	s4,10(a4)
     ce2:	00c79e83          	lh	t4,12(a5)
     ce6:	03508fb3          	mul	t6,ra,s5
     cea:	00c71983          	lh	s3,12(a4)
     cee:	00e79303          	lh	t1,14(a5)
     cf2:	00e71383          	lh	t2,14(a4)
     cf6:	9e46                	add	t3,t3,a7
                for (j=0; j<N; j++) {
     cf8:	0741                	addi	a4,a4,16
     cfa:	07c1                	addi	a5,a5,16
                        C[i]+=(MATRES)A[i*N+j] * (MATRES)B[j];
     cfc:	038800b3          	mul	ra,a6,s8
     d00:	01fe0ab3          	add	s5,t3,t6
     d04:	03728c33          	mul	s8,t0,s7
     d08:	001a8833          	add	a6,s5,ra
     d0c:	036c82b3          	mul	t0,s9,s6
     d10:	01880bb3          	add	s7,a6,s8
     d14:	034f08b3          	mul	a7,t5,s4
     d18:	005b8cb3          	add	s9,s7,t0
     d1c:	033e8b33          	mul	s6,t4,s3
     d20:	011c8f33          	add	t5,s9,a7
     d24:	02730a33          	mul	s4,t1,t2
     d28:	016f0eb3          	add	t4,t5,s6
     d2c:	014e8e33          	add	t3,t4,s4
                for (j=0; j<N; j++) {
     d30:	f6e69fe3          	bne	a3,a4,cae <.L396>

00000d34 <.L430>:
     d34:	01c5a023          	sw	t3,0(a1)
        for (i=0; i<N; i++) {
     d38:	0591                	addi	a1,a1,4
     d3a:	9626                	add	a2,a2,s1
     d3c:	eab515e3          	bne	a0,a1,be6 <.L397>
                }
        }
}
     d40:	50b2                	lw	ra,44(sp)
     d42:	5422                	lw	s0,40(sp)

00000d44 <.LVL305>:
     d44:	5492                	lw	s1,36(sp)

00000d46 <.LVL306>:
     d46:	5902                	lw	s2,32(sp)

00000d48 <.LVL307>:
     d48:	49f2                	lw	s3,28(sp)
     d4a:	4a62                	lw	s4,24(sp)
     d4c:	4ad2                	lw	s5,20(sp)
     d4e:	4b42                	lw	s6,16(sp)
     d50:	4bb2                	lw	s7,12(sp)
     d52:	4c22                	lw	s8,8(sp)
     d54:	4c92                	lw	s9,4(sp)
     d56:	6145                	addi	sp,sp,48
     d58:	8082                	ret

00000d5a <.L432>:
     d5a:	8082                	ret

00000d5c <matrix_mul_matrix>:

/* Function: matrix_mul_matrix
        Multiply a matrix by a matrix.
        Basic code is used in many algorithms, mostly with minor changes such as scaling.
*/
void matrix_mul_matrix(ee_u32 N, MATRES *C, MATDAT *A, MATDAT *B) {
     d5c:	715d                	addi	sp,sp,-80
     d5e:	c686                	sw	ra,76(sp)
     d60:	c4a2                	sw	s0,72(sp)
     d62:	c2a6                	sw	s1,68(sp)
     d64:	c0ca                	sw	s2,64(sp)
     d66:	de4e                	sw	s3,60(sp)
     d68:	dc52                	sw	s4,56(sp)
     d6a:	da56                	sw	s5,52(sp)
     d6c:	d85a                	sw	s6,48(sp)
     d6e:	d65e                	sw	s7,44(sp)
     d70:	d462                	sw	s8,40(sp)
     d72:	d266                	sw	s9,36(sp)
     d74:	d06a                	sw	s10,32(sp)
     d76:	ce6e                	sw	s11,28(sp)
     d78:	c42e                	sw	a1,8(sp)
     d7a:	c636                	sw	a3,12(sp)
        ee_u32 i,j,k;
        for (i=0; i<N; i++) {
     d7c:	1a050f63          	beqz	a0,f3a <.L435>
     d80:	00151413          	slli	s0,a0,0x1
     d84:	8aaa                	mv	s5,a0
     d86:	89b2                	mv	s3,a2
     d88:	00860933          	add	s2,a2,s0
                for (j=0; j<N; j++) {
                        C[i*N+j]=0;
     d8c:	00251493          	slli	s1,a0,0x2
     d90:	4b01                	li	s6,0
        for (i=0; i<N; i++) {
     d92:	4b81                	li	s7,0

00000d94 <.L437>:
                for (j=0; j<N; j++) {
     d94:	47a2                	lw	a5,8(sp)
     d96:	002b1f13          	slli	t5,s6,0x2
                        C[i*N+j]=0;
     d9a:	8626                	mv	a2,s1
     d9c:	01e78533          	add	a0,a5,t5
     da0:	4581                	li	a1,0
     da2:	146070ef          	jal	ra,7ee8 <memset>

00000da6 <.LVL311>:
     da6:	4632                	lw	a2,12(sp)
     da8:	8f2a                	mv	t5,a0
                for (j=0; j<N; j++) {
     daa:	4f81                	li	t6,0

00000dac <.L439>:
                        for(k=0;k<N;k++)
     dac:	41390733          	sub	a4,s2,s3
     db0:	ffe70093          	addi	ra,a4,-2
     db4:	0010d293          	srli	t0,ra,0x1
     db8:	00128313          	addi	t1,t0,1
     dbc:	00737393          	andi	t2,t1,7
     dc0:	85b2                	mv	a1,a2
     dc2:	86ce                	mv	a3,s3
     dc4:	4781                	li	a5,0
     dc6:	0a038663          	beqz	t2,e72 <.L438>
     dca:	4805                	li	a6,1
     dcc:	09038863          	beq	t2,a6,e5c <.L465>
     dd0:	4889                	li	a7,2
     dd2:	07138c63          	beq	t2,a7,e4a <.L466>
     dd6:	4a0d                	li	s4,3
     dd8:	07438063          	beq	t2,s4,e38 <.L467>
     ddc:	4c11                	li	s8,4
     dde:	05838463          	beq	t2,s8,e26 <.L468>
     de2:	4c95                	li	s9,5
     de4:	03938863          	beq	t2,s9,e14 <.L469>
     de8:	4d19                	li	s10,6
     dea:	01a38c63          	beq	t2,s10,e02 <.L470>

00000dee <.LVL313>:
                        {
                                C[i*N+j]+=(MATRES)A[i*N+k] * (MATRES)B[k*N+j];
     dee:	00099d83          	lh	s11,0(s3)
     df2:	00061e03          	lh	t3,0(a2)
                        for(k=0;k<N;k++)
     df6:	00298693          	addi	a3,s3,2
     dfa:	008605b3          	add	a1,a2,s0
                                C[i*N+j]+=(MATRES)A[i*N+k] * (MATRES)B[k*N+j];
     dfe:	03cd87b3          	mul	a5,s11,t3

00000e02 <.L470>:
     e02:	00069e83          	lh	t4,0(a3)
     e06:	00059503          	lh	a0,0(a1)
                        for(k=0;k<N;k++)
     e0a:	0689                	addi	a3,a3,2
     e0c:	95a2                	add	a1,a1,s0
                                C[i*N+j]+=(MATRES)A[i*N+k] * (MATRES)B[k*N+j];
     e0e:	02ae8733          	mul	a4,t4,a0
     e12:	97ba                	add	a5,a5,a4

00000e14 <.L469>:
     e14:	00069083          	lh	ra,0(a3)
     e18:	00059283          	lh	t0,0(a1)
                        for(k=0;k<N;k++)
     e1c:	0689                	addi	a3,a3,2
     e1e:	95a2                	add	a1,a1,s0
                                C[i*N+j]+=(MATRES)A[i*N+k] * (MATRES)B[k*N+j];
     e20:	02508333          	mul	t1,ra,t0
     e24:	979a                	add	a5,a5,t1

00000e26 <.L468>:
     e26:	00069383          	lh	t2,0(a3)
     e2a:	00059803          	lh	a6,0(a1)
                        for(k=0;k<N;k++)
     e2e:	0689                	addi	a3,a3,2
     e30:	95a2                	add	a1,a1,s0
                                C[i*N+j]+=(MATRES)A[i*N+k] * (MATRES)B[k*N+j];
     e32:	030388b3          	mul	a7,t2,a6
     e36:	97c6                	add	a5,a5,a7

00000e38 <.L467>:
     e38:	00069a03          	lh	s4,0(a3)
     e3c:	00059c03          	lh	s8,0(a1)
                        for(k=0;k<N;k++)
     e40:	0689                	addi	a3,a3,2
     e42:	95a2                	add	a1,a1,s0
                                C[i*N+j]+=(MATRES)A[i*N+k] * (MATRES)B[k*N+j];
     e44:	038a0cb3          	mul	s9,s4,s8
     e48:	97e6                	add	a5,a5,s9

00000e4a <.L466>:
     e4a:	00069d03          	lh	s10,0(a3)
     e4e:	00059d83          	lh	s11,0(a1)
                        for(k=0;k<N;k++)
     e52:	0689                	addi	a3,a3,2
     e54:	95a2                	add	a1,a1,s0
                                C[i*N+j]+=(MATRES)A[i*N+k] * (MATRES)B[k*N+j];
     e56:	03bd0e33          	mul	t3,s10,s11
     e5a:	97f2                	add	a5,a5,t3

00000e5c <.L465>:
     e5c:	00069e83          	lh	t4,0(a3)
     e60:	00059503          	lh	a0,0(a1)
                        for(k=0;k<N;k++)
     e64:	0689                	addi	a3,a3,2
     e66:	95a2                	add	a1,a1,s0
                                C[i*N+j]+=(MATRES)A[i*N+k] * (MATRES)B[k*N+j];
     e68:	02ae8733          	mul	a4,t4,a0
     e6c:	97ba                	add	a5,a5,a4
                        for(k=0;k<N;k++)
     e6e:	0ad90363          	beq	s2,a3,f14 <.L474>

00000e72 <.L438>:
                                C[i*N+j]+=(MATRES)A[i*N+k] * (MATRES)B[k*N+j];
     e72:	00069303          	lh	t1,0(a3)
     e76:	00059383          	lh	t2,0(a1)
                        for(k=0;k<N;k++)
     e7a:	008580b3          	add	ra,a1,s0
     e7e:	008082b3          	add	t0,ra,s0
                                C[i*N+j]+=(MATRES)A[i*N+k] * (MATRES)B[k*N+j];
     e82:	02730733          	mul	a4,t1,t2
     e86:	00009e03          	lh	t3,0(ra)
     e8a:	00269d03          	lh	s10,2(a3)
                        for(k=0;k<N;k++)
     e8e:	00828833          	add	a6,t0,s0
                                C[i*N+j]+=(MATRES)A[i*N+k] * (MATRES)B[k*N+j];
     e92:	00029d83          	lh	s11,0(t0)
     e96:	00469a03          	lh	s4,4(a3)
                        for(k=0;k<N;k++)
     e9a:	008808b3          	add	a7,a6,s0
                                C[i*N+j]+=(MATRES)A[i*N+k] * (MATRES)B[k*N+j];
     e9e:	00081c83          	lh	s9,0(a6)
     ea2:	00669083          	lh	ra,6(a3)
                        for(k=0;k<N;k++)
     ea6:	00888eb3          	add	t4,a7,s0
                                C[i*N+j]+=(MATRES)A[i*N+k] * (MATRES)B[k*N+j];
     eaa:	03cd0d33          	mul	s10,s10,t3
     eae:	00869303          	lh	t1,8(a3)
     eb2:	00089c03          	lh	s8,0(a7)
     eb6:	00a69283          	lh	t0,10(a3)
     eba:	000e9383          	lh	t2,0(t4)
                        for(k=0;k<N;k++)
     ebe:	008e8533          	add	a0,t4,s0
                                C[i*N+j]+=(MATRES)A[i*N+k] * (MATRES)B[k*N+j];
     ec2:	00c69803          	lh	a6,12(a3)
                        for(k=0;k<N;k++)
     ec6:	008505b3          	add	a1,a0,s0
                                C[i*N+j]+=(MATRES)A[i*N+k] * (MATRES)B[k*N+j];
     eca:	00051e83          	lh	t4,0(a0)
     ece:	97ba                	add	a5,a5,a4
     ed0:	03ba0a33          	mul	s4,s4,s11
     ed4:	00e69503          	lh	a0,14(a3)
     ed8:	00059e03          	lh	t3,0(a1)
     edc:	01a78db3          	add	s11,a5,s10
                        for(k=0;k<N;k++)
     ee0:	06c1                	addi	a3,a3,16
     ee2:	95a2                	add	a1,a1,s0
                                C[i*N+j]+=(MATRES)A[i*N+k] * (MATRES)B[k*N+j];
     ee4:	039080b3          	mul	ra,ra,s9
     ee8:	014d88b3          	add	a7,s11,s4
     eec:	03830733          	mul	a4,t1,s8
     ef0:	00188cb3          	add	s9,a7,ra
     ef4:	02728333          	mul	t1,t0,t2
     ef8:	00ec8c33          	add	s8,s9,a4
     efc:	03d802b3          	mul	t0,a6,t4
     f00:	006c03b3          	add	t2,s8,t1
     f04:	03c50833          	mul	a6,a0,t3
     f08:	00538d33          	add	s10,t2,t0
     f0c:	010d07b3          	add	a5,s10,a6
                        for(k=0;k<N;k++)
     f10:	f6d911e3          	bne	s2,a3,e72 <.L438>

00000f14 <.L474>:
     f14:	00ff2023          	sw	a5,0(t5)
                for (j=0; j<N; j++) {
     f18:	001f8693          	addi	a3,t6,1

00000f1c <.LVL314>:
     f1c:	0f11                	addi	t5,t5,4
     f1e:	0609                	addi	a2,a2,2
     f20:	00da8463          	beq	s5,a3,f28 <.L478>
     f24:	8fb6                	mv	t6,a3
     f26:	b559                	j	dac <.L439>

00000f28 <.L478>:
        for (i=0; i<N; i++) {
     f28:	001b8f13          	addi	t5,s7,1

00000f2c <.LVL315>:
     f2c:	99a2                	add	s3,s3,s0
     f2e:	9b56                	add	s6,s6,s5
     f30:	9922                	add	s2,s2,s0
     f32:	01fb8463          	beq	s7,t6,f3a <.L435>
     f36:	8bfa                	mv	s7,t5
     f38:	bdb1                	j	d94 <.L437>

00000f3a <.L435>:
                        }
                }
        }
}
     f3a:	40b6                	lw	ra,76(sp)
     f3c:	4426                	lw	s0,72(sp)
     f3e:	4496                	lw	s1,68(sp)
     f40:	4906                	lw	s2,64(sp)
     f42:	59f2                	lw	s3,60(sp)
     f44:	5a62                	lw	s4,56(sp)
     f46:	5ad2                	lw	s5,52(sp)
     f48:	5b42                	lw	s6,48(sp)
     f4a:	5bb2                	lw	s7,44(sp)
     f4c:	5c22                	lw	s8,40(sp)
     f4e:	5c92                	lw	s9,36(sp)
     f50:	5d02                	lw	s10,32(sp)
     f52:	4df2                	lw	s11,28(sp)
     f54:	6161                	addi	sp,sp,80

00000f56 <.LVL317>:
     f56:	8082                	ret

00000f58 <matrix_mul_matrix_bitextract>:
        Multiply a matrix by a matrix, and extract some bits from the result.
        Basic code is used in many algorithms, mostly with minor changes such as scaling.
*/
void matrix_mul_matrix_bitextract(ee_u32 N, MATRES *C, MATDAT *A, MATDAT *B) {
        ee_u32 i,j,k;
        for (i=0; i<N; i++) {
     f58:	1c050463          	beqz	a0,1120 <.L504>
void matrix_mul_matrix_bitextract(ee_u32 N, MATRES *C, MATDAT *A, MATDAT *B) {
     f5c:	7179                	addi	sp,sp,-48
     f5e:	ce4e                	sw	s3,28(sp)
     f60:	00151993          	slli	s3,a0,0x1
     f64:	d422                	sw	s0,40(sp)
     f66:	d226                	sw	s1,36(sp)
     f68:	d04a                	sw	s2,32(sp)
     f6a:	cc52                	sw	s4,24(sp)
     f6c:	ca56                	sw	s5,20(sp)
     f6e:	c85a                	sw	s6,16(sp)
     f70:	c65e                	sw	s7,12(sp)
     f72:	c462                	sw	s8,8(sp)
     f74:	d606                	sw	ra,44(sp)
     f76:	8b2a                	mv	s6,a0
     f78:	842e                	mv	s0,a1
     f7a:	84b6                	mv	s1,a3
     f7c:	8ab2                	mv	s5,a2
     f7e:	01360a33          	add	s4,a2,s3
                for (j=0; j<N; j++) {
                        C[i*N+j]=0;
     f82:	00251913          	slli	s2,a0,0x2
     f86:	4b81                	li	s7,0
        for (i=0; i<N; i++) {
     f88:	4c01                	li	s8,0

00000f8a <.L481>:
                for (j=0; j<N; j++) {
     f8a:	002b9813          	slli	a6,s7,0x2
     f8e:	01040533          	add	a0,s0,a6
                        C[i*N+j]=0;
     f92:	864a                	mv	a2,s2
     f94:	4581                	li	a1,0
     f96:	753060ef          	jal	ra,7ee8 <memset>

00000f9a <.LVL320>:
     f9a:	83aa                	mv	t2,a0
     f9c:	88a6                	mv	a7,s1
                for (j=0; j<N; j++) {
     f9e:	4301                	li	t1,0

00000fa0 <.L483>:
                        for(k=0;k<N;k++)
     fa0:	415a07b3          	sub	a5,s4,s5
     fa4:	ffe78093          	addi	ra,a5,-2
     fa8:	0010d293          	srli	t0,ra,0x1
     fac:	00128593          	addi	a1,t0,1
     fb0:	0035f613          	andi	a2,a1,3
     fb4:	8546                	mv	a0,a7
     fb6:	86d6                	mv	a3,s5
     fb8:	4e81                	li	t4,0
     fba:	c259                	beqz	a2,1040 <.L482>
     fbc:	4705                	li	a4,1
     fbe:	04e60c63          	beq	a2,a4,1016 <.L497>
     fc2:	4e09                	li	t3,2
     fc4:	03c60663          	beq	a2,t3,ff0 <.L498>

00000fc8 <.LBB142>:
                        {
                                MATRES tmp=(MATRES)A[i*N+k] * (MATRES)B[k*N+j];
     fc8:	000a9e83          	lh	t4,0(s5)
     fcc:	00089f03          	lh	t5,0(a7)

00000fd0 <.LBE142>:
                        for(k=0;k<N;k++)
     fd0:	002a8693          	addi	a3,s5,2
     fd4:	01388533          	add	a0,a7,s3

00000fd8 <.LBB143>:
                                MATRES tmp=(MATRES)A[i*N+k] * (MATRES)B[k*N+j];
     fd8:	03ee8fb3          	mul	t6,t4,t5
                                C[i*N+j]+=bit_extract(tmp,2,4)*bit_extract(tmp,5,7);
     fdc:	402fd813          	srai	a6,t6,0x2
     fe0:	405fd093          	srai	ra,t6,0x5
     fe4:	00f87793          	andi	a5,a6,15
     fe8:	07f0f293          	andi	t0,ra,127
     fec:	02578eb3          	mul	t4,a5,t0

00000ff0 <.L498>:
                                MATRES tmp=(MATRES)A[i*N+k] * (MATRES)B[k*N+j];
     ff0:	00069583          	lh	a1,0(a3)
     ff4:	00051603          	lh	a2,0(a0)

00000ff8 <.LBE144>:
                        for(k=0;k<N;k++)
     ff8:	0689                	addi	a3,a3,2
     ffa:	954e                	add	a0,a0,s3

00000ffc <.LBB145>:
                                MATRES tmp=(MATRES)A[i*N+k] * (MATRES)B[k*N+j];
     ffc:	02c58e33          	mul	t3,a1,a2
                                C[i*N+j]+=bit_extract(tmp,2,4)*bit_extract(tmp,5,7);
    1000:	402e5713          	srai	a4,t3,0x2
    1004:	405e5f13          	srai	t5,t3,0x5
    1008:	00f77f93          	andi	t6,a4,15
    100c:	07ff7813          	andi	a6,t5,127
    1010:	030f80b3          	mul	ra,t6,a6
    1014:	9e86                	add	t4,t4,ra

00001016 <.L497>:
                                MATRES tmp=(MATRES)A[i*N+k] * (MATRES)B[k*N+j];
    1016:	00069783          	lh	a5,0(a3)
    101a:	00051283          	lh	t0,0(a0)

0000101e <.LBE146>:
                        for(k=0;k<N;k++)
    101e:	0689                	addi	a3,a3,2
    1020:	954e                	add	a0,a0,s3

00001022 <.LBB147>:
                                MATRES tmp=(MATRES)A[i*N+k] * (MATRES)B[k*N+j];
    1022:	025785b3          	mul	a1,a5,t0
                                C[i*N+j]+=bit_extract(tmp,2,4)*bit_extract(tmp,5,7);
    1026:	4025d613          	srai	a2,a1,0x2
    102a:	4055de13          	srai	t3,a1,0x5
    102e:	00f67713          	andi	a4,a2,15
    1032:	07fe7f13          	andi	t5,t3,127
    1036:	03e70fb3          	mul	t6,a4,t5
    103a:	9efe                	add	t4,t4,t6

0000103c <.LBE147>:
                        for(k=0;k<N;k++)
    103c:	0ada0363          	beq	s4,a3,10e2 <.L502>

00001040 <.L482>:
    1040:	01350833          	add	a6,a0,s3

00001044 <.LBB149>:
                                MATRES tmp=(MATRES)A[i*N+k] * (MATRES)B[k*N+j];
    1044:	00069083          	lh	ra,0(a3)
    1048:	00051283          	lh	t0,0(a0)

0000104c <.LBE149>:
                        for(k=0;k<N;k++)
    104c:	013807b3          	add	a5,a6,s3

00001050 <.LBB150>:
                                MATRES tmp=(MATRES)A[i*N+k] * (MATRES)B[k*N+j];
    1050:	00269e03          	lh	t3,2(a3)
    1054:	00081703          	lh	a4,0(a6)
    1058:	00079f83          	lh	t6,0(a5)

0000105c <.LBE150>:
                        for(k=0;k<N;k++)
    105c:	01378533          	add	a0,a5,s3

00001060 <.LBB151>:
                                MATRES tmp=(MATRES)A[i*N+k] * (MATRES)B[k*N+j];
    1060:	00469603          	lh	a2,4(a3)
    1064:	02508f33          	mul	t5,ra,t0

00001068 <.LVL324>:
    1068:	00051803          	lh	a6,0(a0)
    106c:	00669583          	lh	a1,6(a3)

00001070 <.LBE151>:
                        for(k=0;k<N;k++)
    1070:	06a1                	addi	a3,a3,8
    1072:	954e                	add	a0,a0,s3

00001074 <.LBB152>:
                                MATRES tmp=(MATRES)A[i*N+k] * (MATRES)B[k*N+j];
    1074:	02ee00b3          	mul	ra,t3,a4
                                C[i*N+j]+=bit_extract(tmp,2,4)*bit_extract(tmp,5,7);
    1078:	402f5293          	srai	t0,t5,0x2
    107c:	405f5e13          	srai	t3,t5,0x5
    1080:	00f2f713          	andi	a4,t0,15
    1084:	07fe7793          	andi	a5,t3,127
                                MATRES tmp=(MATRES)A[i*N+k] * (MATRES)B[k*N+j];
    1088:	03f60633          	mul	a2,a2,t6
                                C[i*N+j]+=bit_extract(tmp,2,4)*bit_extract(tmp,5,7);
    108c:	4050df13          	srai	t5,ra,0x5

00001090 <.LVL325>:
    1090:	4020df93          	srai	t6,ra,0x2
    1094:	07ff7293          	andi	t0,t5,127
    1098:	00fff093          	andi	ra,t6,15
                                MATRES tmp=(MATRES)A[i*N+k] * (MATRES)B[k*N+j];
    109c:	030585b3          	mul	a1,a1,a6
                                C[i*N+j]+=bit_extract(tmp,2,4)*bit_extract(tmp,5,7);
    10a0:	40565e13          	srai	t3,a2,0x5
    10a4:	40265813          	srai	a6,a2,0x2
    10a8:	00f87f93          	andi	t6,a6,15
    10ac:	07fe7613          	andi	a2,t3,127
    10b0:	02f707b3          	mul	a5,a4,a5
    10b4:	4055df13          	srai	t5,a1,0x5
    10b8:	4025d713          	srai	a4,a1,0x2
    10bc:	00f77813          	andi	a6,a4,15
    10c0:	07ff7593          	andi	a1,t5,127
    10c4:	025080b3          	mul	ra,ra,t0
    10c8:	9ebe                	add	t4,t4,a5

000010ca <.LBB153>:
    10ca:	02cf82b3          	mul	t0,t6,a2
    10ce:	001e8e33          	add	t3,t4,ra

000010d2 <.LBB154>:
    10d2:	02b80fb3          	mul	t6,a6,a1
    10d6:	005e0633          	add	a2,t3,t0

000010da <.LBB155>:
    10da:	01f60eb3          	add	t4,a2,t6

000010de <.LBE155>:
                        for(k=0;k<N;k++)
    10de:	f6da11e3          	bne	s4,a3,1040 <.L482>

000010e2 <.L502>:
    10e2:	01d3a023          	sw	t4,0(t2)
                for (j=0; j<N; j++) {
    10e6:	00130693          	addi	a3,t1,1

000010ea <.LVL326>:
    10ea:	0391                	addi	t2,t2,4
    10ec:	0889                	addi	a7,a7,2
    10ee:	00db0463          	beq	s6,a3,10f6 <.L507>
    10f2:	8336                	mv	t1,a3
    10f4:	b575                	j	fa0 <.L483>

000010f6 <.L507>:
        for (i=0; i<N; i++) {
    10f6:	001c0393          	addi	t2,s8,1

000010fa <.LVL327>:
    10fa:	9ace                	add	s5,s5,s3
    10fc:	9bda                	add	s7,s7,s6
    10fe:	9a4e                	add	s4,s4,s3
    1100:	006c0463          	beq	s8,t1,1108 <.L479>
    1104:	8c1e                	mv	s8,t2
    1106:	b551                	j	f8a <.L481>

00001108 <.L479>:
                        }
                }
        }
}
    1108:	50b2                	lw	ra,44(sp)
    110a:	5422                	lw	s0,40(sp)

0000110c <.LVL328>:
    110c:	5492                	lw	s1,36(sp)

0000110e <.LVL329>:
    110e:	5902                	lw	s2,32(sp)
    1110:	49f2                	lw	s3,28(sp)
    1112:	4a62                	lw	s4,24(sp)
    1114:	4ad2                	lw	s5,20(sp)
    1116:	4b42                	lw	s6,16(sp)

00001118 <.LVL330>:
    1118:	4bb2                	lw	s7,12(sp)
    111a:	4c22                	lw	s8,8(sp)
    111c:	6145                	addi	sp,sp,48
    111e:	8082                	ret

00001120 <.L504>:
    1120:	8082                	ret

00001122 <core_state_transition>:

        The input pointer is updated to point to the end of the token, and the end state is returned (either specific format determined or invalid).
*/

enum CORE_STATE core_state_transition( ee_u8 **instr , ee_u32 *transition_count) {
        ee_u8 *str=*instr;
    1122:	411c                	lw	a5,0(a0)
enum CORE_STATE core_state_transition( ee_u8 **instr , ee_u32 *transition_count) {
    1124:	882a                	mv	a6,a0

00001126 <.LVL333>:
        ee_u8 NEXT_SYMBOL;
        enum CORE_STATE state=CORE_START;
    1126:	4501                	li	a0,0

00001128 <.LVL334>:
        for( ; *str && state != CORE_INVALID; str++ ) {
    1128:	0007c683          	lbu	a3,0(a5)
    112c:	873e                	mv	a4,a5
    112e:	cedd                	beqz	a3,11ec <.L510>

00001130 <.LVL335>:
                NEXT_SYMBOL = *str;
                if (NEXT_SYMBOL==',') /* end of this input */ {
    1130:	02c00513          	li	a0,44
        for( ; *str && state != CORE_INVALID; str++ ) {
    1134:	00178713          	addi	a4,a5,1
                if (NEXT_SYMBOL==',') /* end of this input */ {
    1138:	24a68463          	beq	a3,a0,1380 <.L573>

0000113c <.LBB156>:
                        }
                        else {
                                state = CORE_INVALID;
                                transition_count[CORE_INVALID]++;
                        }
                        transition_count[CORE_START]++;
    113c:	0005a883          	lw	a7,0(a1)

00001140 <.LBB161>:
        retval = ((c>='0') & (c<='9')) ? 1 : 0;
    1140:	fd068613          	addi	a2,a3,-48
    1144:	0ff67293          	andi	t0,a2,255
    1148:	4325                	li	t1,9

0000114a <.LBE161>:
                        transition_count[CORE_START]++;
    114a:	00188393          	addi	t2,a7,1

0000114e <.LBB162>:
        retval = ((c>='0') & (c<='9')) ? 1 : 0;
    114e:	0a536263          	bltu	t1,t0,11f2 <.L517>

00001152 <.LBE162>:
                        transition_count[CORE_START]++;
    1152:	0075a023          	sw	t2,0(a1)

00001156 <.LVL338>:
        for( ; *str && state != CORE_INVALID; str++ ) {
    1156:	0017c303          	lbu	t1,1(a5)
    115a:	12030763          	beqz	t1,1288 <.L570>

0000115e <.LVL339>:
                        str++;
    115e:	0789                	addi	a5,a5,2

00001160 <.LVL340>:
                if (NEXT_SYMBOL==',') /* end of this input */ {
    1160:	12a30363          	beq	t1,a0,1286 <.L554>

00001164 <.L515>:
        retval = ((c>='0') & (c<='9')) ? 1 : 0;
    1164:	fd030613          	addi	a2,t1,-48

00001168 <.LBE163>:
                                state = CORE_INVALID;
                                transition_count[CORE_S1]++;
                        }
                        break;
                case CORE_INT:
                        if( NEXT_SYMBOL == '.' ) {
    1168:	02e00f13          	li	t5,46

0000116c <.LBB171>:
        retval = ((c>='0') & (c<='9')) ? 1 : 0;
    116c:	4fa5                	li	t6,9

0000116e <.LBE171>:
                if (NEXT_SYMBOL==',') /* end of this input */ {
    116e:	02c00893          	li	a7,44

00001172 <.LBB172>:
        retval = ((c>='0') & (c<='9')) ? 1 : 0;
    1172:	0ff67293          	andi	t0,a2,255

00001176 <.LBE172>:
                        if( NEXT_SYMBOL == '.' ) {
    1176:	03e30463          	beq	t1,t5,119e <.L574>

0000117a <.L527>:
        retval = ((c>='0') & (c<='9')) ? 1 : 0;
    117a:	0a5fe363          	bltu	t6,t0,1220 <.L575>

0000117e <.LBE173>:
        for( ; *str && state != CORE_INVALID; str++ ) {
    117e:	00174303          	lbu	t1,1(a4)

00001182 <.LVL344>:
    1182:	00178513          	addi	a0,a5,1

00001186 <.LVL345>:
    1186:	873e                	mv	a4,a5
    1188:	0e030f63          	beqz	t1,1286 <.L554>
                if (NEXT_SYMBOL==',') /* end of this input */ {
    118c:	21130963          	beq	t1,a7,139e <.L555>

00001190 <.LBB174>:
        retval = ((c>='0') & (c<='9')) ? 1 : 0;
    1190:	fd030613          	addi	a2,t1,-48

00001194 <.LBE174>:
        for( ; *str && state != CORE_INVALID; str++ ) {
    1194:	87aa                	mv	a5,a0

00001196 <.LBB175>:
        retval = ((c>='0') & (c<='9')) ? 1 : 0;
    1196:	0ff67293          	andi	t0,a2,255

0000119a <.LBE175>:
                        if( NEXT_SYMBOL == '.' ) {
    119a:	ffe310e3          	bne	t1,t5,117a <.L527>

0000119e <.L574>:
                                state = CORE_FLOAT;
                                transition_count[CORE_INT]++;
    119e:	0105a383          	lw	t2,16(a1)
                                state = CORE_FLOAT;
    11a2:	4515                	li	a0,5
                                transition_count[CORE_INT]++;
    11a4:	00138e13          	addi	t3,t2,1
    11a8:	01c5a823          	sw	t3,16(a1)

000011ac <.LVL348>:
        for( ; *str && state != CORE_INVALID; str++ ) {
    11ac:	00174303          	lbu	t1,1(a4)
    11b0:	873e                	mv	a4,a5
    11b2:	02030d63          	beqz	t1,11ec <.L510>

000011b6 <.LVL349>:
                if (NEXT_SYMBOL==',') /* end of this input */ {
    11b6:	02c00713          	li	a4,44
                        str++;
    11ba:	00178393          	addi	t2,a5,1
                if (NEXT_SYMBOL==',') /* end of this input */ {
    11be:	1ae30e63          	beq	t1,a4,137a <.L558>

000011c2 <.L513>:
                                state = CORE_INVALID;
                                transition_count[CORE_INT]++;
                        }
                        break;
                case CORE_FLOAT:
                        if( NEXT_SYMBOL == 'E' || NEXT_SYMBOL == 'e' ) {
    11c2:	04500e93          	li	t4,69

000011c6 <.LBB176>:
        retval = ((c>='0') & (c<='9')) ? 1 : 0;
    11c6:	4f25                	li	t5,9

000011c8 <.LBE176>:
                if (NEXT_SYMBOL==',') /* end of this input */ {
    11c8:	02c00f93          	li	t6,44

000011cc <.L539>:
        retval = ((c>='0') & (c<='9')) ? 1 : 0;
    11cc:	fd030893          	addi	a7,t1,-48

000011d0 <.LBE181>:
                        if( NEXT_SYMBOL == 'E' || NEXT_SYMBOL == 'e' ) {
    11d0:	0df37293          	andi	t0,t1,223

000011d4 <.LBB182>:
        retval = ((c>='0') & (c<='9')) ? 1 : 0;
    11d4:	0ff8f693          	andi	a3,a7,255

000011d8 <.LBE182>:
                        if( NEXT_SYMBOL == 'E' || NEXT_SYMBOL == 'e' ) {
    11d8:	0bd28a63          	beq	t0,t4,128c <.L576>

000011dc <.LBB183>:
        retval = ((c>='0') & (c<='9')) ? 1 : 0;
    11dc:	14df7c63          	bgeu	t5,a3,1334 <.L532>

000011e0 <.LBE183>:
                                state = CORE_S2;
                                transition_count[CORE_FLOAT]++;
                        }
                        else if(!ee_isdigit(NEXT_SYMBOL)) {
                                state = CORE_INVALID;
                                transition_count[CORE_FLOAT]++;
    11e0:	49dc                	lw	a5,20(a1)
    11e2:	871e                	mv	a4,t2
                                state = CORE_INVALID;
    11e4:	4505                	li	a0,1
                                transition_count[CORE_FLOAT]++;
    11e6:	00178613          	addi	a2,a5,1
    11ea:	c9d0                	sw	a2,20(a1)

000011ec <.L510>:
                        break;
                default:
                        break;
                }
        }
        *instr=str;
    11ec:	00e82023          	sw	a4,0(a6)
        return state;
}
    11f0:	8082                	ret

000011f2 <.L517>:
                        else if( NEXT_SYMBOL == '+' || NEXT_SYMBOL == '-' ) {
    11f2:	02b00e13          	li	t3,43
    11f6:	03c68e63          	beq	a3,t3,1232 <.L520>
    11fa:	02d00e93          	li	t4,45
    11fe:	03d68a63          	beq	a3,t4,1232 <.L520>
                        else if( NEXT_SYMBOL == '.' ) {
    1202:	02e00f13          	li	t5,46
    1206:	15e68263          	beq	a3,t5,134a <.L521>

0000120a <.LVL355>:
                                transition_count[CORE_INVALID]++;
    120a:	0045af83          	lw	t6,4(a1)
                        transition_count[CORE_START]++;
    120e:	0075a023          	sw	t2,0(a1)
                                state = CORE_INVALID;
    1212:	4505                	li	a0,1
                                transition_count[CORE_INVALID]++;
    1214:	001f8793          	addi	a5,t6,1

00001218 <.LVL356>:
    1218:	c1dc                	sw	a5,4(a1)

0000121a <.LVL357>:
        *instr=str;
    121a:	00e82023          	sw	a4,0(a6)

0000121e <.LVL358>:
}
    121e:	8082                	ret

00001220 <.L575>:
                                transition_count[CORE_INT]++;
    1220:	4994                	lw	a3,16(a1)
    1222:	873e                	mv	a4,a5
                                state = CORE_INVALID;
    1224:	4505                	li	a0,1
                                transition_count[CORE_INT]++;
    1226:	00168793          	addi	a5,a3,1
    122a:	c99c                	sw	a5,16(a1)

0000122c <.LVL360>:
        *instr=str;
    122c:	00e82023          	sw	a4,0(a6)
}
    1230:	8082                	ret

00001232 <.L520>:
                        transition_count[CORE_START]++;
    1232:	0075a023          	sw	t2,0(a1)

00001236 <.LVL362>:
        for( ; *str && state != CORE_INVALID; str++ ) {
    1236:	0017c883          	lbu	a7,1(a5)
    123a:	14088d63          	beqz	a7,1394 <.L552>

0000123e <.LVL363>:
                        str++;
    123e:	00278713          	addi	a4,a5,2
                if (NEXT_SYMBOL==',') /* end of this input */ {
    1242:	14a88963          	beq	a7,a0,1394 <.L552>

00001246 <.LBB186>:
                                transition_count[CORE_S1]++;
    1246:	4590                	lw	a2,8(a1)

00001248 <.LBB191>:
        retval = ((c>='0') & (c<='9')) ? 1 : 0;
    1248:	fd088693          	addi	a3,a7,-48
    124c:	0ff6f293          	andi	t0,a3,255
    1250:	4525                	li	a0,9

00001252 <.LBE191>:
                                transition_count[CORE_S1]++;
    1252:	00160313          	addi	t1,a2,1

00001256 <.LBB192>:
        retval = ((c>='0') & (c<='9')) ? 1 : 0;
    1256:	00557c63          	bgeu	a0,t0,126e <.L522>

0000125a <.LBE192>:
                        else if( NEXT_SYMBOL == '.' ) {
    125a:	02e00393          	li	t2,46
    125e:	10788263          	beq	a7,t2,1362 <.L577>

00001262 <.LVL366>:
                                transition_count[CORE_S1]++;
    1262:	0065a423          	sw	t1,8(a1)

00001266 <.LVL367>:
                                state = CORE_INVALID;
    1266:	4505                	li	a0,1

00001268 <.LVL368>:
        *instr=str;
    1268:	00e82023          	sw	a4,0(a6)
}
    126c:	8082                	ret

0000126e <.L522>:
                                transition_count[CORE_S1]++;
    126e:	0065a423          	sw	t1,8(a1)

00001272 <.LVL370>:
        for( ; *str && state != CORE_INVALID; str++ ) {
    1272:	0027c303          	lbu	t1,2(a5)
    1276:	00030963          	beqz	t1,1288 <.L570>

0000127a <.LVL371>:
                if (NEXT_SYMBOL==',') /* end of this input */ {
    127a:	02c00e93          	li	t4,44
                        str++;
    127e:	00170793          	addi	a5,a4,1

00001282 <.LVL372>:
                if (NEXT_SYMBOL==',') /* end of this input */ {
    1282:	efd311e3          	bne	t1,t4,1164 <.L515>

00001286 <.L554>:
        for( ; *str && state != CORE_INVALID; str++ ) {
    1286:	873e                	mv	a4,a5

00001288 <.L570>:
    1288:	4511                	li	a0,4
    128a:	b78d                	j	11ec <.L510>

0000128c <.L576>:
                                transition_count[CORE_FLOAT]++;
    128c:	49c8                	lw	a0,20(a1)
    128e:	00150e13          	addi	t3,a0,1
    1292:	01c5aa23          	sw	t3,20(a1)

00001296 <.LVL376>:
        for( ; *str && state != CORE_INVALID; str++ ) {
    1296:	0017ce83          	lbu	t4,1(a5)
    129a:	0e0e8863          	beqz	t4,138a <.L578>

0000129e <.LVL377>:
                if (NEXT_SYMBOL==',') /* end of this input */ {
    129e:	02c00f13          	li	t5,44
                        str++;
    12a2:	00138713          	addi	a4,t2,1
                if (NEXT_SYMBOL==',') /* end of this input */ {
    12a6:	0fee8363          	beq	t4,t5,138c <.L568>

000012aa <.LVL378>:
                                transition_count[CORE_S2]++;
    12aa:	00c5af83          	lw	t6,12(a1)
                        if( NEXT_SYMBOL == '+' || NEXT_SYMBOL == '-' ) {
    12ae:	fd5e8893          	addi	a7,t4,-43
    12b2:	0fd8f293          	andi	t0,a7,253
                                transition_count[CORE_S2]++;
    12b6:	001f8693          	addi	a3,t6,1
    12ba:	c5d4                	sw	a3,12(a1)
                        if( NEXT_SYMBOL == '+' || NEXT_SYMBOL == '-' ) {
    12bc:	00028663          	beqz	t0,12c8 <.L579>

000012c0 <.L566>:
                                state = CORE_INVALID;
    12c0:	4505                	li	a0,1
        *instr=str;
    12c2:	00e82023          	sw	a4,0(a6)
}
    12c6:	8082                	ret

000012c8 <.L579>:
        for( ; *str && state != CORE_INVALID; str++ ) {
    12c8:	0013c603          	lbu	a2,1(t2)
    12cc:	c271                	beqz	a2,1390 <.L567>

000012ce <.LVL381>:
                        str++;
    12ce:	00238713          	addi	a4,t2,2
                if (NEXT_SYMBOL==',') /* end of this input */ {
    12d2:	0be60f63          	beq	a2,t5,1390 <.L567>

000012d6 <.LBB200>:
                                transition_count[CORE_EXPONENT]++;
    12d6:	0185a303          	lw	t1,24(a1)

000012da <.LBB201>:
        retval = ((c>='0') & (c<='9')) ? 1 : 0;
    12da:	fd060793          	addi	a5,a2,-48
    12de:	0ff7f513          	andi	a0,a5,255

000012e2 <.LBE201>:
                                transition_count[CORE_EXPONENT]++;
    12e2:	00130e93          	addi	t4,t1,1

000012e6 <.LBB202>:
        retval = ((c>='0') & (c<='9')) ? 1 : 0;
    12e6:	4e25                	li	t3,9

000012e8 <.LBE202>:
                                transition_count[CORE_EXPONENT]++;
    12e8:	01d5ac23          	sw	t4,24(a1)

000012ec <.LBB203>:
        retval = ((c>='0') & (c<='9')) ? 1 : 0;
    12ec:	fcae6ae3          	bltu	t3,a0,12c0 <.L566>

000012f0 <.LBE203>:
        for( ; *str && state != CORE_INVALID; str++ ) {
    12f0:	0023c603          	lbu	a2,2(t2)
    12f4:	ca49                	beqz	a2,1386 <.L569>

000012f6 <.LVL384>:
                        str++;
    12f6:	00338513          	addi	a0,t2,3
                if (NEXT_SYMBOL==',') /* end of this input */ {
    12fa:	09e60563          	beq	a2,t5,1384 <.L556>

000012fe <.LBB204>:
        retval = ((c>='0') & (c<='9')) ? 1 : 0;
    12fe:	43a5                	li	t2,9

00001300 <.LBE204>:
                if (NEXT_SYMBOL==',') /* end of this input */ {
    1300:	02c00f13          	li	t5,44

00001304 <.L514>:
        retval = ((c>='0') & (c<='9')) ? 1 : 0;
    1304:	fd060f93          	addi	t6,a2,-48
    1308:	0ffff893          	andi	a7,t6,255
    130c:	0113fa63          	bgeu	t2,a7,1320 <.L537>

00001310 <.LBE209>:
                                transition_count[CORE_INVALID]++;
    1310:	0045a283          	lw	t0,4(a1)
    1314:	872a                	mv	a4,a0
                                state = CORE_INVALID;
    1316:	4505                	li	a0,1

00001318 <.LVL387>:
                                transition_count[CORE_INVALID]++;
    1318:	00128693          	addi	a3,t0,1
    131c:	c1d4                	sw	a3,4(a1)

0000131e <.LVL388>:
        for( ; *str && state != CORE_INVALID; str++ ) {
    131e:	b5f9                	j	11ec <.L510>

00001320 <.L537>:
    1320:	00174603          	lbu	a2,1(a4)

00001324 <.LVL390>:
    1324:	00150313          	addi	t1,a0,1
    1328:	872a                	mv	a4,a0
    132a:	ce29                	beqz	a2,1384 <.L556>
                if (NEXT_SYMBOL==',') /* end of this input */ {
    132c:	07e60663          	beq	a2,t5,1398 <.L557>
        for( ; *str && state != CORE_INVALID; str++ ) {
    1330:	851a                	mv	a0,t1

00001332 <.LVL391>:
    1332:	bfc9                	j	1304 <.L514>

00001334 <.L532>:
    1334:	0017c303          	lbu	t1,1(a5)

00001338 <.LVL393>:
    1338:	00138713          	addi	a4,t2,1

0000133c <.LVL394>:
    133c:	879e                	mv	a5,t2
    133e:	02030e63          	beqz	t1,137a <.L558>
                if (NEXT_SYMBOL==',') /* end of this input */ {
    1342:	03f30d63          	beq	t1,t6,137c <.L565>
        for( ; *str && state != CORE_INVALID; str++ ) {
    1346:	83ba                	mv	t2,a4
    1348:	b551                	j	11cc <.L539>

0000134a <.L521>:
                        transition_count[CORE_START]++;
    134a:	0075a023          	sw	t2,0(a1)

0000134e <.LVL396>:
        for( ; *str && state != CORE_INVALID; str++ ) {
    134e:	0017c303          	lbu	t1,1(a5)
    1352:	02030563          	beqz	t1,137c <.L565>

00001356 <.LVL397>:
                        str++;
    1356:	00278393          	addi	t2,a5,2
                if (NEXT_SYMBOL==',') /* end of this input */ {
    135a:	02a30063          	beq	t1,a0,137a <.L558>

0000135e <.L564>:
        for( ; *str && state != CORE_INVALID; str++ ) {
    135e:	87ba                	mv	a5,a4
    1360:	b58d                	j	11c2 <.L513>

00001362 <.L577>:
                                transition_count[CORE_S1]++;
    1362:	0065a423          	sw	t1,8(a1)

00001366 <.LVL400>:
        for( ; *str && state != CORE_INVALID; str++ ) {
    1366:	0027c303          	lbu	t1,2(a5)
    136a:	00030963          	beqz	t1,137c <.L565>

0000136e <.LVL401>:
                if (NEXT_SYMBOL==',') /* end of this input */ {
    136e:	02c00e13          	li	t3,44
                        str++;
    1372:	00170393          	addi	t2,a4,1
                if (NEXT_SYMBOL==',') /* end of this input */ {
    1376:	ffc314e3          	bne	t1,t3,135e <.L564>

0000137a <.L558>:
        for( ; *str && state != CORE_INVALID; str++ ) {
    137a:	871e                	mv	a4,t2

0000137c <.L565>:
    137c:	4515                	li	a0,5
    137e:	b5bd                	j	11ec <.L510>

00001380 <.L573>:
                if (NEXT_SYMBOL==',') /* end of this input */ {
    1380:	4501                	li	a0,0

00001382 <.LVL405>:
                        break;
    1382:	b5ad                	j	11ec <.L510>

00001384 <.L556>:
        for( ; *str && state != CORE_INVALID; str++ ) {
    1384:	872a                	mv	a4,a0

00001386 <.L569>:
    1386:	451d                	li	a0,7
    1388:	b595                	j	11ec <.L510>

0000138a <.L578>:
    138a:	871e                	mv	a4,t2

0000138c <.L568>:
                                state = CORE_S2;
    138c:	450d                	li	a0,3
    138e:	bdb9                	j	11ec <.L510>

00001390 <.L567>:
                                state = CORE_EXPONENT;
    1390:	4519                	li	a0,6
    1392:	bda9                	j	11ec <.L510>

00001394 <.L552>:
                                state = CORE_S1;
    1394:	4509                	li	a0,2
    1396:	bd99                	j	11ec <.L510>

00001398 <.L557>:
        for( ; *str && state != CORE_INVALID; str++ ) {
    1398:	871a                	mv	a4,t1
                if (NEXT_SYMBOL==',') /* end of this input */ {
    139a:	451d                	li	a0,7

0000139c <.LVL412>:
    139c:	bd81                	j	11ec <.L510>

0000139e <.L555>:
        for( ; *str && state != CORE_INVALID; str++ ) {
    139e:	872a                	mv	a4,a0
                if (NEXT_SYMBOL==',') /* end of this input */ {
    13a0:	4511                	li	a0,4

000013a2 <.LVL414>:
    13a2:	b5a9                	j	11ec <.L510>

000013a4 <get_seed_32>:
        extern volatile ee_s32 seed3_volatile;
        extern volatile ee_s32 seed4_volatile;
        extern volatile ee_s32 seed5_volatile;
        ee_s32 get_seed_32(int i) {
                ee_s32 retval;
                switch (i) {
    13a4:	4795                	li	a5,5
    13a6:	02a7ef63          	bltu	a5,a0,13e4 <.L588>
    13aa:	62c1                	lui	t0,0x10
    13ac:	050a                	slli	a0,a0,0x2

000013ae <.LVL416>:
    13ae:	00c28313          	addi	t1,t0,12 # 1000c <.L583>
    13b2:	006503b3          	add	t2,a0,t1
    13b6:	0003a583          	lw	a1,0(t2)
    13ba:	8582                	jr	a1

000013bc <.L582>:
                                break;
                        case 4:
                                retval=seed4_volatile;
                                break;
                        case 5:
                                retval=seed5_volatile;
    13bc:	6645                	lui	a2,0x11
    13be:	ea062503          	lw	a0,-352(a2) # 10ea0 <seed5_volatile>

000013c2 <.LVL417>:
                                break;
    13c2:	8082                	ret

000013c4 <.L587>:
                                retval=seed1_volatile;
    13c4:	68c5                	lui	a7,0x11
    13c6:	ea88a503          	lw	a0,-344(a7) # 10ea8 <seed1_volatile>

000013ca <.LVL419>:
                                break;
    13ca:	8082                	ret

000013cc <.L586>:
                                retval=seed2_volatile;
    13cc:	6845                	lui	a6,0x11
    13ce:	ea482503          	lw	a0,-348(a6) # 10ea4 <seed2_volatile>

000013d2 <.LVL421>:
                                break;
    13d2:	8082                	ret

000013d4 <.L585>:
                                retval=seed3_volatile;
    13d4:	6741                	lui	a4,0x10
    13d6:	0f072503          	lw	a0,240(a4) # 100f0 <seed3_volatile>

000013da <.LVL423>:
                                break;
    13da:	8082                	ret

000013dc <.L584>:
                                retval=seed4_volatile;
    13dc:	66c1                	lui	a3,0x10
    13de:	0ec6a503          	lw	a0,236(a3) # 100ec <seed4_volatile>

000013e2 <.LVL425>:
                                break;
    13e2:	8082                	ret

000013e4 <.L588>:
        ee_s32 get_seed_32(int i) {
    13e4:	4501                	li	a0,0

000013e6 <.LVL427>:
                        default:
                                retval=0;
                                break;
                }
                return retval;
        }
    13e6:	8082                	ret

000013e8 <crcu8>:
{
        ee_u8 i=0,x16=0,carry=0;

        for (i = 0; i < 8; i++)
    {
                x16 = (ee_u8)((data & 1) ^ ((ee_u8)crc & 1));
    13e8:	00b546b3          	xor	a3,a0,a1
                data >>= 1;

                if (x16 == 1)
    13ec:	0016f293          	andi	t0,a3,1
                data >>= 1;
    13f0:	00155713          	srli	a4,a0,0x1

000013f4 <.LVL429>:
                if (x16 == 1)
    13f4:	0015d613          	srli	a2,a1,0x1
    13f8:	00028b63          	beqz	t0,140e <.L590>

000013fc <.LVL430>:
                }
                else
                        carry = 0;
                crc >>= 1;
                if (carry)
                   crc |= 0x8000;
    13fc:	7369                	lui	t1,0xffffa
    13fe:	00130393          	addi	t2,t1,1 # ffffa001 <STACK+0xfffe1931>
    1402:	007647b3          	xor	a5,a2,t2

00001406 <.LVL431>:
    1406:	01079593          	slli	a1,a5,0x10

0000140a <.LVL432>:
    140a:	0105d613          	srli	a2,a1,0x10

0000140e <.L590>:
                x16 = (ee_u8)((data & 1) ^ ((ee_u8)crc & 1));
    140e:	00e64833          	xor	a6,a2,a4
                if (x16 == 1)
    1412:	00187893          	andi	a7,a6,1
                data >>= 1;
    1416:	00255e13          	srli	t3,a0,0x2

0000141a <.LVL434>:
                if (x16 == 1)
    141a:	00165293          	srli	t0,a2,0x1
    141e:	00088b63          	beqz	a7,1434 <.L591>

00001422 <.LVL435>:
                   crc |= 0x8000;
    1422:	7ee9                	lui	t4,0xffffa
    1424:	001e8f13          	addi	t5,t4,1 # ffffa001 <STACK+0xfffe1931>
    1428:	01e2cfb3          	xor	t6,t0,t5

0000142c <.LVL436>:
    142c:	010f9693          	slli	a3,t6,0x10
    1430:	0106d293          	srli	t0,a3,0x10

00001434 <.L591>:
                x16 = (ee_u8)((data & 1) ^ ((ee_u8)crc & 1));
    1434:	01c2c733          	xor	a4,t0,t3
                if (x16 == 1)
    1438:	00177313          	andi	t1,a4,1
                data >>= 1;
    143c:	00355393          	srli	t2,a0,0x3

00001440 <.LVL438>:
                if (x16 == 1)
    1440:	0012d893          	srli	a7,t0,0x1
    1444:	00030b63          	beqz	t1,145a <.L592>

00001448 <.LVL439>:
                   crc |= 0x8000;
    1448:	75e9                	lui	a1,0xffffa
    144a:	00158613          	addi	a2,a1,1 # ffffa001 <STACK+0xfffe1931>
    144e:	00c8c7b3          	xor	a5,a7,a2

00001452 <.LVL440>:
    1452:	01079813          	slli	a6,a5,0x10
    1456:	01085893          	srli	a7,a6,0x10

0000145a <.L592>:
                x16 = (ee_u8)((data & 1) ^ ((ee_u8)crc & 1));
    145a:	0078ce33          	xor	t3,a7,t2
                if (x16 == 1)
    145e:	001e7e93          	andi	t4,t3,1
                data >>= 1;
    1462:	00455f13          	srli	t5,a0,0x4

00001466 <.LVL442>:
                if (x16 == 1)
    1466:	0018d313          	srli	t1,a7,0x1
    146a:	000e8b63          	beqz	t4,1480 <.L593>

0000146e <.LVL443>:
                   crc |= 0x8000;
    146e:	7fe9                	lui	t6,0xffffa
    1470:	001f8693          	addi	a3,t6,1 # ffffa001 <STACK+0xfffe1931>
    1474:	00d342b3          	xor	t0,t1,a3

00001478 <.LVL444>:
    1478:	01029713          	slli	a4,t0,0x10
    147c:	01075313          	srli	t1,a4,0x10

00001480 <.L593>:
                x16 = (ee_u8)((data & 1) ^ ((ee_u8)crc & 1));
    1480:	01e343b3          	xor	t2,t1,t5
                if (x16 == 1)
    1484:	0013f593          	andi	a1,t2,1
                data >>= 1;
    1488:	00555613          	srli	a2,a0,0x5

0000148c <.LVL446>:
                if (x16 == 1)
    148c:	00135e93          	srli	t4,t1,0x1
    1490:	c991                	beqz	a1,14a4 <.L594>

00001492 <.LVL447>:
                   crc |= 0x8000;
    1492:	7869                	lui	a6,0xffffa
    1494:	00180893          	addi	a7,a6,1 # ffffa001 <STACK+0xfffe1931>
    1498:	011ec7b3          	xor	a5,t4,a7

0000149c <.LVL448>:
    149c:	01079e13          	slli	t3,a5,0x10
    14a0:	010e5e93          	srli	t4,t3,0x10

000014a4 <.L594>:
                x16 = (ee_u8)((data & 1) ^ ((ee_u8)crc & 1));
    14a4:	00cecf33          	xor	t5,t4,a2
                if (x16 == 1)
    14a8:	001f7f93          	andi	t6,t5,1
                data >>= 1;
    14ac:	00655693          	srli	a3,a0,0x6

000014b0 <.LVL450>:
                if (x16 == 1)
    14b0:	001ed593          	srli	a1,t4,0x1
    14b4:	000f8b63          	beqz	t6,14ca <.L595>

000014b8 <.LVL451>:
                   crc |= 0x8000;
    14b8:	72e9                	lui	t0,0xffffa
    14ba:	00128713          	addi	a4,t0,1 # ffffa001 <STACK+0xfffe1931>
    14be:	00e5c333          	xor	t1,a1,a4

000014c2 <.LVL452>:
    14c2:	01031393          	slli	t2,t1,0x10
    14c6:	0103d593          	srli	a1,t2,0x10

000014ca <.L595>:
                x16 = (ee_u8)((data & 1) ^ ((ee_u8)crc & 1));
    14ca:	00d5c633          	xor	a2,a1,a3
                if (x16 == 1)
    14ce:	00167813          	andi	a6,a2,1
                data >>= 1;
    14d2:	00755893          	srli	a7,a0,0x7

000014d6 <.LVL454>:
                if (x16 == 1)
    14d6:	0015df13          	srli	t5,a1,0x1
    14da:	00080b63          	beqz	a6,14f0 <.L596>

000014de <.LVL455>:
                   crc |= 0x8000;
    14de:	77e9                	lui	a5,0xffffa
    14e0:	00178e13          	addi	t3,a5,1 # ffffa001 <STACK+0xfffe1931>
    14e4:	01cf4533          	xor	a0,t5,t3

000014e8 <.LVL456>:
    14e8:	01051e93          	slli	t4,a0,0x10
    14ec:	010edf13          	srli	t5,t4,0x10

000014f0 <.L596>:
                if (x16 == 1)
    14f0:	001f7f93          	andi	t6,t5,1
    14f4:	001f5513          	srli	a0,t5,0x1
    14f8:	011f8b63          	beq	t6,a7,150e <.L597>

000014fc <.LVL458>:
                   crc |= 0x8000;
    14fc:	76e9                	lui	a3,0xffffa
    14fe:	00168293          	addi	t0,a3,1 # ffffa001 <STACK+0xfffe1931>
    1502:	00554733          	xor	a4,a0,t0
    1506:	01071313          	slli	t1,a4,0x10
    150a:	01035513          	srli	a0,t1,0x10

0000150e <.L597>:
                else
                   crc &= 0x7fff;
    }
        return crc;
}
    150e:	8082                	ret

00001510 <crcu16>:
                x16 = (ee_u8)((data & 1) ^ ((ee_u8)crc & 1));
    1510:	00a5c6b3          	xor	a3,a1,a0

00001514 <.LBE214>:
ee_u16 crcu16(ee_u16 newval, ee_u16 crc) {
        crc=crcu8( (ee_u8) (newval)                             ,crc);
    1514:	0ff57713          	andi	a4,a0,255

00001518 <.LBB218>:
                if (x16 == 1)
    1518:	0016f293          	andi	t0,a3,1

0000151c <.LBE218>:
ee_u16 crcu16(ee_u16 newval, ee_u16 crc) {
    151c:	87aa                	mv	a5,a0

0000151e <.LBB219>:
                data >>= 1;
    151e:	00175613          	srli	a2,a4,0x1

00001522 <.LVL462>:
                crc >>= 1;
    1522:	0015d813          	srli	a6,a1,0x1
                if (x16 == 1)
    1526:	00028b63          	beqz	t0,153c <.L623>

0000152a <.LVL463>:
                   crc |= 0x8000;
    152a:	7369                	lui	t1,0xffffa
    152c:	00130393          	addi	t2,t1,1 # ffffa001 <STACK+0xfffe1931>
    1530:	00784533          	xor	a0,a6,t2

00001534 <.LVL464>:
    1534:	01051593          	slli	a1,a0,0x10

00001538 <.LVL465>:
    1538:	0105d813          	srli	a6,a1,0x10

0000153c <.L623>:
                x16 = (ee_u8)((data & 1) ^ ((ee_u8)crc & 1));
    153c:	00c848b3          	xor	a7,a6,a2
                if (x16 == 1)
    1540:	0018fe13          	andi	t3,a7,1
                data >>= 1;
    1544:	00275e93          	srli	t4,a4,0x2

00001548 <.LVL467>:
                crc >>= 1;
    1548:	00185313          	srli	t1,a6,0x1
                if (x16 == 1)
    154c:	000e0b63          	beqz	t3,1562 <.L624>

00001550 <.LVL468>:
                   crc |= 0x8000;
    1550:	7f69                	lui	t5,0xffffa
    1552:	001f0f93          	addi	t6,t5,1 # ffffa001 <STACK+0xfffe1931>
    1556:	01f346b3          	xor	a3,t1,t6

0000155a <.LVL469>:
    155a:	01069293          	slli	t0,a3,0x10
    155e:	0102d313          	srli	t1,t0,0x10

00001562 <.L624>:
                x16 = (ee_u8)((data & 1) ^ ((ee_u8)crc & 1));
    1562:	01d34633          	xor	a2,t1,t4
                if (x16 == 1)
    1566:	00167393          	andi	t2,a2,1
                data >>= 1;
    156a:	00375593          	srli	a1,a4,0x3

0000156e <.LVL471>:
                crc >>= 1;
    156e:	00135e93          	srli	t4,t1,0x1
                if (x16 == 1)
    1572:	00038b63          	beqz	t2,1588 <.L625>

00001576 <.LVL472>:
                   crc |= 0x8000;
    1576:	7869                	lui	a6,0xffffa
    1578:	00180893          	addi	a7,a6,1 # ffffa001 <STACK+0xfffe1931>
    157c:	011ec533          	xor	a0,t4,a7

00001580 <.LVL473>:
    1580:	01051e13          	slli	t3,a0,0x10
    1584:	010e5e93          	srli	t4,t3,0x10

00001588 <.L625>:
                x16 = (ee_u8)((data & 1) ^ ((ee_u8)crc & 1));
    1588:	00becf33          	xor	t5,t4,a1
                if (x16 == 1)
    158c:	001f7f93          	andi	t6,t5,1
                data >>= 1;
    1590:	00475693          	srli	a3,a4,0x4

00001594 <.LVL475>:
                crc >>= 1;
    1594:	001ed593          	srli	a1,t4,0x1
                if (x16 == 1)
    1598:	000f8b63          	beqz	t6,15ae <.L626>

0000159c <.LVL476>:
                   crc |= 0x8000;
    159c:	72e9                	lui	t0,0xffffa
    159e:	00128313          	addi	t1,t0,1 # ffffa001 <STACK+0xfffe1931>
    15a2:	0065c633          	xor	a2,a1,t1

000015a6 <.LVL477>:
    15a6:	01061393          	slli	t2,a2,0x10
    15aa:	0103d593          	srli	a1,t2,0x10

000015ae <.L626>:
                x16 = (ee_u8)((data & 1) ^ ((ee_u8)crc & 1));
    15ae:	00d5c833          	xor	a6,a1,a3
                if (x16 == 1)
    15b2:	00187893          	andi	a7,a6,1
                data >>= 1;
    15b6:	00575e13          	srli	t3,a4,0x5

000015ba <.LVL479>:
                crc >>= 1;
    15ba:	0015d293          	srli	t0,a1,0x1
                if (x16 == 1)
    15be:	00088b63          	beqz	a7,15d4 <.L627>

000015c2 <.LVL480>:
                   crc |= 0x8000;
    15c2:	7ee9                	lui	t4,0xffffa
    15c4:	001e8f13          	addi	t5,t4,1 # ffffa001 <STACK+0xfffe1931>
    15c8:	01e2c533          	xor	a0,t0,t5

000015cc <.LVL481>:
    15cc:	01051f93          	slli	t6,a0,0x10
    15d0:	010fd293          	srli	t0,t6,0x10

000015d4 <.L627>:
                x16 = (ee_u8)((data & 1) ^ ((ee_u8)crc & 1));
    15d4:	01c2c6b3          	xor	a3,t0,t3
                if (x16 == 1)
    15d8:	0016f313          	andi	t1,a3,1
                data >>= 1;
    15dc:	00675393          	srli	t2,a4,0x6

000015e0 <.LVL483>:
                crc >>= 1;
    15e0:	0012de13          	srli	t3,t0,0x1
                if (x16 == 1)
    15e4:	00030b63          	beqz	t1,15fa <.L628>

000015e8 <.LVL484>:
                   crc |= 0x8000;
    15e8:	7669                	lui	a2,0xffffa
    15ea:	00160593          	addi	a1,a2,1 # ffffa001 <STACK+0xfffe1931>
    15ee:	00be4833          	xor	a6,t3,a1

000015f2 <.LVL485>:
    15f2:	01081893          	slli	a7,a6,0x10
    15f6:	0108de13          	srli	t3,a7,0x10

000015fa <.L628>:
                x16 = (ee_u8)((data & 1) ^ ((ee_u8)crc & 1));
    15fa:	007e4eb3          	xor	t4,t3,t2
                if (x16 == 1)
    15fe:	001eff13          	andi	t5,t4,1
                data >>= 1;
    1602:	831d                	srli	a4,a4,0x7

00001604 <.LVL487>:
                crc >>= 1;
    1604:	001e5313          	srli	t1,t3,0x1
                if (x16 == 1)
    1608:	000f0b63          	beqz	t5,161e <.L629>

0000160c <.LVL488>:
                   crc |= 0x8000;
    160c:	7fe9                	lui	t6,0xffffa
    160e:	001f8293          	addi	t0,t6,1 # ffffa001 <STACK+0xfffe1931>
    1612:	00534533          	xor	a0,t1,t0

00001616 <.LVL489>:
    1616:	01051693          	slli	a3,a0,0x10
    161a:	0106d313          	srli	t1,a3,0x10

0000161e <.L629>:
                if (x16 == 1)
    161e:	00137393          	andi	t2,t1,1
                crc >>= 1;
    1622:	00135e13          	srli	t3,t1,0x1
                if (x16 == 1)
    1626:	00e38b63          	beq	t2,a4,163c <.L630>

0000162a <.LVL491>:
                   crc |= 0x8000;
    162a:	7669                	lui	a2,0xffffa
    162c:	00160593          	addi	a1,a2,1 # ffffa001 <STACK+0xfffe1931>
    1630:	00be4833          	xor	a6,t3,a1

00001634 <.LVL492>:
    1634:	01081893          	slli	a7,a6,0x10
    1638:	0108de13          	srli	t3,a7,0x10

0000163c <.L630>:
        crc=crcu8( (ee_u8) ((newval)>>8)        ,crc);
    163c:	0087de93          	srli	t4,a5,0x8

00001640 <.LBB220>:
                x16 = (ee_u8)((data & 1) ^ ((ee_u8)crc & 1));
    1640:	01cecf33          	xor	t5,t4,t3
                if (x16 == 1)
    1644:	001f7f93          	andi	t6,t5,1

00001648 <.LBE220>:
        crc=crcu8( (ee_u8) ((newval)>>8)        ,crc);
    1648:	0087d713          	srli	a4,a5,0x8

0000164c <.LBB223>:
                data >>= 1;
    164c:	001e5393          	srli	t2,t3,0x1
    1650:	83a5                	srli	a5,a5,0x9

00001652 <.LVL495>:
                if (x16 == 1)
    1652:	000f8b63          	beqz	t6,1668 <.L631>

00001656 <.LVL496>:
                   crc |= 0x8000;
    1656:	72e9                	lui	t0,0xffffa
    1658:	00128693          	addi	a3,t0,1 # ffffa001 <STACK+0xfffe1931>
    165c:	00d3c533          	xor	a0,t2,a3

00001660 <.LVL497>:
    1660:	01051313          	slli	t1,a0,0x10
    1664:	01035393          	srli	t2,t1,0x10

00001668 <.L631>:
                x16 = (ee_u8)((data & 1) ^ ((ee_u8)crc & 1));
    1668:	0077c633          	xor	a2,a5,t2
                if (x16 == 1)
    166c:	00167593          	andi	a1,a2,1
                data >>= 1;
    1670:	00275813          	srli	a6,a4,0x2

00001674 <.LVL499>:
                if (x16 == 1)
    1674:	0013df93          	srli	t6,t2,0x1
    1678:	c991                	beqz	a1,168c <.L632>

0000167a <.LVL500>:
                   crc |= 0x8000;
    167a:	78e9                	lui	a7,0xffffa
    167c:	00188e13          	addi	t3,a7,1 # ffffa001 <STACK+0xfffe1931>
    1680:	01cfceb3          	xor	t4,t6,t3

00001684 <.LVL501>:
    1684:	010e9f13          	slli	t5,t4,0x10
    1688:	010f5f93          	srli	t6,t5,0x10

0000168c <.L632>:
                x16 = (ee_u8)((data & 1) ^ ((ee_u8)crc & 1));
    168c:	010fc7b3          	xor	a5,t6,a6
                if (x16 == 1)
    1690:	0017f293          	andi	t0,a5,1
                data >>= 1;
    1694:	00375693          	srli	a3,a4,0x3

00001698 <.LVL503>:
                if (x16 == 1)
    1698:	001fd593          	srli	a1,t6,0x1
    169c:	00028b63          	beqz	t0,16b2 <.L633>

000016a0 <.LVL504>:
                   crc |= 0x8000;
    16a0:	7369                	lui	t1,0xffffa
    16a2:	00130393          	addi	t2,t1,1 # ffffa001 <STACK+0xfffe1931>
    16a6:	0075c533          	xor	a0,a1,t2

000016aa <.LVL505>:
    16aa:	01051613          	slli	a2,a0,0x10
    16ae:	01065593          	srli	a1,a2,0x10

000016b2 <.L633>:
                x16 = (ee_u8)((data & 1) ^ ((ee_u8)crc & 1));
    16b2:	00d5c833          	xor	a6,a1,a3
                if (x16 == 1)
    16b6:	00187893          	andi	a7,a6,1
                data >>= 1;
    16ba:	00475e13          	srli	t3,a4,0x4

000016be <.LVL507>:
                if (x16 == 1)
    16be:	0015d293          	srli	t0,a1,0x1
    16c2:	00088b63          	beqz	a7,16d8 <.L634>

000016c6 <.LVL508>:
                   crc |= 0x8000;
    16c6:	7ee9                	lui	t4,0xffffa
    16c8:	001e8f13          	addi	t5,t4,1 # ffffa001 <STACK+0xfffe1931>
    16cc:	01e2cfb3          	xor	t6,t0,t5

000016d0 <.LVL509>:
    16d0:	010f9793          	slli	a5,t6,0x10
    16d4:	0107d293          	srli	t0,a5,0x10

000016d8 <.L634>:
                x16 = (ee_u8)((data & 1) ^ ((ee_u8)crc & 1));
    16d8:	01c2c6b3          	xor	a3,t0,t3
                if (x16 == 1)
    16dc:	0016f313          	andi	t1,a3,1
                data >>= 1;
    16e0:	00575393          	srli	t2,a4,0x5

000016e4 <.LVL511>:
                if (x16 == 1)
    16e4:	0012d893          	srli	a7,t0,0x1
    16e8:	00030b63          	beqz	t1,16fe <.L635>

000016ec <.LVL512>:
                   crc |= 0x8000;
    16ec:	7669                	lui	a2,0xffffa
    16ee:	00160593          	addi	a1,a2,1 # ffffa001 <STACK+0xfffe1931>
    16f2:	00b8c533          	xor	a0,a7,a1

000016f6 <.LVL513>:
    16f6:	01051813          	slli	a6,a0,0x10
    16fa:	01085893          	srli	a7,a6,0x10

000016fe <.L635>:
                x16 = (ee_u8)((data & 1) ^ ((ee_u8)crc & 1));
    16fe:	0078ce33          	xor	t3,a7,t2
                if (x16 == 1)
    1702:	001e7e93          	andi	t4,t3,1
                data >>= 1;
    1706:	00675f13          	srli	t5,a4,0x6

0000170a <.LVL515>:
                if (x16 == 1)
    170a:	0018d313          	srli	t1,a7,0x1
    170e:	000e8b63          	beqz	t4,1724 <.L636>

00001712 <.LVL516>:
                   crc |= 0x8000;
    1712:	7fe9                	lui	t6,0xffffa
    1714:	001f8793          	addi	a5,t6,1 # ffffa001 <STACK+0xfffe1931>
    1718:	00f342b3          	xor	t0,t1,a5

0000171c <.LVL517>:
    171c:	01029693          	slli	a3,t0,0x10
    1720:	0106d313          	srli	t1,a3,0x10

00001724 <.L636>:
                x16 = (ee_u8)((data & 1) ^ ((ee_u8)crc & 1));
    1724:	01e343b3          	xor	t2,t1,t5
                if (x16 == 1)
    1728:	0013f613          	andi	a2,t2,1
                data >>= 1;
    172c:	831d                	srli	a4,a4,0x7

0000172e <.LVL519>:
                if (x16 == 1)
    172e:	00135e13          	srli	t3,t1,0x1
    1732:	ca11                	beqz	a2,1746 <.L637>

00001734 <.LVL520>:
                   crc |= 0x8000;
    1734:	75e9                	lui	a1,0xffffa
    1736:	00158813          	addi	a6,a1,1 # ffffa001 <STACK+0xfffe1931>
    173a:	010e4533          	xor	a0,t3,a6

0000173e <.LVL521>:
    173e:	01051893          	slli	a7,a0,0x10
    1742:	0108de13          	srli	t3,a7,0x10

00001746 <.L637>:
                if (x16 == 1)
    1746:	001e7e93          	andi	t4,t3,1
    174a:	001e5513          	srli	a0,t3,0x1
    174e:	00ee8b63          	beq	t4,a4,1764 <.L638>

00001752 <.LVL523>:
                   crc |= 0x8000;
    1752:	7f69                	lui	t5,0xffffa
    1754:	001f0f93          	addi	t6,t5,1 # ffffa001 <STACK+0xfffe1931>
    1758:	01f547b3          	xor	a5,a0,t6
    175c:	01079293          	slli	t0,a5,0x10
    1760:	0102d513          	srli	a0,t0,0x10

00001764 <.L638>:
        return crc;
}
    1764:	8082                	ret

00001766 <crcu32>:
                x16 = (ee_u8)((data & 1) ^ ((ee_u8)crc & 1));
    1766:	00a5c833          	xor	a6,a1,a0

0000176a <.LBE248>:
        crc=crcu8( (ee_u8) (newval)                             ,crc);
    176a:	0ff57693          	andi	a3,a0,255

0000176e <.LBE246>:
        crc=crc16((ee_s16) newval               ,crc);
        crc=crc16((ee_s16) (newval>>16) ,crc);
        return crc;
}
ee_u16 crc16(ee_s16 newval, ee_u16 crc) {
        return crcu16((ee_u16)newval, crc);
    176e:	01051713          	slli	a4,a0,0x10

00001772 <.LBB253>:
                if (x16 == 1)
    1772:	00187293          	andi	t0,a6,1

00001776 <.LBE244>:
ee_u16 crcu32(ee_u32 newval, ee_u16 crc) {
    1776:	87aa                	mv	a5,a0

00001778 <.LBB270>:
        return crcu16((ee_u16)newval, crc);
    1778:	01075313          	srli	t1,a4,0x10

0000177c <.LBB254>:
                data >>= 1;
    177c:	0016d613          	srli	a2,a3,0x1

00001780 <.LVL528>:
                crc >>= 1;
    1780:	0015de13          	srli	t3,a1,0x1
                if (x16 == 1)
    1784:	00028b63          	beqz	t0,179a <.L688>

00001788 <.LVL529>:
                   crc |= 0x8000;
    1788:	75e9                	lui	a1,0xffffa

0000178a <.LVL530>:
    178a:	00158393          	addi	t2,a1,1 # ffffa001 <STACK+0xfffe1931>
    178e:	007e4533          	xor	a0,t3,t2

00001792 <.LVL531>:
    1792:	01051893          	slli	a7,a0,0x10
    1796:	0108de13          	srli	t3,a7,0x10

0000179a <.L688>:
                x16 = (ee_u8)((data & 1) ^ ((ee_u8)crc & 1));
    179a:	00ce4eb3          	xor	t4,t3,a2
                if (x16 == 1)
    179e:	001eff13          	andi	t5,t4,1
                data >>= 1;
    17a2:	0026df93          	srli	t6,a3,0x2

000017a6 <.LVL533>:
                crc >>= 1;
    17a6:	001e5393          	srli	t2,t3,0x1
                if (x16 == 1)
    17aa:	000f0b63          	beqz	t5,17c0 <.L689>

000017ae <.LVL534>:
                   crc |= 0x8000;
    17ae:	7869                	lui	a6,0xffffa
    17b0:	00180293          	addi	t0,a6,1 # ffffa001 <STACK+0xfffe1931>
    17b4:	0053c733          	xor	a4,t2,t0

000017b8 <.LVL535>:
    17b8:	01071613          	slli	a2,a4,0x10
    17bc:	01065393          	srli	t2,a2,0x10

000017c0 <.L689>:
                x16 = (ee_u8)((data & 1) ^ ((ee_u8)crc & 1));
    17c0:	01f3c5b3          	xor	a1,t2,t6
                if (x16 == 1)
    17c4:	0015f893          	andi	a7,a1,1
                data >>= 1;
    17c8:	0036de13          	srli	t3,a3,0x3

000017cc <.LVL537>:
                crc >>= 1;
    17cc:	0013d813          	srli	a6,t2,0x1
                if (x16 == 1)
    17d0:	00088b63          	beqz	a7,17e6 <.L690>

000017d4 <.LVL538>:
                   crc |= 0x8000;
    17d4:	7ee9                	lui	t4,0xffffa
    17d6:	001e8f13          	addi	t5,t4,1 # ffffa001 <STACK+0xfffe1931>
    17da:	01e84533          	xor	a0,a6,t5

000017de <.LVL539>:
    17de:	01051f93          	slli	t6,a0,0x10
    17e2:	010fd813          	srli	a6,t6,0x10

000017e6 <.L690>:
                x16 = (ee_u8)((data & 1) ^ ((ee_u8)crc & 1));
    17e6:	01c842b3          	xor	t0,a6,t3
                if (x16 == 1)
    17ea:	0012f713          	andi	a4,t0,1
                data >>= 1;
    17ee:	0046d613          	srli	a2,a3,0x4

000017f2 <.LVL541>:
                crc >>= 1;
    17f2:	00185e93          	srli	t4,a6,0x1
                if (x16 == 1)
    17f6:	cb11                	beqz	a4,180a <.L691>

000017f8 <.LVL542>:
                   crc |= 0x8000;
    17f8:	73e9                	lui	t2,0xffffa
    17fa:	00138593          	addi	a1,t2,1 # ffffa001 <STACK+0xfffe1931>
    17fe:	00bec8b3          	xor	a7,t4,a1

00001802 <.LVL543>:
    1802:	01089e13          	slli	t3,a7,0x10
    1806:	010e5e93          	srli	t4,t3,0x10

0000180a <.L691>:
                x16 = (ee_u8)((data & 1) ^ ((ee_u8)crc & 1));
    180a:	00cecf33          	xor	t5,t4,a2
                if (x16 == 1)
    180e:	001f7f93          	andi	t6,t5,1
                data >>= 1;
    1812:	0056d813          	srli	a6,a3,0x5

00001816 <.LVL545>:
                crc >>= 1;
    1816:	001ed393          	srli	t2,t4,0x1
                if (x16 == 1)
    181a:	000f8b63          	beqz	t6,1830 <.L692>

0000181e <.LVL546>:
                   crc |= 0x8000;
    181e:	72e9                	lui	t0,0xffffa
    1820:	00128713          	addi	a4,t0,1 # ffffa001 <STACK+0xfffe1931>
    1824:	00e3c533          	xor	a0,t2,a4

00001828 <.LVL547>:
    1828:	01051613          	slli	a2,a0,0x10
    182c:	01065393          	srli	t2,a2,0x10

00001830 <.L692>:
                x16 = (ee_u8)((data & 1) ^ ((ee_u8)crc & 1));
    1830:	0103c5b3          	xor	a1,t2,a6
                if (x16 == 1)
    1834:	0015f893          	andi	a7,a1,1
                data >>= 1;
    1838:	0066de13          	srli	t3,a3,0x6

0000183c <.LVL549>:
                crc >>= 1;
    183c:	0013d293          	srli	t0,t2,0x1
                if (x16 == 1)
    1840:	00088b63          	beqz	a7,1856 <.L693>

00001844 <.LVL550>:
                   crc |= 0x8000;
    1844:	7ee9                	lui	t4,0xffffa
    1846:	001e8f13          	addi	t5,t4,1 # ffffa001 <STACK+0xfffe1931>
    184a:	01e2cfb3          	xor	t6,t0,t5

0000184e <.LVL551>:
    184e:	010f9813          	slli	a6,t6,0x10
    1852:	01085293          	srli	t0,a6,0x10

00001856 <.L693>:
                x16 = (ee_u8)((data & 1) ^ ((ee_u8)crc & 1));
    1856:	01c2c733          	xor	a4,t0,t3
                if (x16 == 1)
    185a:	00177613          	andi	a2,a4,1
                data >>= 1;
    185e:	829d                	srli	a3,a3,0x7

00001860 <.LVL553>:
                crc >>= 1;
    1860:	0012de13          	srli	t3,t0,0x1
                if (x16 == 1)
    1864:	ca11                	beqz	a2,1878 <.L694>

00001866 <.LVL554>:
                   crc |= 0x8000;
    1866:	73e9                	lui	t2,0xffffa
    1868:	00138593          	addi	a1,t2,1 # ffffa001 <STACK+0xfffe1931>
    186c:	00be4533          	xor	a0,t3,a1

00001870 <.LVL555>:
    1870:	01051893          	slli	a7,a0,0x10
    1874:	0108de13          	srli	t3,a7,0x10

00001878 <.L694>:
                if (x16 == 1)
    1878:	001e7e93          	andi	t4,t3,1
                crc >>= 1;
    187c:	001e5393          	srli	t2,t3,0x1
                if (x16 == 1)
    1880:	38de9463          	bne	t4,a3,1c08 <.L816>

00001884 <.L695>:
        crc=crcu8( (ee_u8) ((newval)>>8)        ,crc);
    1884:	00835713          	srli	a4,t1,0x8

00001888 <.LBB255>:
                x16 = (ee_u8)((data & 1) ^ ((ee_u8)crc & 1));
    1888:	00e3c633          	xor	a2,t2,a4
                if (x16 == 1)
    188c:	00167593          	andi	a1,a2,1

00001890 <.LBE255>:
        crc=crcu8( (ee_u8) ((newval)>>8)        ,crc);
    1890:	00835693          	srli	a3,t1,0x8

00001894 <.LBB259>:
                data >>= 1;
    1894:	0013df13          	srli	t5,t2,0x1
    1898:	00935313          	srli	t1,t1,0x9

0000189c <.LVL559>:
                if (x16 == 1)
    189c:	c991                	beqz	a1,18b0 <.L696>

0000189e <.LVL560>:
                   crc |= 0x8000;
    189e:	78e9                	lui	a7,0xffffa
    18a0:	00188e13          	addi	t3,a7,1 # ffffa001 <STACK+0xfffe1931>
    18a4:	01cf4533          	xor	a0,t5,t3

000018a8 <.LVL561>:
    18a8:	01051e93          	slli	t4,a0,0x10
    18ac:	010edf13          	srli	t5,t4,0x10

000018b0 <.L696>:
                x16 = (ee_u8)((data & 1) ^ ((ee_u8)crc & 1));
    18b0:	006f4fb3          	xor	t6,t5,t1
                if (x16 == 1)
    18b4:	001ff813          	andi	a6,t6,1
                data >>= 1;
    18b8:	0026d293          	srli	t0,a3,0x2

000018bc <.LVL563>:
                if (x16 == 1)
    18bc:	001f5313          	srli	t1,t5,0x1
    18c0:	00080b63          	beqz	a6,18d6 <.L697>

000018c4 <.LVL564>:
                   crc |= 0x8000;
    18c4:	73e9                	lui	t2,0xffffa
    18c6:	00138713          	addi	a4,t2,1 # ffffa001 <STACK+0xfffe1931>
    18ca:	00e34633          	xor	a2,t1,a4

000018ce <.LVL565>:
    18ce:	01061593          	slli	a1,a2,0x10
    18d2:	0105d313          	srli	t1,a1,0x10

000018d6 <.L697>:
                x16 = (ee_u8)((data & 1) ^ ((ee_u8)crc & 1));
    18d6:	005348b3          	xor	a7,t1,t0
                if (x16 == 1)
    18da:	0018fe13          	andi	t3,a7,1
                data >>= 1;
    18de:	0036de93          	srli	t4,a3,0x3

000018e2 <.LVL567>:
                if (x16 == 1)
    18e2:	00135293          	srli	t0,t1,0x1
    18e6:	000e0b63          	beqz	t3,18fc <.L698>

000018ea <.LVL568>:
                   crc |= 0x8000;
    18ea:	7f69                	lui	t5,0xffffa
    18ec:	001f0f93          	addi	t6,t5,1 # ffffa001 <STACK+0xfffe1931>
    18f0:	01f2c533          	xor	a0,t0,t6

000018f4 <.LVL569>:
    18f4:	01051813          	slli	a6,a0,0x10
    18f8:	01085293          	srli	t0,a6,0x10

000018fc <.L698>:
                x16 = (ee_u8)((data & 1) ^ ((ee_u8)crc & 1));
    18fc:	01d2c3b3          	xor	t2,t0,t4
                if (x16 == 1)
    1900:	0013f613          	andi	a2,t2,1
                data >>= 1;
    1904:	0046d713          	srli	a4,a3,0x4

00001908 <.LVL571>:
                if (x16 == 1)
    1908:	0012de93          	srli	t4,t0,0x1
    190c:	ca11                	beqz	a2,1920 <.L699>

0000190e <.LVL572>:
                   crc |= 0x8000;
    190e:	75e9                	lui	a1,0xffffa
    1910:	00158313          	addi	t1,a1,1 # ffffa001 <STACK+0xfffe1931>
    1914:	006ec8b3          	xor	a7,t4,t1

00001918 <.LVL573>:
    1918:	01089e13          	slli	t3,a7,0x10
    191c:	010e5e93          	srli	t4,t3,0x10

00001920 <.L699>:
                x16 = (ee_u8)((data & 1) ^ ((ee_u8)crc & 1));
    1920:	00eecf33          	xor	t5,t4,a4
                if (x16 == 1)
    1924:	001f7f93          	andi	t6,t5,1
                data >>= 1;
    1928:	0056d813          	srli	a6,a3,0x5

0000192c <.LVL575>:
                if (x16 == 1)
    192c:	001ed593          	srli	a1,t4,0x1
    1930:	000f8b63          	beqz	t6,1946 <.L700>

00001934 <.LVL576>:
                   crc |= 0x8000;
    1934:	72e9                	lui	t0,0xffffa
    1936:	00128393          	addi	t2,t0,1 # ffffa001 <STACK+0xfffe1931>
    193a:	0075c533          	xor	a0,a1,t2

0000193e <.LVL577>:
    193e:	01051613          	slli	a2,a0,0x10
    1942:	01065593          	srli	a1,a2,0x10

00001946 <.L700>:
                x16 = (ee_u8)((data & 1) ^ ((ee_u8)crc & 1));
    1946:	0105c733          	xor	a4,a1,a6
                if (x16 == 1)
    194a:	00177313          	andi	t1,a4,1
                data >>= 1;
    194e:	0066d893          	srli	a7,a3,0x6

00001952 <.LVL579>:
                if (x16 == 1)
    1952:	0015d813          	srli	a6,a1,0x1
    1956:	00030b63          	beqz	t1,196c <.L701>

0000195a <.LVL580>:
                   crc |= 0x8000;
    195a:	7e69                	lui	t3,0xffffa
    195c:	001e0e93          	addi	t4,t3,1 # ffffa001 <STACK+0xfffe1931>
    1960:	01d84f33          	xor	t5,a6,t4

00001964 <.LVL581>:
    1964:	010f1f93          	slli	t6,t5,0x10
    1968:	010fd813          	srli	a6,t6,0x10

0000196c <.L701>:
                x16 = (ee_u8)((data & 1) ^ ((ee_u8)crc & 1));
    196c:	011842b3          	xor	t0,a6,a7
                if (x16 == 1)
    1970:	0012f393          	andi	t2,t0,1
                data >>= 1;
    1974:	829d                	srli	a3,a3,0x7

00001976 <.LVL583>:
                if (x16 == 1)
    1976:	00185313          	srli	t1,a6,0x1
    197a:	00038b63          	beqz	t2,1990 <.L702>

0000197e <.LVL584>:
                   crc |= 0x8000;
    197e:	7669                	lui	a2,0xffffa
    1980:	00160593          	addi	a1,a2,1 # ffffa001 <STACK+0xfffe1931>
    1984:	00b34533          	xor	a0,t1,a1

00001988 <.LVL585>:
    1988:	01051713          	slli	a4,a0,0x10
    198c:	01075313          	srli	t1,a4,0x10

00001990 <.L702>:
                if (x16 == 1)
    1990:	00137893          	andi	a7,t1,1
    1994:	00135813          	srli	a6,t1,0x1
    1998:	24d89e63          	bne	a7,a3,1bf4 <.L817>

0000199c <.L703>:
        crc=crc16((ee_s16) (newval>>16) ,crc);
    199c:	0107d293          	srli	t0,a5,0x10

000019a0 <.LBB271>:
                x16 = (ee_u8)((data & 1) ^ ((ee_u8)crc & 1));
    19a0:	005843b3          	xor	t2,a6,t0

000019a4 <.LBE275>:
        crc=crcu8( (ee_u8) (newval)                             ,crc);
    19a4:	0ff2f593          	andi	a1,t0,255

000019a8 <.LBB280>:
                if (x16 == 1)
    19a8:	0013f693          	andi	a3,t2,1

000019ac <.LBE273>:
        return crcu16((ee_u16)newval, crc);
    19ac:	83c1                	srli	a5,a5,0x10

000019ae <.LBB281>:
                data >>= 1;
    19ae:	0015d613          	srli	a2,a1,0x1

000019b2 <.LVL590>:
                if (x16 == 1)
    19b2:	00185e13          	srli	t3,a6,0x1
    19b6:	ca91                	beqz	a3,19ca <.L704>

000019b8 <.LVL591>:
                   crc |= 0x8000;
    19b8:	7769                	lui	a4,0xffffa
    19ba:	00170313          	addi	t1,a4,1 # ffffa001 <STACK+0xfffe1931>
    19be:	006e4533          	xor	a0,t3,t1

000019c2 <.LVL592>:
    19c2:	01051893          	slli	a7,a0,0x10
    19c6:	0108de13          	srli	t3,a7,0x10

000019ca <.L704>:
                x16 = (ee_u8)((data & 1) ^ ((ee_u8)crc & 1));
    19ca:	00ce4eb3          	xor	t4,t3,a2
                if (x16 == 1)
    19ce:	001eff13          	andi	t5,t4,1
                data >>= 1;
    19d2:	0025df93          	srli	t6,a1,0x2

000019d6 <.LVL594>:
                if (x16 == 1)
    19d6:	001e5713          	srli	a4,t3,0x1
    19da:	000f0b63          	beqz	t5,19f0 <.L705>

000019de <.LVL595>:
                   crc |= 0x8000;
    19de:	7869                	lui	a6,0xffffa
    19e0:	00180293          	addi	t0,a6,1 # ffffa001 <STACK+0xfffe1931>

000019e4 <.LVL596>:
    19e4:	005743b3          	xor	t2,a4,t0

000019e8 <.LVL597>:
    19e8:	01039693          	slli	a3,t2,0x10
    19ec:	0106d713          	srli	a4,a3,0x10

000019f0 <.L705>:
                x16 = (ee_u8)((data & 1) ^ ((ee_u8)crc & 1));
    19f0:	01f74633          	xor	a2,a4,t6
                if (x16 == 1)
    19f4:	00167313          	andi	t1,a2,1
                data >>= 1;
    19f8:	0035d893          	srli	a7,a1,0x3

000019fc <.LVL599>:
                if (x16 == 1)
    19fc:	00175f93          	srli	t6,a4,0x1
    1a00:	00030b63          	beqz	t1,1a16 <.L706>

00001a04 <.LVL600>:
                   crc |= 0x8000;
    1a04:	7e69                	lui	t3,0xffffa
    1a06:	001e0e93          	addi	t4,t3,1 # ffffa001 <STACK+0xfffe1931>
    1a0a:	01dfc533          	xor	a0,t6,t4

00001a0e <.LVL601>:
    1a0e:	01051f13          	slli	t5,a0,0x10
    1a12:	010f5f93          	srli	t6,t5,0x10

00001a16 <.L706>:
                x16 = (ee_u8)((data & 1) ^ ((ee_u8)crc & 1));
    1a16:	011fc833          	xor	a6,t6,a7
                if (x16 == 1)
    1a1a:	00187293          	andi	t0,a6,1
                data >>= 1;
    1a1e:	0045d393          	srli	t2,a1,0x4

00001a22 <.LVL603>:
                if (x16 == 1)
    1a22:	001fd893          	srli	a7,t6,0x1
    1a26:	00028b63          	beqz	t0,1a3c <.L707>

00001a2a <.LVL604>:
                   crc |= 0x8000;
    1a2a:	76e9                	lui	a3,0xffffa
    1a2c:	00168713          	addi	a4,a3,1 # ffffa001 <STACK+0xfffe1931>
    1a30:	00e8c633          	xor	a2,a7,a4

00001a34 <.LVL605>:
    1a34:	01061313          	slli	t1,a2,0x10
    1a38:	01035893          	srli	a7,t1,0x10

00001a3c <.L707>:
                x16 = (ee_u8)((data & 1) ^ ((ee_u8)crc & 1));
    1a3c:	0078ce33          	xor	t3,a7,t2
                if (x16 == 1)
    1a40:	001e7e93          	andi	t4,t3,1
                data >>= 1;
    1a44:	0055df13          	srli	t5,a1,0x5

00001a48 <.LVL607>:
                if (x16 == 1)
    1a48:	0018d393          	srli	t2,a7,0x1
    1a4c:	000e8b63          	beqz	t4,1a62 <.L708>

00001a50 <.LVL608>:
                   crc |= 0x8000;
    1a50:	7fe9                	lui	t6,0xffffa
    1a52:	001f8813          	addi	a6,t6,1 # ffffa001 <STACK+0xfffe1931>
    1a56:	0103c533          	xor	a0,t2,a6

00001a5a <.LVL609>:
    1a5a:	01051293          	slli	t0,a0,0x10
    1a5e:	0102d393          	srli	t2,t0,0x10

00001a62 <.L708>:
                x16 = (ee_u8)((data & 1) ^ ((ee_u8)crc & 1));
    1a62:	01e3c6b3          	xor	a3,t2,t5
                if (x16 == 1)
    1a66:	0016f713          	andi	a4,a3,1
                data >>= 1;
    1a6a:	0065d313          	srli	t1,a1,0x6

00001a6e <.LVL611>:
                if (x16 == 1)
    1a6e:	0013df13          	srli	t5,t2,0x1
    1a72:	cb11                	beqz	a4,1a86 <.L709>

00001a74 <.LVL612>:
                   crc |= 0x8000;
    1a74:	7669                	lui	a2,0xffffa
    1a76:	00160893          	addi	a7,a2,1 # ffffa001 <STACK+0xfffe1931>
    1a7a:	011f4e33          	xor	t3,t5,a7

00001a7e <.LVL613>:
    1a7e:	010e1e93          	slli	t4,t3,0x10
    1a82:	010edf13          	srli	t5,t4,0x10

00001a86 <.L709>:
                x16 = (ee_u8)((data & 1) ^ ((ee_u8)crc & 1));
    1a86:	006f4fb3          	xor	t6,t5,t1
                if (x16 == 1)
    1a8a:	001ff813          	andi	a6,t6,1
                data >>= 1;
    1a8e:	819d                	srli	a1,a1,0x7

00001a90 <.LVL615>:
                if (x16 == 1)
    1a90:	001f5713          	srli	a4,t5,0x1
    1a94:	00080b63          	beqz	a6,1aaa <.L710>

00001a98 <.LVL616>:
                   crc |= 0x8000;
    1a98:	72e9                	lui	t0,0xffffa
    1a9a:	00128393          	addi	t2,t0,1 # ffffa001 <STACK+0xfffe1931>
    1a9e:	00774533          	xor	a0,a4,t2

00001aa2 <.LVL617>:
    1aa2:	01051693          	slli	a3,a0,0x10
    1aa6:	0106d713          	srli	a4,a3,0x10

00001aaa <.L710>:
                if (x16 == 1)
    1aaa:	00177313          	andi	t1,a4,1
    1aae:	00175f13          	srli	t5,a4,0x1
    1ab2:	12b31763          	bne	t1,a1,1be0 <.L818>

00001ab6 <.L711>:
        crc=crcu8( (ee_u8) ((newval)>>8)        ,crc);
    1ab6:	0087df93          	srli	t6,a5,0x8

00001aba <.LBB282>:
                x16 = (ee_u8)((data & 1) ^ ((ee_u8)crc & 1));
    1aba:	01efc833          	xor	a6,t6,t5
                if (x16 == 1)
    1abe:	00187593          	andi	a1,a6,1

00001ac2 <.LBE282>:
        crc=crcu8( (ee_u8) ((newval)>>8)        ,crc);
    1ac2:	0087d293          	srli	t0,a5,0x8

00001ac6 <.LBB285>:
                data >>= 1;
    1ac6:	001f5313          	srli	t1,t5,0x1
    1aca:	83a5                	srli	a5,a5,0x9

00001acc <.LVL621>:
                if (x16 == 1)
    1acc:	c991                	beqz	a1,1ae0 <.L712>

00001ace <.LVL622>:
                   crc |= 0x8000;
    1ace:	73e9                	lui	t2,0xffffa
    1ad0:	00138693          	addi	a3,t2,1 # ffffa001 <STACK+0xfffe1931>
    1ad4:	00d34533          	xor	a0,t1,a3

00001ad8 <.LVL623>:
    1ad8:	01051713          	slli	a4,a0,0x10
    1adc:	01075313          	srli	t1,a4,0x10

00001ae0 <.L712>:
                x16 = (ee_u8)((data & 1) ^ ((ee_u8)crc & 1));
    1ae0:	00f34633          	xor	a2,t1,a5
                if (x16 == 1)
    1ae4:	00167893          	andi	a7,a2,1
                data >>= 1;
    1ae8:	0022de13          	srli	t3,t0,0x2

00001aec <.LVL625>:
                if (x16 == 1)
    1aec:	00135593          	srli	a1,t1,0x1
    1af0:	00088b63          	beqz	a7,1b06 <.L713>

00001af4 <.LVL626>:
                   crc |= 0x8000;
    1af4:	7ee9                	lui	t4,0xffffa
    1af6:	001e8f13          	addi	t5,t4,1 # ffffa001 <STACK+0xfffe1931>
    1afa:	01e5cfb3          	xor	t6,a1,t5

00001afe <.LVL627>:
    1afe:	010f9813          	slli	a6,t6,0x10
    1b02:	01085593          	srli	a1,a6,0x10

00001b06 <.L713>:
                x16 = (ee_u8)((data & 1) ^ ((ee_u8)crc & 1));
    1b06:	00be47b3          	xor	a5,t3,a1
                if (x16 == 1)
    1b0a:	0017f393          	andi	t2,a5,1
                data >>= 1;
    1b0e:	0032d693          	srli	a3,t0,0x3

00001b12 <.LVL629>:
                if (x16 == 1)
    1b12:	0015d893          	srli	a7,a1,0x1
    1b16:	00038b63          	beqz	t2,1b2c <.L714>

00001b1a <.LVL630>:
                   crc |= 0x8000;
    1b1a:	7769                	lui	a4,0xffffa
    1b1c:	00170313          	addi	t1,a4,1 # ffffa001 <STACK+0xfffe1931>
    1b20:	0068c533          	xor	a0,a7,t1

00001b24 <.LVL631>:
    1b24:	01051613          	slli	a2,a0,0x10
    1b28:	01065893          	srli	a7,a2,0x10

00001b2c <.L714>:
                x16 = (ee_u8)((data & 1) ^ ((ee_u8)crc & 1));
    1b2c:	0116ce33          	xor	t3,a3,a7
                if (x16 == 1)
    1b30:	001e7e93          	andi	t4,t3,1
                data >>= 1;
    1b34:	0042df13          	srli	t5,t0,0x4

00001b38 <.LVL633>:
                if (x16 == 1)
    1b38:	0018d393          	srli	t2,a7,0x1
    1b3c:	000e8b63          	beqz	t4,1b52 <.L715>

00001b40 <.LVL634>:
                   crc |= 0x8000;
    1b40:	7fe9                	lui	t6,0xffffa
    1b42:	001f8813          	addi	a6,t6,1 # ffffa001 <STACK+0xfffe1931>
    1b46:	0103c5b3          	xor	a1,t2,a6

00001b4a <.LVL635>:
    1b4a:	01059793          	slli	a5,a1,0x10
    1b4e:	0107d393          	srli	t2,a5,0x10

00001b52 <.L715>:
                x16 = (ee_u8)((data & 1) ^ ((ee_u8)crc & 1));
    1b52:	01e3c6b3          	xor	a3,t2,t5
                if (x16 == 1)
    1b56:	0016f713          	andi	a4,a3,1
                data >>= 1;
    1b5a:	0052d313          	srli	t1,t0,0x5

00001b5e <.LVL637>:
                if (x16 == 1)
    1b5e:	0013de93          	srli	t4,t2,0x1
    1b62:	cb11                	beqz	a4,1b76 <.L716>

00001b64 <.LVL638>:
                   crc |= 0x8000;
    1b64:	7669                	lui	a2,0xffffa
    1b66:	00160893          	addi	a7,a2,1 # ffffa001 <STACK+0xfffe1931>
    1b6a:	011ec533          	xor	a0,t4,a7

00001b6e <.LVL639>:
    1b6e:	01051e13          	slli	t3,a0,0x10
    1b72:	010e5e93          	srli	t4,t3,0x10

00001b76 <.L716>:
                x16 = (ee_u8)((data & 1) ^ ((ee_u8)crc & 1));
    1b76:	006ecf33          	xor	t5,t4,t1
                if (x16 == 1)
    1b7a:	001f7f93          	andi	t6,t5,1
                data >>= 1;
    1b7e:	0062d813          	srli	a6,t0,0x6

00001b82 <.LVL641>:
                if (x16 == 1)
    1b82:	001ed313          	srli	t1,t4,0x1
    1b86:	000f8b63          	beqz	t6,1b9c <.L717>

00001b8a <.LVL642>:
                   crc |= 0x8000;
    1b8a:	75e9                	lui	a1,0xffffa
    1b8c:	00158793          	addi	a5,a1,1 # ffffa001 <STACK+0xfffe1931>
    1b90:	00f343b3          	xor	t2,t1,a5

00001b94 <.LVL643>:
    1b94:	01039693          	slli	a3,t2,0x10
    1b98:	0106d313          	srli	t1,a3,0x10

00001b9c <.L717>:
                x16 = (ee_u8)((data & 1) ^ ((ee_u8)crc & 1));
    1b9c:	01034733          	xor	a4,t1,a6
                if (x16 == 1)
    1ba0:	00177613          	andi	a2,a4,1
                data >>= 1;
    1ba4:	0072d293          	srli	t0,t0,0x7

00001ba8 <.LVL645>:
                if (x16 == 1)
    1ba8:	00135f13          	srli	t5,t1,0x1
    1bac:	ca11                	beqz	a2,1bc0 <.L718>

00001bae <.LVL646>:
                   crc |= 0x8000;
    1bae:	78e9                	lui	a7,0xffffa
    1bb0:	00188e13          	addi	t3,a7,1 # ffffa001 <STACK+0xfffe1931>
    1bb4:	01cf4533          	xor	a0,t5,t3

00001bb8 <.LVL647>:
    1bb8:	01051e93          	slli	t4,a0,0x10
    1bbc:	010edf13          	srli	t5,t4,0x10

00001bc0 <.L718>:
                if (x16 == 1)
    1bc0:	001f7f93          	andi	t6,t5,1
    1bc4:	001f5513          	srli	a0,t5,0x1
    1bc8:	005f8b63          	beq	t6,t0,1bde <.L719>

00001bcc <.LVL649>:
                   crc |= 0x8000;
    1bcc:	7869                	lui	a6,0xffffa
    1bce:	00180593          	addi	a1,a6,1 # ffffa001 <STACK+0xfffe1931>
    1bd2:	00b547b3          	xor	a5,a0,a1
    1bd6:	01079393          	slli	t2,a5,0x10
    1bda:	0103d513          	srli	a0,t2,0x10

00001bde <.L719>:
}
    1bde:	8082                	ret

00001be0 <.L818>:
                   crc |= 0x8000;
    1be0:	7669                	lui	a2,0xffffa
    1be2:	00160893          	addi	a7,a2,1 # ffffa001 <STACK+0xfffe1931>
    1be6:	011f4e33          	xor	t3,t5,a7

00001bea <.LVL652>:
    1bea:	010e1e93          	slli	t4,t3,0x10
    1bee:	010edf13          	srli	t5,t4,0x10

00001bf2 <.LVL653>:
    1bf2:	b5d1                	j	1ab6 <.L711>

00001bf4 <.L817>:
    1bf4:	7e69                	lui	t3,0xffffa
    1bf6:	001e0e93          	addi	t4,t3,1 # ffffa001 <STACK+0xfffe1931>
    1bfa:	01d84f33          	xor	t5,a6,t4

00001bfe <.LVL655>:
    1bfe:	010f1f93          	slli	t6,t5,0x10
    1c02:	010fd813          	srli	a6,t6,0x10

00001c06 <.LVL656>:
    1c06:	bb59                	j	199c <.L703>

00001c08 <.L816>:
    1c08:	7f69                	lui	t5,0xffffa
    1c0a:	001f0f93          	addi	t6,t5,1 # ffffa001 <STACK+0xfffe1931>
    1c0e:	01f3c833          	xor	a6,t2,t6

00001c12 <.LVL658>:
    1c12:	01081293          	slli	t0,a6,0x10
    1c16:	0102d393          	srli	t2,t0,0x10

00001c1a <.LVL659>:
    1c1a:	b1ad                	j	1884 <.L695>

00001c1c <crc16>:
                x16 = (ee_u8)((data & 1) ^ ((ee_u8)crc & 1));
    1c1c:	00a5c6b3          	xor	a3,a1,a0

00001c20 <.LBE302>:
        crc=crcu8( (ee_u8) (newval)                             ,crc);
    1c20:	0ff57713          	andi	a4,a0,255

00001c24 <.LBE300>:
        return crcu16((ee_u16)newval, crc);
    1c24:	01051793          	slli	a5,a0,0x10

00001c28 <.LBB307>:
                if (x16 == 1)
    1c28:	0016f293          	andi	t0,a3,1

00001c2c <.LBE307>:
        return crcu16((ee_u16)newval, crc);
    1c2c:	0107d313          	srli	t1,a5,0x10

00001c30 <.LBB308>:
                data >>= 1;
    1c30:	00175613          	srli	a2,a4,0x1

00001c34 <.LVL662>:
                crc >>= 1;
    1c34:	0015d893          	srli	a7,a1,0x1
                if (x16 == 1)
    1c38:	00028b63          	beqz	t0,1c4e <.L820>

00001c3c <.LVL663>:
                   crc |= 0x8000;
    1c3c:	73e9                	lui	t2,0xffffa
    1c3e:	00138593          	addi	a1,t2,1 # ffffa001 <STACK+0xfffe1931>

00001c42 <.LVL664>:
    1c42:	00b8c533          	xor	a0,a7,a1

00001c46 <.LVL665>:
    1c46:	01051813          	slli	a6,a0,0x10
    1c4a:	01085893          	srli	a7,a6,0x10

00001c4e <.L820>:
                x16 = (ee_u8)((data & 1) ^ ((ee_u8)crc & 1));
    1c4e:	00c8ce33          	xor	t3,a7,a2
                if (x16 == 1)
    1c52:	001e7e93          	andi	t4,t3,1
                data >>= 1;
    1c56:	00275f13          	srli	t5,a4,0x2

00001c5a <.LVL667>:
                crc >>= 1;
    1c5a:	0018d393          	srli	t2,a7,0x1
                if (x16 == 1)
    1c5e:	000e8b63          	beqz	t4,1c74 <.L821>

00001c62 <.LVL668>:
                   crc |= 0x8000;
    1c62:	7fe9                	lui	t6,0xffffa
    1c64:	001f8693          	addi	a3,t6,1 # ffffa001 <STACK+0xfffe1931>
    1c68:	00d3c2b3          	xor	t0,t2,a3

00001c6c <.LVL669>:
    1c6c:	01029793          	slli	a5,t0,0x10
    1c70:	0107d393          	srli	t2,a5,0x10

00001c74 <.L821>:
                x16 = (ee_u8)((data & 1) ^ ((ee_u8)crc & 1));
    1c74:	01e3c633          	xor	a2,t2,t5
                if (x16 == 1)
    1c78:	00167593          	andi	a1,a2,1
                data >>= 1;
    1c7c:	00375813          	srli	a6,a4,0x3

00001c80 <.LVL671>:
                crc >>= 1;
    1c80:	0013df13          	srli	t5,t2,0x1
                if (x16 == 1)
    1c84:	c991                	beqz	a1,1c98 <.L822>

00001c86 <.LVL672>:
                   crc |= 0x8000;
    1c86:	78e9                	lui	a7,0xffffa
    1c88:	00188e13          	addi	t3,a7,1 # ffffa001 <STACK+0xfffe1931>
    1c8c:	01cf4533          	xor	a0,t5,t3

00001c90 <.LVL673>:
    1c90:	01051e93          	slli	t4,a0,0x10
    1c94:	010edf13          	srli	t5,t4,0x10

00001c98 <.L822>:
                x16 = (ee_u8)((data & 1) ^ ((ee_u8)crc & 1));
    1c98:	010f4fb3          	xor	t6,t5,a6
                if (x16 == 1)
    1c9c:	001ff293          	andi	t0,t6,1
                data >>= 1;
    1ca0:	00475693          	srli	a3,a4,0x4

00001ca4 <.LVL675>:
                crc >>= 1;
    1ca4:	001f5813          	srli	a6,t5,0x1
                if (x16 == 1)
    1ca8:	00028b63          	beqz	t0,1cbe <.L823>

00001cac <.LVL676>:
                   crc |= 0x8000;
    1cac:	77e9                	lui	a5,0xffffa
    1cae:	00178393          	addi	t2,a5,1 # ffffa001 <STACK+0xfffe1931>
    1cb2:	00784633          	xor	a2,a6,t2

00001cb6 <.LVL677>:
    1cb6:	01061593          	slli	a1,a2,0x10
    1cba:	0105d813          	srli	a6,a1,0x10

00001cbe <.L823>:
                x16 = (ee_u8)((data & 1) ^ ((ee_u8)crc & 1));
    1cbe:	00d848b3          	xor	a7,a6,a3
                if (x16 == 1)
    1cc2:	0018fe13          	andi	t3,a7,1
                data >>= 1;
    1cc6:	00575e93          	srli	t4,a4,0x5

00001cca <.LVL679>:
                crc >>= 1;
    1cca:	00185793          	srli	a5,a6,0x1
                if (x16 == 1)
    1cce:	000e0b63          	beqz	t3,1ce4 <.L824>

00001cd2 <.LVL680>:
                   crc |= 0x8000;
    1cd2:	7f69                	lui	t5,0xffffa
    1cd4:	001f0f93          	addi	t6,t5,1 # ffffa001 <STACK+0xfffe1931>
    1cd8:	01f7c533          	xor	a0,a5,t6

00001cdc <.LVL681>:
    1cdc:	01051293          	slli	t0,a0,0x10
    1ce0:	0102d793          	srli	a5,t0,0x10

00001ce4 <.L824>:
                x16 = (ee_u8)((data & 1) ^ ((ee_u8)crc & 1));
    1ce4:	01d7c6b3          	xor	a3,a5,t4
                if (x16 == 1)
    1ce8:	0016f393          	andi	t2,a3,1
                data >>= 1;
    1cec:	00675593          	srli	a1,a4,0x6

00001cf0 <.LVL683>:
                crc >>= 1;
    1cf0:	0017de93          	srli	t4,a5,0x1
                if (x16 == 1)
    1cf4:	00038b63          	beqz	t2,1d0a <.L825>

00001cf8 <.LVL684>:
                   crc |= 0x8000;
    1cf8:	7669                	lui	a2,0xffffa
    1cfa:	00160813          	addi	a6,a2,1 # ffffa001 <STACK+0xfffe1931>
    1cfe:	010ec8b3          	xor	a7,t4,a6

00001d02 <.LVL685>:
    1d02:	01089e13          	slli	t3,a7,0x10
    1d06:	010e5e93          	srli	t4,t3,0x10

00001d0a <.L825>:
                x16 = (ee_u8)((data & 1) ^ ((ee_u8)crc & 1));
    1d0a:	00becf33          	xor	t5,t4,a1
                if (x16 == 1)
    1d0e:	001f7f93          	andi	t6,t5,1
                data >>= 1;
    1d12:	831d                	srli	a4,a4,0x7

00001d14 <.LVL687>:
                crc >>= 1;
    1d14:	001ed393          	srli	t2,t4,0x1
                if (x16 == 1)
    1d18:	000f8b63          	beqz	t6,1d2e <.L826>

00001d1c <.LVL688>:
                   crc |= 0x8000;
    1d1c:	72e9                	lui	t0,0xffffa
    1d1e:	00128793          	addi	a5,t0,1 # ffffa001 <STACK+0xfffe1931>
    1d22:	00f3c533          	xor	a0,t2,a5

00001d26 <.LVL689>:
    1d26:	01051693          	slli	a3,a0,0x10
    1d2a:	0106d393          	srli	t2,a3,0x10

00001d2e <.L826>:
                if (x16 == 1)
    1d2e:	0013f593          	andi	a1,t2,1
                crc >>= 1;
    1d32:	0013de93          	srli	t4,t2,0x1
                if (x16 == 1)
    1d36:	12e59763          	bne	a1,a4,1e64 <.L884>

00001d3a <.L827>:
        crc=crcu8( (ee_u8) ((newval)>>8)        ,crc);
    1d3a:	00835f13          	srli	t5,t1,0x8

00001d3e <.LBB309>:
                x16 = (ee_u8)((data & 1) ^ ((ee_u8)crc & 1));
    1d3e:	01df4fb3          	xor	t6,t5,t4
                if (x16 == 1)
    1d42:	001ff293          	andi	t0,t6,1

00001d46 <.LBE309>:
        crc=crcu8( (ee_u8) ((newval)>>8)        ,crc);
    1d46:	00835713          	srli	a4,t1,0x8

00001d4a <.LBB312>:
                data >>= 1;
    1d4a:	001ed593          	srli	a1,t4,0x1
    1d4e:	00935313          	srli	t1,t1,0x9

00001d52 <.LVL693>:
                if (x16 == 1)
    1d52:	00028b63          	beqz	t0,1d68 <.L828>

00001d56 <.LVL694>:
                   crc |= 0x8000;
    1d56:	77e9                	lui	a5,0xffffa
    1d58:	00178693          	addi	a3,a5,1 # ffffa001 <STACK+0xfffe1931>
    1d5c:	00d5c533          	xor	a0,a1,a3

00001d60 <.LVL695>:
    1d60:	01051393          	slli	t2,a0,0x10
    1d64:	0103d593          	srli	a1,t2,0x10

00001d68 <.L828>:
                x16 = (ee_u8)((data & 1) ^ ((ee_u8)crc & 1));
    1d68:	00b34633          	xor	a2,t1,a1
                if (x16 == 1)
    1d6c:	00167813          	andi	a6,a2,1
                data >>= 1;
    1d70:	00275893          	srli	a7,a4,0x2

00001d74 <.LVL697>:
                if (x16 == 1)
    1d74:	0015d293          	srli	t0,a1,0x1
    1d78:	00080b63          	beqz	a6,1d8e <.L829>

00001d7c <.LVL698>:
                   crc |= 0x8000;
    1d7c:	7e69                	lui	t3,0xffffa
    1d7e:	001e0e93          	addi	t4,t3,1 # ffffa001 <STACK+0xfffe1931>
    1d82:	01d2cf33          	xor	t5,t0,t4

00001d86 <.LVL699>:
    1d86:	010f1f93          	slli	t6,t5,0x10
    1d8a:	010fd293          	srli	t0,t6,0x10

00001d8e <.L829>:
                x16 = (ee_u8)((data & 1) ^ ((ee_u8)crc & 1));
    1d8e:	0112c333          	xor	t1,t0,a7
                if (x16 == 1)
    1d92:	00137793          	andi	a5,t1,1
                data >>= 1;
    1d96:	00375693          	srli	a3,a4,0x3

00001d9a <.LVL701>:
                if (x16 == 1)
    1d9a:	0012d813          	srli	a6,t0,0x1
    1d9e:	cb91                	beqz	a5,1db2 <.L830>

00001da0 <.LVL702>:
                   crc |= 0x8000;
    1da0:	73e9                	lui	t2,0xffffa
    1da2:	00138593          	addi	a1,t2,1 # ffffa001 <STACK+0xfffe1931>
    1da6:	00b84533          	xor	a0,a6,a1

00001daa <.LVL703>:
    1daa:	01051613          	slli	a2,a0,0x10
    1dae:	01065813          	srli	a6,a2,0x10

00001db2 <.L830>:
                x16 = (ee_u8)((data & 1) ^ ((ee_u8)crc & 1));
    1db2:	00d848b3          	xor	a7,a6,a3
                if (x16 == 1)
    1db6:	0018fe13          	andi	t3,a7,1
                data >>= 1;
    1dba:	00475e93          	srli	t4,a4,0x4

00001dbe <.LVL705>:
                if (x16 == 1)
    1dbe:	00185393          	srli	t2,a6,0x1
    1dc2:	000e0b63          	beqz	t3,1dd8 <.L831>

00001dc6 <.LVL706>:
                   crc |= 0x8000;
    1dc6:	7f69                	lui	t5,0xffffa
    1dc8:	001f0f93          	addi	t6,t5,1 # ffffa001 <STACK+0xfffe1931>
    1dcc:	01f3c2b3          	xor	t0,t2,t6

00001dd0 <.LVL707>:
    1dd0:	01029313          	slli	t1,t0,0x10
    1dd4:	01035393          	srli	t2,t1,0x10

00001dd8 <.L831>:
                x16 = (ee_u8)((data & 1) ^ ((ee_u8)crc & 1));
    1dd8:	01d3c7b3          	xor	a5,t2,t4
                if (x16 == 1)
    1ddc:	0017f593          	andi	a1,a5,1
                data >>= 1;
    1de0:	00575693          	srli	a3,a4,0x5

00001de4 <.LVL709>:
                if (x16 == 1)
    1de4:	0013de13          	srli	t3,t2,0x1
    1de8:	c991                	beqz	a1,1dfc <.L832>

00001dea <.LVL710>:
                   crc |= 0x8000;
    1dea:	7669                	lui	a2,0xffffa
    1dec:	00160813          	addi	a6,a2,1 # ffffa001 <STACK+0xfffe1931>
    1df0:	010e4533          	xor	a0,t3,a6

00001df4 <.LVL711>:
    1df4:	01051893          	slli	a7,a0,0x10
    1df8:	0108de13          	srli	t3,a7,0x10

00001dfc <.L832>:
                x16 = (ee_u8)((data & 1) ^ ((ee_u8)crc & 1));
    1dfc:	00de4eb3          	xor	t4,t3,a3
                if (x16 == 1)
    1e00:	001eff13          	andi	t5,t4,1
                data >>= 1;
    1e04:	00675f93          	srli	t6,a4,0x6

00001e08 <.LVL713>:
                if (x16 == 1)
    1e08:	001e5593          	srli	a1,t3,0x1
    1e0c:	000f0b63          	beqz	t5,1e22 <.L833>

00001e10 <.LVL714>:
                   crc |= 0x8000;
    1e10:	72e9                	lui	t0,0xffffa
    1e12:	00128313          	addi	t1,t0,1 # ffffa001 <STACK+0xfffe1931>
    1e16:	0065c3b3          	xor	t2,a1,t1

00001e1a <.LVL715>:
    1e1a:	01039793          	slli	a5,t2,0x10
    1e1e:	0107d593          	srli	a1,a5,0x10

00001e22 <.L833>:
                x16 = (ee_u8)((data & 1) ^ ((ee_u8)crc & 1));
    1e22:	01f5c6b3          	xor	a3,a1,t6
                if (x16 == 1)
    1e26:	0016f613          	andi	a2,a3,1
                data >>= 1;
    1e2a:	831d                	srli	a4,a4,0x7

00001e2c <.LVL717>:
                if (x16 == 1)
    1e2c:	0015de93          	srli	t4,a1,0x1
    1e30:	ca11                	beqz	a2,1e44 <.L834>

00001e32 <.LVL718>:
                   crc |= 0x8000;
    1e32:	7869                	lui	a6,0xffffa
    1e34:	00180893          	addi	a7,a6,1 # ffffa001 <STACK+0xfffe1931>
    1e38:	011ec533          	xor	a0,t4,a7

00001e3c <.LVL719>:
    1e3c:	01051e13          	slli	t3,a0,0x10
    1e40:	010e5e93          	srli	t4,t3,0x10

00001e44 <.L834>:
                if (x16 == 1)
    1e44:	001eff13          	andi	t5,t4,1
    1e48:	001ed513          	srli	a0,t4,0x1
    1e4c:	00ef0b63          	beq	t5,a4,1e62 <.L835>

00001e50 <.LVL721>:
                   crc |= 0x8000;
    1e50:	7fe9                	lui	t6,0xffffa
    1e52:	001f8293          	addi	t0,t6,1 # ffffa001 <STACK+0xfffe1931>
    1e56:	00554333          	xor	t1,a0,t0
    1e5a:	01031393          	slli	t2,t1,0x10
    1e5e:	0103d513          	srli	a0,t2,0x10

00001e62 <.L835>:
}
    1e62:	8082                	ret

00001e64 <.L884>:
                   crc |= 0x8000;
    1e64:	7669                	lui	a2,0xffffa
    1e66:	00160813          	addi	a6,a2,1 # ffffa001 <STACK+0xfffe1931>
    1e6a:	010ec8b3          	xor	a7,t4,a6

00001e6e <.LVL724>:
    1e6e:	01089e13          	slli	t3,a7,0x10
    1e72:	010e5e93          	srli	t4,t3,0x10

00001e76 <.LVL725>:
    1e76:	b5d1                	j	1d3a <.L827>

00001e78 <check_data_types>:
        }
        if (retval>0) {
                ee_printf("ERROR: Please modify the datatypes in core_portme.h!\n");
        }
        return retval;
}
    1e78:	4501                	li	a0,0
    1e7a:	8082                	ret

00001e7c <start_time>:
        Implementation may be capturing a system timer (as implemented in the example code)
        or zeroing some system parameters - e.g. setting the cpu clocks cycles to 0.
*/
void start_time(void) {
uint32_t mcyclel;
        asm volatile ("csrr %0,mcycle"  : "=r" (mcyclel) );
    1e7c:	b0002773          	csrr	a4,mcycle
        start_time_val = mcyclel;
    1e80:	67c5                	lui	a5,0x11
    1e82:	e8e7ae23          	sw	a4,-356(a5) # 10e9c <start_time_val>
}
    1e86:	8082                	ret

00001e88 <stop_time>:
        Implementation may be capturing a system timer (as implemented in the example code)
        or other system parameters - e.g. reading the current value of cpu cycles counter.
*/
void stop_time(void) {
uint32_t mcyclel;
        asm volatile ("csrr %0,mcycle"  : "=r" (mcyclel) );
    1e88:	b0002773          	csrr	a4,mcycle
        stop_time_val = mcyclel;
    1e8c:	67c5                	lui	a5,0x11
    1e8e:	e8e7ac23          	sw	a4,-360(a5) # 10e98 <stop_time_val>
}
    1e92:	8082                	ret

00001e94 <get_time>:
        This methodology is taken to accomodate any hardware or simulated platform.
        The sample implementation returns millisecs by default,
        and the resolution is controlled by <TIMER_RES_DIVIDER>
*/
CORE_TICKS get_time(void) {
        CORE_TICKS elapsed=(CORE_TICKS)(MYTIMEDIFF(stop_time_val, start_time_val));
    1e94:	67c5                	lui	a5,0x11
    1e96:	62c5                	lui	t0,0x11
    1e98:	e987a503          	lw	a0,-360(a5) # 10e98 <stop_time_val>
    1e9c:	e9c2a303          	lw	t1,-356(t0) # 10e9c <start_time_val>
        return elapsed;
}
    1ea0:	40650533          	sub	a0,a0,t1

00001ea4 <.LVL730>:
    1ea4:	8082                	ret

00001ea6 <time_in_secs>:

        The <secs_ret> type is used to accomodate systems with no support for floating point.
        Default implementation implemented by the EE_TICKS_PER_SEC macro above.
*/
secs_ret time_in_secs(CORE_TICKS ticks) {
        secs_ret retval=((secs_ret)ticks) / (secs_ret)EE_TICKS_PER_SEC;
    1ea6:	3e800793          	li	a5,1000
        return retval;
}
    1eaa:	02f55533          	divu	a0,a0,a5

00001eae <.LVL732>:
    1eae:	8082                	ret

00001eb0 <portable_init>:
                ee_printf("ERROR! Please define ee_ptr_int to a type that holds a pointer!\n");
        }
        if (sizeof(ee_u32) != 4) {
                ee_printf("ERROR! Please define ee_u32 to a 32b unsigned type!\n");
        }
        p->portable_id=1;
    1eb0:	4785                	li	a5,1
    1eb2:	00f50023          	sb	a5,0(a0)
}
    1eb6:	8082                	ret

00001eb8 <portable_fini>:
/* Function : portable_fini
        Target specific final code
*/
void portable_fini(core_portable *p)
{
        p->portable_id=0;
    1eb8:	00050023          	sb	zero,0(a0)
}
    1ebc:	8082                	ret

00001ebe <whisperPrintfImpl>:
int
whisperPrintfImpl(const char* format, va_list ap)
{
  int count = 0;  // Printed character count

  for (const char* fp = format; *fp; fp++)
    1ebe:	00054783          	lbu	a5,0(a0)
    1ec2:	0e0789e3          	beqz	a5,27b4 <.L927>

00001ec6 <.LBE362>:
{
    1ec6:	7139                	addi	sp,sp,-64
    1ec8:	6fc1                	lui	t6,0x10
    1eca:	de22                	sw	s0,60(sp)
    1ecc:	862a                	mv	a2,a0
    1ece:	dc26                	sw	s1,56(sp)
    1ed0:	da4a                	sw	s2,52(sp)
    1ed2:	d84e                	sw	s3,48(sp)
    1ed4:	d652                	sw	s4,44(sp)
    1ed6:	d456                	sw	s5,40(sp)
  int count = 0;  // Printed character count
    1ed8:	4501                	li	a0,0

00001eda <.LBB582>:
    {
      if (*fp != '%')
    1eda:	02500313          	li	t1,37
        {
          whisperPutc('%');
          continue;
        }

      if (*fp == '-')
    1ede:	02d00293          	li	t0,45
        {
          fp++;  // Pad right not yet implemented.
        }

      while (*fp == '0')
    1ee2:	03000893          	li	a7,48
        {
          fp++;  // Pad zero not yet implented.
        }

      if (*fp == '*')
    1ee6:	02a00413          	li	s0,42
    1eea:	02000393          	li	t2,32
    1eee:	024f8f93          	addi	t6,t6,36 # 10024 <.L904>

00001ef2 <.LBB363>:
  *(volatile char*)(STDOUT) = c;
    1ef2:	d0580837          	lui	a6,0xd0580
    1ef6:	00b10f13          	addi	t5,sp,11

00001efa <.LBB384>:
          char c = digit < 10 ? '0' + digit : 'a' + digit;
    1efa:	4ea5                	li	t4,9

00001efc <.LBB424>:
      char c = '0' + (value % 10);
    1efc:	4e29                	li	t3,10
    1efe:	a811                	j	1f12 <.L926>

00001f00 <.L1154>:
          continue;
    1f00:	8736                	mv	a4,a3

00001f02 <.LBB475>:
  *(volatile char*)(STDOUT) = c;
    1f02:	00f80023          	sb	a5,0(a6) # d0580000 <STACK+0xd0567930>

00001f06 <.LBE475>:
          continue;
    1f06:	86b2                	mv	a3,a2
          ++count;
    1f08:	0505                	addi	a0,a0,1
          continue;
    1f0a:	863a                	mv	a2,a4

00001f0c <.L895>:
  for (const char* fp = format; *fp; fp++)
    1f0c:	0016c783          	lbu	a5,1(a3)
    1f10:	cfdd                	beqz	a5,1fce <.L892>

00001f12 <.L926>:
      ++fp;  // Skip %
    1f12:	00160693          	addi	a3,a2,1
      if (*fp != '%')
    1f16:	fe6795e3          	bne	a5,t1,1f00 <.L1154>

00001f1a <.LVL742>:
      if (*fp == 0)
    1f1a:	00164783          	lbu	a5,1(a2)
    1f1e:	cbc5                	beqz	a5,1fce <.L892>
      if (*fp == '%')
    1f20:	0a678163          	beq	a5,t1,1fc2 <.L1155>
      if (*fp == '-')
    1f24:	08578a63          	beq	a5,t0,1fb8 <.L1156>

00001f28 <.L897>:
      while (*fp == '0')
    1f28:	07179163          	bne	a5,a7,1f8a <.L898>

00001f2c <.L899>:
    1f2c:	0016c783          	lbu	a5,1(a3)
          fp++;  // Pad zero not yet implented.
    1f30:	0685                	addi	a3,a3,1

00001f32 <.LVL744>:
    1f32:	8736                	mv	a4,a3
      while (*fp == '0')
    1f34:	05179b63          	bne	a5,a7,1f8a <.L898>

00001f38 <.LVL745>:
    1f38:	0016c783          	lbu	a5,1(a3)
          fp++;  // Pad zero not yet implented.
    1f3c:	0685                	addi	a3,a3,1

00001f3e <.LVL746>:
      while (*fp == '0')
    1f3e:	05179663          	bne	a5,a7,1f8a <.L898>

00001f42 <.LVL747>:
    1f42:	00274783          	lbu	a5,2(a4)
          fp++;  // Pad zero not yet implented.
    1f46:	00270693          	addi	a3,a4,2

00001f4a <.LVL748>:
      while (*fp == '0')
    1f4a:	05179063          	bne	a5,a7,1f8a <.L898>

00001f4e <.LVL749>:
    1f4e:	00374783          	lbu	a5,3(a4)
          fp++;  // Pad zero not yet implented.
    1f52:	00370693          	addi	a3,a4,3

00001f56 <.LVL750>:
      while (*fp == '0')
    1f56:	03179a63          	bne	a5,a7,1f8a <.L898>

00001f5a <.LVL751>:
    1f5a:	00474783          	lbu	a5,4(a4)
          fp++;  // Pad zero not yet implented.
    1f5e:	00470693          	addi	a3,a4,4

00001f62 <.LVL752>:
      while (*fp == '0')
    1f62:	03179463          	bne	a5,a7,1f8a <.L898>

00001f66 <.LVL753>:
    1f66:	00574783          	lbu	a5,5(a4)
          fp++;  // Pad zero not yet implented.
    1f6a:	00570693          	addi	a3,a4,5

00001f6e <.LVL754>:
      while (*fp == '0')
    1f6e:	01179e63          	bne	a5,a7,1f8a <.L898>

00001f72 <.LVL755>:
    1f72:	00674783          	lbu	a5,6(a4)
          fp++;  // Pad zero not yet implented.
    1f76:	00670693          	addi	a3,a4,6

00001f7a <.LVL756>:
      while (*fp == '0')
    1f7a:	01179863          	bne	a5,a7,1f8a <.L898>

00001f7e <.LVL757>:
    1f7e:	00774783          	lbu	a5,7(a4)
          fp++;  // Pad zero not yet implented.
    1f82:	00770693          	addi	a3,a4,7

00001f86 <.LVL758>:
      while (*fp == '0')
    1f86:	fb1783e3          	beq	a5,a7,1f2c <.L899>

00001f8a <.L898>:
        {
          int width = va_arg(ap, int);
          fp++;  // Width not yet implemented.
    1f8a:	00168713          	addi	a4,a3,1

00001f8e <.LBE476>:
      if (*fp == '*')
    1f8e:	04879863          	bne	a5,s0,1fde <.L1157>

00001f92 <.LBB477>:
        {
          while (*fp >= '0' && *fp <= '9')
            ++fp;   // Width not yet implemented.
        }

      switch (*fp)
    1f92:	0016c783          	lbu	a5,1(a3)
  for (const char* fp = format; *fp; fp++)
    1f96:	00268613          	addi	a2,a3,2

00001f9a <.LBB478>:
          int width = va_arg(ap, int);
    1f9a:	0591                	addi	a1,a1,4

00001f9c <.LVL760>:
          fp++;  // Width not yet implemented.
    1f9c:	86ba                	mv	a3,a4

00001f9e <.L902>:
      switch (*fp)
    1f9e:	fa878793          	addi	a5,a5,-88
    1fa2:	0ff7f993          	andi	s3,a5,255
    1fa6:	f733e3e3          	bltu	t2,s3,1f0c <.L895>
    1faa:	00299a13          	slli	s4,s3,0x2
    1fae:	01fa0ab3          	add	s5,s4,t6
    1fb2:	000aa483          	lw	s1,0(s5)
    1fb6:	8482                	jr	s1

00001fb8 <.L1156>:
      while (*fp == '0')
    1fb8:	00264783          	lbu	a5,2(a2)
          fp++;  // Pad right not yet implemented.
    1fbc:	00260693          	addi	a3,a2,2
    1fc0:	b7a5                	j	1f28 <.L897>

00001fc2 <.L1155>:
  *(volatile char*)(STDOUT) = c;
    1fc2:	00680023          	sb	t1,0(a6)

00001fc6 <.LBE479>:
  for (const char* fp = format; *fp; fp++)
    1fc6:	0016c783          	lbu	a5,1(a3)
    1fca:	0609                	addi	a2,a2,2

00001fcc <.LVL766>:
    1fcc:	f3b9                	bnez	a5,1f12 <.L926>

00001fce <.L892>:
          break;
        }
    }

  return count;
}
    1fce:	5472                	lw	s0,60(sp)
    1fd0:	54e2                	lw	s1,56(sp)
    1fd2:	5952                	lw	s2,52(sp)
    1fd4:	59c2                	lw	s3,48(sp)
    1fd6:	5a32                	lw	s4,44(sp)
    1fd8:	5aa2                	lw	s5,40(sp)
    1fda:	6121                	addi	sp,sp,64
    1fdc:	8082                	ret

00001fde <.L1157>:
          while (*fp >= '0' && *fp <= '9')
    1fde:	fd078613          	addi	a2,a5,-48
    1fe2:	0ff67493          	andi	s1,a2,255
    1fe6:	7c9ee463          	bltu	t4,s1,27ae <.L1158>
    1fea:	00074783          	lbu	a5,0(a4)
    1fee:	8636                	mv	a2,a3

00001ff0 <.LVL768>:
            ++fp;   // Width not yet implemented.
    1ff0:	86ba                	mv	a3,a4

00001ff2 <.LVL769>:
          while (*fp >= '0' && *fp <= '9')
    1ff2:	fd078913          	addi	s2,a5,-48
    1ff6:	0ff97993          	andi	s3,s2,255
    1ffa:	0b3eea63          	bltu	t4,s3,20ae <.L1136>

00001ffe <.L1159>:
    1ffe:	00174783          	lbu	a5,1(a4)
    2002:	863a                	mv	a2,a4

00002004 <.LVL771>:
            ++fp;   // Width not yet implemented.
    2004:	00170693          	addi	a3,a4,1

00002008 <.LVL772>:
          while (*fp >= '0' && *fp <= '9')
    2008:	fd078a13          	addi	s4,a5,-48
    200c:	0ffa7a93          	andi	s5,s4,255
    2010:	095eef63          	bltu	t4,s5,20ae <.L1136>

00002014 <.LVL773>:
    2014:	00274783          	lbu	a5,2(a4)
    2018:	8636                	mv	a2,a3

0000201a <.LVL774>:
            ++fp;   // Width not yet implemented.
    201a:	00270693          	addi	a3,a4,2

0000201e <.LVL775>:
          while (*fp >= '0' && *fp <= '9')
    201e:	fd078493          	addi	s1,a5,-48
    2022:	0ff4f913          	andi	s2,s1,255
    2026:	092ee463          	bltu	t4,s2,20ae <.L1136>

0000202a <.LVL776>:
    202a:	00374783          	lbu	a5,3(a4)
    202e:	8636                	mv	a2,a3

00002030 <.LVL777>:
            ++fp;   // Width not yet implemented.
    2030:	00370693          	addi	a3,a4,3

00002034 <.LVL778>:
          while (*fp >= '0' && *fp <= '9')
    2034:	fd078993          	addi	s3,a5,-48
    2038:	0ff9fa13          	andi	s4,s3,255
    203c:	074ee963          	bltu	t4,s4,20ae <.L1136>

00002040 <.LVL779>:
    2040:	00474783          	lbu	a5,4(a4)
    2044:	8636                	mv	a2,a3

00002046 <.LVL780>:
            ++fp;   // Width not yet implemented.
    2046:	00470693          	addi	a3,a4,4

0000204a <.LVL781>:
          while (*fp >= '0' && *fp <= '9')
    204a:	fd078a93          	addi	s5,a5,-48
    204e:	0ffaf493          	andi	s1,s5,255
    2052:	049eee63          	bltu	t4,s1,20ae <.L1136>

00002056 <.LVL782>:
    2056:	00574783          	lbu	a5,5(a4)
    205a:	8636                	mv	a2,a3

0000205c <.LVL783>:
            ++fp;   // Width not yet implemented.
    205c:	00570693          	addi	a3,a4,5

00002060 <.LVL784>:
          while (*fp >= '0' && *fp <= '9')
    2060:	fd078913          	addi	s2,a5,-48
    2064:	0ff97993          	andi	s3,s2,255
    2068:	053ee363          	bltu	t4,s3,20ae <.L1136>

0000206c <.LVL785>:
    206c:	00674783          	lbu	a5,6(a4)
    2070:	8636                	mv	a2,a3

00002072 <.LVL786>:
            ++fp;   // Width not yet implemented.
    2072:	00670693          	addi	a3,a4,6

00002076 <.LVL787>:
          while (*fp >= '0' && *fp <= '9')
    2076:	fd078a13          	addi	s4,a5,-48
    207a:	0ffa7a93          	andi	s5,s4,255
    207e:	035ee863          	bltu	t4,s5,20ae <.L1136>

00002082 <.LVL788>:
    2082:	00774783          	lbu	a5,7(a4)
    2086:	8636                	mv	a2,a3

00002088 <.LVL789>:
            ++fp;   // Width not yet implemented.
    2088:	00770693          	addi	a3,a4,7

0000208c <.LVL790>:
          while (*fp >= '0' && *fp <= '9')
    208c:	fd078493          	addi	s1,a5,-48
    2090:	0ff4f913          	andi	s2,s1,255
    2094:	012eed63          	bltu	t4,s2,20ae <.L1136>
    2098:	00874783          	lbu	a5,8(a4)
    209c:	0721                	addi	a4,a4,8

0000209e <.LVL791>:
            ++fp;   // Width not yet implemented.
    209e:	8636                	mv	a2,a3

000020a0 <.LVL792>:
          while (*fp >= '0' && *fp <= '9')
    20a0:	fd078913          	addi	s2,a5,-48
    20a4:	0ff97993          	andi	s3,s2,255
            ++fp;   // Width not yet implemented.
    20a8:	86ba                	mv	a3,a4

000020aa <.LVL793>:
          while (*fp >= '0' && *fp <= '9')
    20aa:	f53efae3          	bgeu	t4,s3,1ffe <.L1159>

000020ae <.L1136>:
  for (const char* fp = format; *fp; fp++)
    20ae:	0609                	addi	a2,a2,2
    20b0:	b5fd                	j	1f9e <.L902>

000020b2 <.L903>:
  unsigned uu = value;
    20b2:	419c                	lw	a5,0(a1)
  int charCount = 0;
    20b4:	4981                	li	s3,0

000020b6 <.LBE481>:
          count += whisperPrintInt(va_arg(ap, int), 16);
    20b6:	0591                	addi	a1,a1,4

000020b8 <.LBB482>:
  if (base == 8)
    20b8:	a011                	j	20bc <.L920>

000020ba <.L930>:
          buffer[charCount++] = c;
    20ba:	89ba                	mv	s3,a4

000020bc <.L920>:
          char c = digit < 10 ? '0' + digit : 'a' + digit;
    20bc:	00f7f913          	andi	s2,a5,15
    20c0:	06190493          	addi	s1,s2,97
    20c4:	012ec463          	blt	t4,s2,20cc <.L919>
    20c8:	03090493          	addi	s1,s2,48

000020cc <.L919>:
          buffer[charCount++] = c;
    20cc:	00198713          	addi	a4,s3,1

000020d0 <.LVL798>:
    20d0:	00c10a93          	addi	s5,sp,12
    20d4:	00ea8933          	add	s2,s5,a4
    20d8:	fe990fa3          	sb	s1,-1(s2)
          uu >>= 4;
    20dc:	8391                	srli	a5,a5,0x4

000020de <.LBE388>:
      while (uu);
    20de:	fff1                	bnez	a5,20ba <.L930>
  char* p = buffer + charCount - 1;
    20e0:	00c10a13          	addi	s4,sp,12
    20e4:	013a07b3          	add	a5,s4,s3

000020e8 <.LBB389>:
  for (unsigned i = 0; i < charCount; ++i)
    20e8:	41e789b3          	sub	s3,a5,t5

000020ec <.LVL801>:
    20ec:	0079f493          	andi	s1,s3,7

000020f0 <.LVL802>:
    20f0:	c8a5                	beqz	s1,2160 <.L921>
    20f2:	4a85                	li	s5,1
    20f4:	05548f63          	beq	s1,s5,2152 <.L1087>
    20f8:	4909                	li	s2,2

000020fa <.LVL803>:
    20fa:	05248763          	beq	s1,s2,2148 <.L1088>
    20fe:	4a0d                	li	s4,3

00002100 <.LVL804>:
    2100:	03448f63          	beq	s1,s4,213e <.L1089>
    2104:	4991                	li	s3,4
    2106:	03348763          	beq	s1,s3,2134 <.L1090>
    210a:	4a95                	li	s5,5
    210c:	01548f63          	beq	s1,s5,212a <.L1091>
    2110:	4919                	li	s2,6
    2112:	01248763          	beq	s1,s2,2120 <.L1092>

00002116 <.LVL805>:
    whisperPutc(*p--);
    2116:	0007c483          	lbu	s1,0(a5)
    211a:	17fd                	addi	a5,a5,-1

0000211c <.LBB390>:
  *(volatile char*)(STDOUT) = c;
    211c:	00980023          	sb	s1,0(a6)

00002120 <.L1092>:
    whisperPutc(*p--);
    2120:	0007ca03          	lbu	s4,0(a5)
    2124:	17fd                	addi	a5,a5,-1

00002126 <.LBB407>:
  *(volatile char*)(STDOUT) = c;
    2126:	01480023          	sb	s4,0(a6)

0000212a <.L1091>:
    whisperPutc(*p--);
    212a:	0007c983          	lbu	s3,0(a5)
    212e:	17fd                	addi	a5,a5,-1

00002130 <.LBB408>:
  *(volatile char*)(STDOUT) = c;
    2130:	01380023          	sb	s3,0(a6)

00002134 <.L1090>:
    whisperPutc(*p--);
    2134:	0007ca83          	lbu	s5,0(a5)
    2138:	17fd                	addi	a5,a5,-1

0000213a <.LBB409>:
  *(volatile char*)(STDOUT) = c;
    213a:	01580023          	sb	s5,0(a6)

0000213e <.L1089>:
    whisperPutc(*p--);
    213e:	0007c903          	lbu	s2,0(a5)
    2142:	17fd                	addi	a5,a5,-1

00002144 <.LBB410>:
  *(volatile char*)(STDOUT) = c;
    2144:	01280023          	sb	s2,0(a6)

00002148 <.L1088>:
    whisperPutc(*p--);
    2148:	0007c483          	lbu	s1,0(a5)
    214c:	17fd                	addi	a5,a5,-1

0000214e <.LBB411>:
  *(volatile char*)(STDOUT) = c;
    214e:	00980023          	sb	s1,0(a6)

00002152 <.L1087>:
    whisperPutc(*p--);
    2152:	0007ca03          	lbu	s4,0(a5)
    2156:	17fd                	addi	a5,a5,-1

00002158 <.LBB412>:
  *(volatile char*)(STDOUT) = c;
    2158:	01480023          	sb	s4,0(a6)

0000215c <.LBE412>:
  for (unsigned i = 0; i < charCount; ++i)
    215c:	05e78563          	beq	a5,t5,21a6 <.L1141>

00002160 <.L921>:
    whisperPutc(*p--);
    2160:	0007c983          	lbu	s3,0(a5)

00002164 <.LBB413>:
    2164:	17e1                	addi	a5,a5,-8

00002166 <.LBB414>:
  *(volatile char*)(STDOUT) = c;
    2166:	01380023          	sb	s3,0(a6)

0000216a <.LBE414>:
    whisperPutc(*p--);
    216a:	0077ca83          	lbu	s5,7(a5)

0000216e <.LBB415>:
  *(volatile char*)(STDOUT) = c;
    216e:	01580023          	sb	s5,0(a6)

00002172 <.LBE415>:
    whisperPutc(*p--);
    2172:	0067c903          	lbu	s2,6(a5)

00002176 <.LBB416>:
  *(volatile char*)(STDOUT) = c;
    2176:	01280023          	sb	s2,0(a6)

0000217a <.LBE416>:
    whisperPutc(*p--);
    217a:	0057c483          	lbu	s1,5(a5)

0000217e <.LBB417>:
  *(volatile char*)(STDOUT) = c;
    217e:	00980023          	sb	s1,0(a6)

00002182 <.LBE417>:
    whisperPutc(*p--);
    2182:	0047ca03          	lbu	s4,4(a5)

00002186 <.LBB418>:
  *(volatile char*)(STDOUT) = c;
    2186:	01480023          	sb	s4,0(a6)

0000218a <.LBE418>:
    whisperPutc(*p--);
    218a:	0037c983          	lbu	s3,3(a5)

0000218e <.LBB419>:
  *(volatile char*)(STDOUT) = c;
    218e:	01380023          	sb	s3,0(a6)

00002192 <.LBE419>:
    whisperPutc(*p--);
    2192:	0027ca83          	lbu	s5,2(a5)

00002196 <.LBB420>:
  *(volatile char*)(STDOUT) = c;
    2196:	01580023          	sb	s5,0(a6)

0000219a <.LBE420>:
    whisperPutc(*p--);
    219a:	0017c903          	lbu	s2,1(a5)

0000219e <.LBB421>:
  *(volatile char*)(STDOUT) = c;
    219e:	01280023          	sb	s2,0(a6)

000021a2 <.LBE421>:
  for (unsigned i = 0; i < charCount; ++i)
    21a2:	fbe79fe3          	bne	a5,t5,2160 <.L921>

000021a6 <.L1141>:
          count += whisperPrintInt(va_arg(ap, int), 16);
    21a6:	953a                	add	a0,a0,a4
          break;
    21a8:	b395                	j	1f0c <.L895>

000021aa <.L905>:
          count += whisperPrintDecimal((unsigned) va_arg(ap, unsigned));
    21aa:	0005a983          	lw	s3,0(a1)
    21ae:	0591                	addi	a1,a1,4

000021b0 <.LBB483>:
  if (neg)
    21b0:	87ce                	mv	a5,s3
    21b2:	5e09c963          	bltz	s3,27a4 <.L1160>

000021b6 <.L914>:
    21b6:	4701                	li	a4,0

000021b8 <.L915>:
      char c = '0' + (value % 10);
    21b8:	03c7ea33          	rem	s4,a5,t3
      buffer[charCount++] = c;
    21bc:	00c10913          	addi	s2,sp,12
    21c0:	84ba                	mv	s1,a4
    21c2:	0705                	addi	a4,a4,1

000021c4 <.LVL836>:
    21c4:	00e90ab3          	add	s5,s2,a4
    21c8:	893a                	mv	s2,a4
      value = value / 10;
    21ca:	03c7c7b3          	div	a5,a5,t3

000021ce <.LVL837>:
      char c = '0' + (value % 10);
    21ce:	030a0a13          	addi	s4,s4,48

000021d2 <.LVL838>:
      buffer[charCount++] = c;
    21d2:	ff4a8fa3          	sb	s4,-1(s5)

000021d6 <.LBE427>:
  while (value);
    21d6:	cbf1                	beqz	a5,22aa <.L1147>

000021d8 <.LBB428>:
      char c = '0' + (value % 10);
    21d8:	03c7ea33          	rem	s4,a5,t3

000021dc <.LVL839>:
    21dc:	84ba                	mv	s1,a4
      buffer[charCount++] = c;
    21de:	00c10a93          	addi	s5,sp,12

000021e2 <.LVL840>:
    21e2:	0705                	addi	a4,a4,1

000021e4 <.LVL841>:
    21e4:	9aba                	add	s5,s5,a4

000021e6 <.LVL842>:
      value = value / 10;
    21e6:	03c7c7b3          	div	a5,a5,t3

000021ea <.LVL843>:
      char c = '0' + (value % 10);
    21ea:	030a0a13          	addi	s4,s4,48
      buffer[charCount++] = c;
    21ee:	ff4a8fa3          	sb	s4,-1(s5)

000021f2 <.LBE428>:
  while (value);
    21f2:	cfc5                	beqz	a5,22aa <.L1147>

000021f4 <.LBB429>:
      char c = '0' + (value % 10);
    21f4:	03c7ea33          	rem	s4,a5,t3
    21f8:	84ba                	mv	s1,a4

000021fa <.LVL844>:
      buffer[charCount++] = c;
    21fa:	00c10a93          	addi	s5,sp,12

000021fe <.LVL845>:
    21fe:	00290713          	addi	a4,s2,2

00002202 <.LVL846>:
    2202:	9aba                	add	s5,s5,a4

00002204 <.LVL847>:
      value = value / 10;
    2204:	03c7c7b3          	div	a5,a5,t3

00002208 <.LVL848>:
      char c = '0' + (value % 10);
    2208:	030a0a13          	addi	s4,s4,48
      buffer[charCount++] = c;
    220c:	ff4a8fa3          	sb	s4,-1(s5)

00002210 <.LBE429>:
  while (value);
    2210:	cfc9                	beqz	a5,22aa <.L1147>

00002212 <.LBB430>:
      char c = '0' + (value % 10);
    2212:	03c7ea33          	rem	s4,a5,t3
    2216:	84ba                	mv	s1,a4
      buffer[charCount++] = c;
    2218:	00c10a93          	addi	s5,sp,12

0000221c <.LVL849>:
    221c:	00390713          	addi	a4,s2,3

00002220 <.LVL850>:
    2220:	9aba                	add	s5,s5,a4

00002222 <.LVL851>:
      value = value / 10;
    2222:	03c7c7b3          	div	a5,a5,t3

00002226 <.LVL852>:
      char c = '0' + (value % 10);
    2226:	030a0a13          	addi	s4,s4,48
      buffer[charCount++] = c;
    222a:	ff4a8fa3          	sb	s4,-1(s5)

0000222e <.LBE430>:
  while (value);
    222e:	cfb5                	beqz	a5,22aa <.L1147>

00002230 <.LBB431>:
      char c = '0' + (value % 10);
    2230:	03c7ea33          	rem	s4,a5,t3
    2234:	84ba                	mv	s1,a4
      buffer[charCount++] = c;
    2236:	00c10a93          	addi	s5,sp,12

0000223a <.LVL853>:
    223a:	00490713          	addi	a4,s2,4

0000223e <.LVL854>:
    223e:	9aba                	add	s5,s5,a4

00002240 <.LVL855>:
      value = value / 10;
    2240:	03c7c7b3          	div	a5,a5,t3

00002244 <.LVL856>:
      char c = '0' + (value % 10);
    2244:	030a0a13          	addi	s4,s4,48
      buffer[charCount++] = c;
    2248:	ff4a8fa3          	sb	s4,-1(s5)

0000224c <.LBE431>:
  while (value);
    224c:	cfb9                	beqz	a5,22aa <.L1147>

0000224e <.LBB432>:
      char c = '0' + (value % 10);
    224e:	03c7ea33          	rem	s4,a5,t3
    2252:	84ba                	mv	s1,a4
      buffer[charCount++] = c;
    2254:	00c10a93          	addi	s5,sp,12

00002258 <.LVL857>:
    2258:	00590713          	addi	a4,s2,5

0000225c <.LVL858>:
    225c:	9aba                	add	s5,s5,a4

0000225e <.LVL859>:
      value = value / 10;
    225e:	03c7c7b3          	div	a5,a5,t3

00002262 <.LVL860>:
      char c = '0' + (value % 10);
    2262:	030a0a13          	addi	s4,s4,48
      buffer[charCount++] = c;
    2266:	ff4a8fa3          	sb	s4,-1(s5)

0000226a <.LBE432>:
  while (value);
    226a:	c3a1                	beqz	a5,22aa <.L1147>

0000226c <.LBB433>:
      char c = '0' + (value % 10);
    226c:	03c7ea33          	rem	s4,a5,t3
    2270:	84ba                	mv	s1,a4
      buffer[charCount++] = c;
    2272:	00c10a93          	addi	s5,sp,12

00002276 <.LVL861>:
    2276:	00690713          	addi	a4,s2,6

0000227a <.LVL862>:
    227a:	9aba                	add	s5,s5,a4

0000227c <.LVL863>:
      value = value / 10;
    227c:	03c7c7b3          	div	a5,a5,t3

00002280 <.LVL864>:
      char c = '0' + (value % 10);
    2280:	030a0a13          	addi	s4,s4,48
      buffer[charCount++] = c;
    2284:	ff4a8fa3          	sb	s4,-1(s5)

00002288 <.LBE433>:
  while (value);
    2288:	c38d                	beqz	a5,22aa <.L1147>

0000228a <.LBB434>:
      char c = '0' + (value % 10);
    228a:	03c7ea33          	rem	s4,a5,t3
    228e:	84ba                	mv	s1,a4
      buffer[charCount++] = c;
    2290:	00790713          	addi	a4,s2,7

00002294 <.LVL866>:
    2294:	00c10913          	addi	s2,sp,12

00002298 <.LVL867>:
    2298:	00e90ab3          	add	s5,s2,a4
      value = value / 10;
    229c:	03c7c7b3          	div	a5,a5,t3

000022a0 <.LVL868>:
      char c = '0' + (value % 10);
    22a0:	030a0a13          	addi	s4,s4,48
      buffer[charCount++] = c;
    22a4:	ff4a8fa3          	sb	s4,-1(s5)

000022a8 <.LBE434>:
  while (value);
    22a8:	fb81                	bnez	a5,21b8 <.L915>

000022aa <.L1147>:
  char* p = buffer + charCount - 1;
    22aa:	00c10913          	addi	s2,sp,12
    22ae:	009907b3          	add	a5,s2,s1

000022b2 <.LBB435>:
  for (unsigned i = 0; i < charCount; ++i)
    22b2:	41e78ab3          	sub	s5,a5,t5
    22b6:	007af913          	andi	s2,s5,7
    22ba:	06090963          	beqz	s2,232c <.L916>
    22be:	4a05                	li	s4,1
    22c0:	05490f63          	beq	s2,s4,231e <.L1081>
    22c4:	4a89                	li	s5,2
    22c6:	05590763          	beq	s2,s5,2314 <.L1082>
    22ca:	4a0d                	li	s4,3
    22cc:	03490f63          	beq	s2,s4,230a <.L1083>
    22d0:	4a91                	li	s5,4
    22d2:	03590763          	beq	s2,s5,2300 <.L1084>
    22d6:	4a15                	li	s4,5
    22d8:	01490f63          	beq	s2,s4,22f6 <.L1085>
    22dc:	4a99                	li	s5,6
    22de:	01590763          	beq	s2,s5,22ec <.L1086>

000022e2 <.LVL871>:
    whisperPutc(*p--);
    22e2:	0007c903          	lbu	s2,0(a5)
    22e6:	17fd                	addi	a5,a5,-1

000022e8 <.LBB436>:
  *(volatile char*)(STDOUT) = c;
    22e8:	01280023          	sb	s2,0(a6)

000022ec <.L1086>:
    whisperPutc(*p--);
    22ec:	0007ca03          	lbu	s4,0(a5)
    22f0:	17fd                	addi	a5,a5,-1

000022f2 <.LBB453>:
  *(volatile char*)(STDOUT) = c;
    22f2:	01480023          	sb	s4,0(a6)

000022f6 <.L1085>:
    whisperPutc(*p--);
    22f6:	0007ca83          	lbu	s5,0(a5)
    22fa:	17fd                	addi	a5,a5,-1

000022fc <.LBB454>:
  *(volatile char*)(STDOUT) = c;
    22fc:	01580023          	sb	s5,0(a6)

00002300 <.L1084>:
    whisperPutc(*p--);
    2300:	0007c903          	lbu	s2,0(a5)
    2304:	17fd                	addi	a5,a5,-1

00002306 <.LBB455>:
  *(volatile char*)(STDOUT) = c;
    2306:	01280023          	sb	s2,0(a6)

0000230a <.L1083>:
    whisperPutc(*p--);
    230a:	0007ca03          	lbu	s4,0(a5)
    230e:	17fd                	addi	a5,a5,-1

00002310 <.LBB456>:
  *(volatile char*)(STDOUT) = c;
    2310:	01480023          	sb	s4,0(a6)

00002314 <.L1082>:
    whisperPutc(*p--);
    2314:	0007ca83          	lbu	s5,0(a5)
    2318:	17fd                	addi	a5,a5,-1

0000231a <.LBB457>:
  *(volatile char*)(STDOUT) = c;
    231a:	01580023          	sb	s5,0(a6)

0000231e <.L1081>:
    whisperPutc(*p--);
    231e:	0007c903          	lbu	s2,0(a5)
    2322:	17fd                	addi	a5,a5,-1

00002324 <.LBB458>:
  *(volatile char*)(STDOUT) = c;
    2324:	01280023          	sb	s2,0(a6)

00002328 <.LBE458>:
  for (unsigned i = 0; i < charCount; ++i)
    2328:	05e78563          	beq	a5,t5,2372 <.L1146>

0000232c <.L916>:
    whisperPutc(*p--);
    232c:	0007ca03          	lbu	s4,0(a5)

00002330 <.LBB459>:
    2330:	17e1                	addi	a5,a5,-8

00002332 <.LBB460>:
  *(volatile char*)(STDOUT) = c;
    2332:	01480023          	sb	s4,0(a6)

00002336 <.LBE460>:
    whisperPutc(*p--);
    2336:	0077ca83          	lbu	s5,7(a5)

0000233a <.LBB461>:
  *(volatile char*)(STDOUT) = c;
    233a:	01580023          	sb	s5,0(a6)

0000233e <.LBE461>:
    whisperPutc(*p--);
    233e:	0067c903          	lbu	s2,6(a5)

00002342 <.LBB462>:
  *(volatile char*)(STDOUT) = c;
    2342:	01280023          	sb	s2,0(a6)

00002346 <.LBE462>:
    whisperPutc(*p--);
    2346:	0057ca03          	lbu	s4,5(a5)

0000234a <.LBB463>:
  *(volatile char*)(STDOUT) = c;
    234a:	01480023          	sb	s4,0(a6)

0000234e <.LBE463>:
    whisperPutc(*p--);
    234e:	0047ca83          	lbu	s5,4(a5)

00002352 <.LBB464>:
  *(volatile char*)(STDOUT) = c;
    2352:	01580023          	sb	s5,0(a6)

00002356 <.LBE464>:
    whisperPutc(*p--);
    2356:	0037c903          	lbu	s2,3(a5)

0000235a <.LBB465>:
  *(volatile char*)(STDOUT) = c;
    235a:	01280023          	sb	s2,0(a6)

0000235e <.LBE465>:
    whisperPutc(*p--);
    235e:	0027ca03          	lbu	s4,2(a5)

00002362 <.LBB466>:
  *(volatile char*)(STDOUT) = c;
    2362:	01480023          	sb	s4,0(a6)

00002366 <.LBE466>:
    whisperPutc(*p--);
    2366:	0017ca83          	lbu	s5,1(a5)

0000236a <.LBB467>:
  *(volatile char*)(STDOUT) = c;
    236a:	01580023          	sb	s5,0(a6)

0000236e <.LBE467>:
  for (unsigned i = 0; i < charCount; ++i)
    236e:	fbe79fe3          	bne	a5,t5,232c <.L916>

00002372 <.L1146>:
  if (neg)
    2372:	e209dae3          	bgez	s3,21a6 <.L1141>
    charCount++;
    2376:	00248713          	addi	a4,s1,2

0000237a <.LBE483>:
          count += whisperPrintInt(va_arg(ap, int), 16);
    237a:	953a                	add	a0,a0,a4
          break;
    237c:	be41                	j	1f0c <.L895>

0000237e <.L906>:
          count += whisperPuts(va_arg(ap, char*));
    237e:	419c                	lw	a5,0(a1)
    2380:	0591                	addi	a1,a1,4

00002382 <.LBB484>:
  while (*s)
    2382:	0007c483          	lbu	s1,0(a5)
    2386:	ccb9                	beqz	s1,23e4 <.L925>

00002388 <.L924>:
  *(volatile char*)(STDOUT) = c;
    2388:	00980023          	sb	s1,0(a6)

0000238c <.LBE375>:
  while (*s)
    238c:	0017c983          	lbu	s3,1(a5)
    2390:	04098a63          	beqz	s3,23e4 <.L925>

00002394 <.LBB376>:
  *(volatile char*)(STDOUT) = c;
    2394:	01380023          	sb	s3,0(a6)

00002398 <.LBE376>:
  while (*s)
    2398:	0027c483          	lbu	s1,2(a5)
    239c:	c4a1                	beqz	s1,23e4 <.L925>

0000239e <.LBB377>:
  *(volatile char*)(STDOUT) = c;
    239e:	00980023          	sb	s1,0(a6)

000023a2 <.LBE377>:
  while (*s)
    23a2:	0037c703          	lbu	a4,3(a5)
    23a6:	cf1d                	beqz	a4,23e4 <.L925>

000023a8 <.LBB378>:
  *(volatile char*)(STDOUT) = c;
    23a8:	00e80023          	sb	a4,0(a6)

000023ac <.LBE378>:
  while (*s)
    23ac:	0047c903          	lbu	s2,4(a5)
    23b0:	02090a63          	beqz	s2,23e4 <.L925>

000023b4 <.LBB379>:
  *(volatile char*)(STDOUT) = c;
    23b4:	01280023          	sb	s2,0(a6)

000023b8 <.LBE379>:
  while (*s)
    23b8:	0057ca03          	lbu	s4,5(a5)
    23bc:	020a0463          	beqz	s4,23e4 <.L925>

000023c0 <.LBB380>:
  *(volatile char*)(STDOUT) = c;
    23c0:	01480023          	sb	s4,0(a6)

000023c4 <.LBE380>:
  while (*s)
    23c4:	0067ca83          	lbu	s5,6(a5)
    23c8:	000a8e63          	beqz	s5,23e4 <.L925>

000023cc <.LBB381>:
  *(volatile char*)(STDOUT) = c;
    23cc:	01580023          	sb	s5,0(a6)

000023d0 <.LBE381>:
  while (*s)
    23d0:	0077c983          	lbu	s3,7(a5)
    23d4:	00098863          	beqz	s3,23e4 <.L925>
    whisperPutc(*s++);
    23d8:	07a1                	addi	a5,a5,8

000023da <.LBB382>:
  *(volatile char*)(STDOUT) = c;
    23da:	01380023          	sb	s3,0(a6)

000023de <.LBE382>:
  while (*s)
    23de:	0007c483          	lbu	s1,0(a5)
    23e2:	f0dd                	bnez	s1,2388 <.L924>

000023e4 <.L925>:
          count += whisperPuts(va_arg(ap, char*));
    23e4:	0505                	addi	a0,a0,1
          break;
    23e6:	b61d                	j	1f0c <.L895>

000023e8 <.L908>:
          count += whisperPrintDecimal(va_arg(ap, int));
    23e8:	0005a983          	lw	s3,0(a1)
    23ec:	0591                	addi	a1,a1,4

000023ee <.LBB485>:
  if (neg)
    23ee:	87ce                	mv	a5,s3
    23f0:	3a09c563          	bltz	s3,279a <.L1161>

000023f4 <.L910>:
    23f4:	4701                	li	a4,0

000023f6 <.L911>:
      char c = '0' + (value % 10);
    23f6:	03c7ea33          	rem	s4,a5,t3
    23fa:	84ba                	mv	s1,a4
      buffer[charCount++] = c;
    23fc:	00c10a93          	addi	s5,sp,12
    2400:	0705                	addi	a4,a4,1

00002402 <.LVL904>:
    2402:	9aba                	add	s5,s5,a4
    2404:	893a                	mv	s2,a4
      value = value / 10;
    2406:	03c7c7b3          	div	a5,a5,t3

0000240a <.LVL905>:
      char c = '0' + (value % 10);
    240a:	030a0a13          	addi	s4,s4,48

0000240e <.LVL906>:
      buffer[charCount++] = c;
    240e:	ff4a8fa3          	sb	s4,-1(s5)

00002412 <.LBE487>:
  while (value);
    2412:	cbf1                	beqz	a5,24e6 <.L1143>

00002414 <.LBB488>:
      char c = '0' + (value % 10);
    2414:	03c7ea33          	rem	s4,a5,t3

00002418 <.LVL907>:
    2418:	84ba                	mv	s1,a4
      buffer[charCount++] = c;
    241a:	00c10a93          	addi	s5,sp,12

0000241e <.LVL908>:
    241e:	0705                	addi	a4,a4,1

00002420 <.LVL909>:
    2420:	9aba                	add	s5,s5,a4

00002422 <.LVL910>:
      value = value / 10;
    2422:	03c7c7b3          	div	a5,a5,t3

00002426 <.LVL911>:
      char c = '0' + (value % 10);
    2426:	030a0a13          	addi	s4,s4,48
      buffer[charCount++] = c;
    242a:	ff4a8fa3          	sb	s4,-1(s5)

0000242e <.LBE488>:
  while (value);
    242e:	cfc5                	beqz	a5,24e6 <.L1143>

00002430 <.LBB489>:
      char c = '0' + (value % 10);
    2430:	03c7ea33          	rem	s4,a5,t3
    2434:	84ba                	mv	s1,a4

00002436 <.LVL912>:
      buffer[charCount++] = c;
    2436:	00c10a93          	addi	s5,sp,12

0000243a <.LVL913>:
    243a:	00290713          	addi	a4,s2,2

0000243e <.LVL914>:
    243e:	9aba                	add	s5,s5,a4

00002440 <.LVL915>:
      value = value / 10;
    2440:	03c7c7b3          	div	a5,a5,t3

00002444 <.LVL916>:
      char c = '0' + (value % 10);
    2444:	030a0a13          	addi	s4,s4,48
      buffer[charCount++] = c;
    2448:	ff4a8fa3          	sb	s4,-1(s5)

0000244c <.LBE489>:
  while (value);
    244c:	cfc9                	beqz	a5,24e6 <.L1143>

0000244e <.LBB490>:
      char c = '0' + (value % 10);
    244e:	03c7ea33          	rem	s4,a5,t3
    2452:	84ba                	mv	s1,a4
      buffer[charCount++] = c;
    2454:	00c10a93          	addi	s5,sp,12

00002458 <.LVL917>:
    2458:	00390713          	addi	a4,s2,3

0000245c <.LVL918>:
    245c:	9aba                	add	s5,s5,a4

0000245e <.LVL919>:
      value = value / 10;
    245e:	03c7c7b3          	div	a5,a5,t3

00002462 <.LVL920>:
      char c = '0' + (value % 10);
    2462:	030a0a13          	addi	s4,s4,48
      buffer[charCount++] = c;
    2466:	ff4a8fa3          	sb	s4,-1(s5)

0000246a <.LBE490>:
  while (value);
    246a:	cfb5                	beqz	a5,24e6 <.L1143>

0000246c <.LBB491>:
      char c = '0' + (value % 10);
    246c:	03c7ea33          	rem	s4,a5,t3
    2470:	84ba                	mv	s1,a4
      buffer[charCount++] = c;
    2472:	00c10a93          	addi	s5,sp,12

00002476 <.LVL921>:
    2476:	00490713          	addi	a4,s2,4

0000247a <.LVL922>:
    247a:	9aba                	add	s5,s5,a4

0000247c <.LVL923>:
      value = value / 10;
    247c:	03c7c7b3          	div	a5,a5,t3

00002480 <.LVL924>:
      char c = '0' + (value % 10);
    2480:	030a0a13          	addi	s4,s4,48
      buffer[charCount++] = c;
    2484:	ff4a8fa3          	sb	s4,-1(s5)

00002488 <.LBE491>:
  while (value);
    2488:	cfb9                	beqz	a5,24e6 <.L1143>

0000248a <.LBB492>:
      char c = '0' + (value % 10);
    248a:	03c7ea33          	rem	s4,a5,t3
    248e:	84ba                	mv	s1,a4
      buffer[charCount++] = c;
    2490:	00c10a93          	addi	s5,sp,12

00002494 <.LVL925>:
    2494:	00590713          	addi	a4,s2,5

00002498 <.LVL926>:
    2498:	9aba                	add	s5,s5,a4

0000249a <.LVL927>:
      value = value / 10;
    249a:	03c7c7b3          	div	a5,a5,t3

0000249e <.LVL928>:
      char c = '0' + (value % 10);
    249e:	030a0a13          	addi	s4,s4,48
      buffer[charCount++] = c;
    24a2:	ff4a8fa3          	sb	s4,-1(s5)

000024a6 <.LBE492>:
  while (value);
    24a6:	c3a1                	beqz	a5,24e6 <.L1143>

000024a8 <.LBB493>:
      char c = '0' + (value % 10);
    24a8:	03c7ea33          	rem	s4,a5,t3
    24ac:	84ba                	mv	s1,a4
      buffer[charCount++] = c;
    24ae:	00c10a93          	addi	s5,sp,12

000024b2 <.LVL929>:
    24b2:	00690713          	addi	a4,s2,6

000024b6 <.LVL930>:
    24b6:	9aba                	add	s5,s5,a4

000024b8 <.LVL931>:
      value = value / 10;
    24b8:	03c7c7b3          	div	a5,a5,t3

000024bc <.LVL932>:
      char c = '0' + (value % 10);
    24bc:	030a0a13          	addi	s4,s4,48
      buffer[charCount++] = c;
    24c0:	ff4a8fa3          	sb	s4,-1(s5)

000024c4 <.LBE493>:
  while (value);
    24c4:	c38d                	beqz	a5,24e6 <.L1143>

000024c6 <.LBB494>:
      char c = '0' + (value % 10);
    24c6:	03c7ea33          	rem	s4,a5,t3
    24ca:	84ba                	mv	s1,a4
      buffer[charCount++] = c;
    24cc:	00790713          	addi	a4,s2,7

000024d0 <.LVL934>:
    24d0:	00c10913          	addi	s2,sp,12

000024d4 <.LVL935>:
    24d4:	00e90ab3          	add	s5,s2,a4
      value = value / 10;
    24d8:	03c7c7b3          	div	a5,a5,t3

000024dc <.LVL936>:
      char c = '0' + (value % 10);
    24dc:	030a0a13          	addi	s4,s4,48
      buffer[charCount++] = c;
    24e0:	ff4a8fa3          	sb	s4,-1(s5)

000024e4 <.LBE494>:
  while (value);
    24e4:	fb89                	bnez	a5,23f6 <.L911>

000024e6 <.L1143>:
  char* p = buffer + charCount - 1;
    24e6:	00c10913          	addi	s2,sp,12
    24ea:	009907b3          	add	a5,s2,s1

000024ee <.LBB495>:
  for (unsigned i = 0; i < charCount; ++i)
    24ee:	41e78ab3          	sub	s5,a5,t5
    24f2:	007af913          	andi	s2,s5,7
    24f6:	06090963          	beqz	s2,2568 <.L912>
    24fa:	4a05                	li	s4,1
    24fc:	05490f63          	beq	s2,s4,255a <.L1074>
    2500:	4a89                	li	s5,2
    2502:	05590763          	beq	s2,s5,2550 <.L1075>
    2506:	4a0d                	li	s4,3
    2508:	03490f63          	beq	s2,s4,2546 <.L1076>
    250c:	4a91                	li	s5,4
    250e:	03590763          	beq	s2,s5,253c <.L1077>
    2512:	4a15                	li	s4,5
    2514:	01490f63          	beq	s2,s4,2532 <.L1078>
    2518:	4a99                	li	s5,6
    251a:	01590763          	beq	s2,s5,2528 <.L1079>

0000251e <.LVL939>:
    whisperPutc(*p--);
    251e:	0007c903          	lbu	s2,0(a5)
    2522:	17fd                	addi	a5,a5,-1

00002524 <.LBB496>:
  *(volatile char*)(STDOUT) = c;
    2524:	01280023          	sb	s2,0(a6)

00002528 <.L1079>:
    whisperPutc(*p--);
    2528:	0007ca03          	lbu	s4,0(a5)
    252c:	17fd                	addi	a5,a5,-1

0000252e <.LBB513>:
  *(volatile char*)(STDOUT) = c;
    252e:	01480023          	sb	s4,0(a6)

00002532 <.L1078>:
    whisperPutc(*p--);
    2532:	0007ca83          	lbu	s5,0(a5)
    2536:	17fd                	addi	a5,a5,-1

00002538 <.LBB514>:
  *(volatile char*)(STDOUT) = c;
    2538:	01580023          	sb	s5,0(a6)

0000253c <.L1077>:
    whisperPutc(*p--);
    253c:	0007c903          	lbu	s2,0(a5)
    2540:	17fd                	addi	a5,a5,-1

00002542 <.LBB515>:
  *(volatile char*)(STDOUT) = c;
    2542:	01280023          	sb	s2,0(a6)

00002546 <.L1076>:
    whisperPutc(*p--);
    2546:	0007ca03          	lbu	s4,0(a5)
    254a:	17fd                	addi	a5,a5,-1

0000254c <.LBB516>:
  *(volatile char*)(STDOUT) = c;
    254c:	01480023          	sb	s4,0(a6)

00002550 <.L1075>:
    whisperPutc(*p--);
    2550:	0007ca83          	lbu	s5,0(a5)
    2554:	17fd                	addi	a5,a5,-1

00002556 <.LBB517>:
  *(volatile char*)(STDOUT) = c;
    2556:	01580023          	sb	s5,0(a6)

0000255a <.L1074>:
    whisperPutc(*p--);
    255a:	0007c903          	lbu	s2,0(a5)
    255e:	17fd                	addi	a5,a5,-1

00002560 <.LBB518>:
  *(volatile char*)(STDOUT) = c;
    2560:	01280023          	sb	s2,0(a6)

00002564 <.LBE518>:
  for (unsigned i = 0; i < charCount; ++i)
    2564:	e1e787e3          	beq	a5,t5,2372 <.L1146>

00002568 <.L912>:
    whisperPutc(*p--);
    2568:	0007ca03          	lbu	s4,0(a5)

0000256c <.LBB519>:
    256c:	17e1                	addi	a5,a5,-8

0000256e <.LBB520>:
  *(volatile char*)(STDOUT) = c;
    256e:	01480023          	sb	s4,0(a6)

00002572 <.LBE520>:
    whisperPutc(*p--);
    2572:	0077ca83          	lbu	s5,7(a5)

00002576 <.LBB521>:
  *(volatile char*)(STDOUT) = c;
    2576:	01580023          	sb	s5,0(a6)

0000257a <.LBE521>:
    whisperPutc(*p--);
    257a:	0067c903          	lbu	s2,6(a5)

0000257e <.LBB522>:
  *(volatile char*)(STDOUT) = c;
    257e:	01280023          	sb	s2,0(a6)

00002582 <.LBE522>:
    whisperPutc(*p--);
    2582:	0057ca03          	lbu	s4,5(a5)

00002586 <.LBB523>:
  *(volatile char*)(STDOUT) = c;
    2586:	01480023          	sb	s4,0(a6)

0000258a <.LBE523>:
    whisperPutc(*p--);
    258a:	0047ca83          	lbu	s5,4(a5)

0000258e <.LBB524>:
  *(volatile char*)(STDOUT) = c;
    258e:	01580023          	sb	s5,0(a6)

00002592 <.LBE524>:
    whisperPutc(*p--);
    2592:	0037c903          	lbu	s2,3(a5)

00002596 <.LBB525>:
  *(volatile char*)(STDOUT) = c;
    2596:	01280023          	sb	s2,0(a6)

0000259a <.LBE525>:
    whisperPutc(*p--);
    259a:	0027ca03          	lbu	s4,2(a5)

0000259e <.LBB526>:
  *(volatile char*)(STDOUT) = c;
    259e:	01480023          	sb	s4,0(a6)

000025a2 <.LBE526>:
    whisperPutc(*p--);
    25a2:	0017ca83          	lbu	s5,1(a5)

000025a6 <.LBB527>:
  *(volatile char*)(STDOUT) = c;
    25a6:	01580023          	sb	s5,0(a6)

000025aa <.LBE527>:
  for (unsigned i = 0; i < charCount; ++i)
    25aa:	fbe79fe3          	bne	a5,t5,2568 <.L912>
    25ae:	b3d1                	j	2372 <.L1146>

000025b0 <.L907>:
  unsigned uu = value;
    25b0:	4184                	lw	s1,0(a1)
  int charCount = 0;
    25b2:	4781                	li	a5,0

000025b4 <.LBE531>:
          count += whisperPrintInt(va_arg(ap, int), 8);
    25b4:	0591                	addi	a1,a1,4

000025b6 <.L922>:
          char c = '0' + (uu & 7);
    25b6:	0074f913          	andi	s2,s1,7
    25ba:	873e                	mv	a4,a5
          buffer[charCount++] = c;
    25bc:	00c10a13          	addi	s4,sp,12
    25c0:	0785                	addi	a5,a5,1

000025c2 <.LVL963>:
    25c2:	00fa0ab3          	add	s5,s4,a5
          char c = '0' + (uu & 7);
    25c6:	03090993          	addi	s3,s2,48
          buffer[charCount++] = c;
    25ca:	ff3a8fa3          	sb	s3,-1(s5)
          uu >>= 3;
    25ce:	0034d913          	srli	s2,s1,0x3
          buffer[charCount++] = c;
    25d2:	8abe                	mv	s5,a5

000025d4 <.LBE533>:
      while (uu);
    25d4:	0e090563          	beqz	s2,26be <.L1145>

000025d8 <.LBB534>:
          char c = '0' + (uu & 7);
    25d8:	00797993          	andi	s3,s2,7
    25dc:	873e                	mv	a4,a5
          buffer[charCount++] = c;
    25de:	00c10a13          	addi	s4,sp,12
    25e2:	0785                	addi	a5,a5,1
          char c = '0' + (uu & 7);
    25e4:	03098913          	addi	s2,s3,48
          buffer[charCount++] = c;
    25e8:	9a3e                	add	s4,s4,a5
    25ea:	ff2a0fa3          	sb	s2,-1(s4)
          uu >>= 3;
    25ee:	0064d993          	srli	s3,s1,0x6

000025f2 <.LBE534>:
      while (uu);
    25f2:	0c098663          	beqz	s3,26be <.L1145>

000025f6 <.LBB535>:
          char c = '0' + (uu & 7);
    25f6:	0079f913          	andi	s2,s3,7
          buffer[charCount++] = c;
    25fa:	00c10a13          	addi	s4,sp,12
    25fe:	873e                	mv	a4,a5
    2600:	002a8793          	addi	a5,s5,2
    2604:	00fa09b3          	add	s3,s4,a5
          char c = '0' + (uu & 7);
    2608:	03090913          	addi	s2,s2,48
          buffer[charCount++] = c;
    260c:	ff298fa3          	sb	s2,-1(s3)
          uu >>= 3;
    2610:	0094da13          	srli	s4,s1,0x9

00002614 <.LBE535>:
      while (uu);
    2614:	0a0a0563          	beqz	s4,26be <.L1145>

00002618 <.LBB536>:
          char c = '0' + (uu & 7);
    2618:	007a7993          	andi	s3,s4,7
          buffer[charCount++] = c;
    261c:	00c10913          	addi	s2,sp,12
    2620:	873e                	mv	a4,a5
    2622:	003a8793          	addi	a5,s5,3
    2626:	00f90a33          	add	s4,s2,a5
          char c = '0' + (uu & 7);
    262a:	03098993          	addi	s3,s3,48
          buffer[charCount++] = c;
    262e:	ff3a0fa3          	sb	s3,-1(s4)
          uu >>= 3;
    2632:	00c4d913          	srli	s2,s1,0xc

00002636 <.LBE536>:
      while (uu);
    2636:	08090463          	beqz	s2,26be <.L1145>

0000263a <.LBB537>:
          char c = '0' + (uu & 7);
    263a:	00797993          	andi	s3,s2,7
    263e:	873e                	mv	a4,a5
          buffer[charCount++] = c;
    2640:	00c10a13          	addi	s4,sp,12
    2644:	004a8793          	addi	a5,s5,4
          char c = '0' + (uu & 7);
    2648:	03098913          	addi	s2,s3,48
          buffer[charCount++] = c;
    264c:	9a3e                	add	s4,s4,a5
    264e:	ff2a0fa3          	sb	s2,-1(s4)
          uu >>= 3;
    2652:	00f4d993          	srli	s3,s1,0xf

00002656 <.LBE537>:
      while (uu);
    2656:	06098463          	beqz	s3,26be <.L1145>

0000265a <.LBB538>:
          char c = '0' + (uu & 7);
    265a:	0079f913          	andi	s2,s3,7
          buffer[charCount++] = c;
    265e:	00c10a13          	addi	s4,sp,12
    2662:	873e                	mv	a4,a5
    2664:	005a8793          	addi	a5,s5,5
    2668:	00fa09b3          	add	s3,s4,a5
          char c = '0' + (uu & 7);
    266c:	03090913          	addi	s2,s2,48
          buffer[charCount++] = c;
    2670:	ff298fa3          	sb	s2,-1(s3)
          uu >>= 3;
    2674:	0124da13          	srli	s4,s1,0x12

00002678 <.LBE538>:
      while (uu);
    2678:	040a0363          	beqz	s4,26be <.L1145>

0000267c <.LBB539>:
          char c = '0' + (uu & 7);
    267c:	007a7993          	andi	s3,s4,7
          buffer[charCount++] = c;
    2680:	00c10913          	addi	s2,sp,12
    2684:	873e                	mv	a4,a5
    2686:	006a8793          	addi	a5,s5,6
    268a:	00f90a33          	add	s4,s2,a5
          char c = '0' + (uu & 7);
    268e:	03098993          	addi	s3,s3,48
          buffer[charCount++] = c;
    2692:	ff3a0fa3          	sb	s3,-1(s4)
          uu >>= 3;
    2696:	0154d913          	srli	s2,s1,0x15

0000269a <.LBE539>:
      while (uu);
    269a:	02090263          	beqz	s2,26be <.L1145>

0000269e <.LBB540>:
          buffer[charCount++] = c;
    269e:	873e                	mv	a4,a5
          char c = '0' + (uu & 7);
    26a0:	00797a13          	andi	s4,s2,7
          buffer[charCount++] = c;
    26a4:	007a8793          	addi	a5,s5,7
    26a8:	00c10a93          	addi	s5,sp,12
    26ac:	00fa89b3          	add	s3,s5,a5
          char c = '0' + (uu & 7);
    26b0:	030a0913          	addi	s2,s4,48
          buffer[charCount++] = c;
    26b4:	ff298fa3          	sb	s2,-1(s3)

000026b8 <.LVL972>:
          uu >>= 3;
    26b8:	80e1                	srli	s1,s1,0x18

000026ba <.LBE540>:
      while (uu);
    26ba:	ee049ee3          	bnez	s1,25b6 <.L922>

000026be <.L1145>:
  char* p = buffer + charCount - 1;
    26be:	00c10a13          	addi	s4,sp,12
    26c2:	9752                	add	a4,a4,s4

000026c4 <.LBB541>:
  for (unsigned i = 0; i < charCount; ++i)
    26c4:	41e70ab3          	sub	s5,a4,t5
    26c8:	007af993          	andi	s3,s5,7
    26cc:	06098963          	beqz	s3,273e <.L923>
    26d0:	4905                	li	s2,1
    26d2:	05298f63          	beq	s3,s2,2730 <.L1094>
    26d6:	4489                	li	s1,2
    26d8:	04998763          	beq	s3,s1,2726 <.L1095>
    26dc:	4a0d                	li	s4,3
    26de:	03498f63          	beq	s3,s4,271c <.L1096>
    26e2:	4a91                	li	s5,4
    26e4:	03598763          	beq	s3,s5,2712 <.L1097>
    26e8:	4915                	li	s2,5
    26ea:	01298f63          	beq	s3,s2,2708 <.L1098>
    26ee:	4499                	li	s1,6
    26f0:	00998763          	beq	s3,s1,26fe <.L1099>

000026f4 <.LVL975>:
    whisperPutc(*p--);
    26f4:	00074983          	lbu	s3,0(a4)
    26f8:	177d                	addi	a4,a4,-1

000026fa <.LBB542>:
  *(volatile char*)(STDOUT) = c;
    26fa:	01380023          	sb	s3,0(a6)

000026fe <.L1099>:
    whisperPutc(*p--);
    26fe:	00074a03          	lbu	s4,0(a4)
    2702:	177d                	addi	a4,a4,-1

00002704 <.LBB559>:
  *(volatile char*)(STDOUT) = c;
    2704:	01480023          	sb	s4,0(a6)

00002708 <.L1098>:
    whisperPutc(*p--);
    2708:	00074a83          	lbu	s5,0(a4)
    270c:	177d                	addi	a4,a4,-1

0000270e <.LBB560>:
  *(volatile char*)(STDOUT) = c;
    270e:	01580023          	sb	s5,0(a6)

00002712 <.L1097>:
    whisperPutc(*p--);
    2712:	00074903          	lbu	s2,0(a4)
    2716:	177d                	addi	a4,a4,-1

00002718 <.LBB561>:
  *(volatile char*)(STDOUT) = c;
    2718:	01280023          	sb	s2,0(a6)

0000271c <.L1096>:
    whisperPutc(*p--);
    271c:	00074483          	lbu	s1,0(a4)
    2720:	177d                	addi	a4,a4,-1

00002722 <.LBB562>:
  *(volatile char*)(STDOUT) = c;
    2722:	00980023          	sb	s1,0(a6)

00002726 <.L1095>:
    whisperPutc(*p--);
    2726:	00074983          	lbu	s3,0(a4)
    272a:	177d                	addi	a4,a4,-1

0000272c <.LBB563>:
  *(volatile char*)(STDOUT) = c;
    272c:	01380023          	sb	s3,0(a6)

00002730 <.L1094>:
    whisperPutc(*p--);
    2730:	00074a03          	lbu	s4,0(a4)
    2734:	177d                	addi	a4,a4,-1

00002736 <.LBB564>:
  *(volatile char*)(STDOUT) = c;
    2736:	01480023          	sb	s4,0(a6)

0000273a <.LBE564>:
  for (unsigned i = 0; i < charCount; ++i)
    273a:	05e70563          	beq	a4,t5,2784 <.L1144>

0000273e <.L923>:
    whisperPutc(*p--);
    273e:	00074a83          	lbu	s5,0(a4)

00002742 <.LBB565>:
    2742:	1761                	addi	a4,a4,-8

00002744 <.LBB566>:
  *(volatile char*)(STDOUT) = c;
    2744:	01580023          	sb	s5,0(a6)

00002748 <.LBE566>:
    whisperPutc(*p--);
    2748:	00774903          	lbu	s2,7(a4)

0000274c <.LBB567>:
  *(volatile char*)(STDOUT) = c;
    274c:	01280023          	sb	s2,0(a6)

00002750 <.LBE567>:
    whisperPutc(*p--);
    2750:	00674483          	lbu	s1,6(a4)

00002754 <.LBB568>:
  *(volatile char*)(STDOUT) = c;
    2754:	00980023          	sb	s1,0(a6)

00002758 <.LBE568>:
    whisperPutc(*p--);
    2758:	00574983          	lbu	s3,5(a4)

0000275c <.LBB569>:
  *(volatile char*)(STDOUT) = c;
    275c:	01380023          	sb	s3,0(a6)

00002760 <.LBE569>:
    whisperPutc(*p--);
    2760:	00474a03          	lbu	s4,4(a4)

00002764 <.LBB570>:
  *(volatile char*)(STDOUT) = c;
    2764:	01480023          	sb	s4,0(a6)

00002768 <.LBE570>:
    whisperPutc(*p--);
    2768:	00374a83          	lbu	s5,3(a4)

0000276c <.LBB571>:
  *(volatile char*)(STDOUT) = c;
    276c:	01580023          	sb	s5,0(a6)

00002770 <.LBE571>:
    whisperPutc(*p--);
    2770:	00274903          	lbu	s2,2(a4)

00002774 <.LBB572>:
  *(volatile char*)(STDOUT) = c;
    2774:	01280023          	sb	s2,0(a6)

00002778 <.LBE572>:
    whisperPutc(*p--);
    2778:	00174483          	lbu	s1,1(a4)

0000277c <.LBB573>:
  *(volatile char*)(STDOUT) = c;
    277c:	00980023          	sb	s1,0(a6)

00002780 <.LBE573>:
  for (unsigned i = 0; i < charCount; ++i)
    2780:	fbe71fe3          	bne	a4,t5,273e <.L923>

00002784 <.L1144>:
          count += whisperPrintInt(va_arg(ap, int), 8);
    2784:	953e                	add	a0,a0,a5
          break;
    2786:	f86ff06f          	j	1f0c <.L895>

0000278a <.L909>:
          whisperPutc(va_arg(ap, int));
    278a:	0005c703          	lbu	a4,0(a1)

0000278e <.LBB576>:
          ++count;
    278e:	0505                	addi	a0,a0,1

00002790 <.LVL1005>:
          whisperPutc(va_arg(ap, int));
    2790:	0591                	addi	a1,a1,4

00002792 <.LBB579>:
  *(volatile char*)(STDOUT) = c;
    2792:	00e80023          	sb	a4,0(a6)

00002796 <.LBE579>:
          break;
    2796:	f76ff06f          	j	1f0c <.L895>

0000279a <.L1161>:
      value = -value;
    279a:	413007b3          	neg	a5,s3

0000279e <.LBB528>:
  *(volatile char*)(STDOUT) = c;
    279e:	00580023          	sb	t0,0(a6)
  return c;
    27a2:	b989                	j	23f4 <.L910>

000027a4 <.L1160>:
      value = -value;
    27a4:	413007b3          	neg	a5,s3

000027a8 <.LBB468>:
  *(volatile char*)(STDOUT) = c;
    27a8:	00580023          	sb	t0,0(a6)
  return c;
    27ac:	b429                	j	21b6 <.L914>

000027ae <.L1158>:
          while (*fp >= '0' && *fp <= '9')
    27ae:	863a                	mv	a2,a4
    27b0:	feeff06f          	j	1f9e <.L902>

000027b4 <.L927>:
  int count = 0;  // Printed character count
    27b4:	4501                	li	a0,0

000027b6 <.LVL1014>:
}
    27b6:	8082                	ret

000027b8 <whisperPrintf>:


int
whisperPrintf(const char* format, ...)
{
    27b8:	7139                	addi	sp,sp,-64
  va_list ap;

  va_start(ap, format);
    27ba:	02410313          	addi	t1,sp,36
{
    27be:	d22e                	sw	a1,36(sp)
  int code = whisperPrintfImpl(format, ap);
    27c0:	859a                	mv	a1,t1
{
    27c2:	ce06                	sw	ra,28(sp)
    27c4:	d432                	sw	a2,40(sp)
    27c6:	d636                	sw	a3,44(sp)
    27c8:	d83a                	sw	a4,48(sp)
    27ca:	da3e                	sw	a5,52(sp)
    27cc:	dc42                	sw	a6,56(sp)
    27ce:	de46                	sw	a7,60(sp)
  va_start(ap, format);
    27d0:	c61a                	sw	t1,12(sp)
  int code = whisperPrintfImpl(format, ap);
    27d2:	eecff0ef          	jal	ra,1ebe <whisperPrintfImpl>

000027d6 <.LVL1016>:
  va_end(ap);

  return code;
}
    27d6:	40f2                	lw	ra,28(sp)
    27d8:	6121                	addi	sp,sp,64
    27da:	8082                	ret

000027dc <core_list_init>:
list_head *core_list_init(ee_u32 blksize, list_head *memblock, ee_s16 seed) {
    27dc:	1141                	addi	sp,sp,-16
        ee_u32 size=(blksize/per_item)-2; /* to accomodate systems with 64b pointers, and make sure same code is executed, set max list elements */
    27de:	4f51                	li	t5,20
list_head *core_list_init(ee_u32 blksize, list_head *memblock, ee_s16 seed) {
    27e0:	c606                	sw	ra,12(sp)
        ee_u32 size=(blksize/per_item)-2; /* to accomodate systems with 64b pointers, and make sure same code is executed, set max list elements */
    27e2:	03e550b3          	divu	ra,a0,t5
list_head *core_list_init(ee_u32 blksize, list_head *memblock, ee_s16 seed) {
    27e6:	852e                	mv	a0,a1

000027e8 <.LVL1018>:
    27e8:	c422                	sw	s0,8(sp)
    27ea:	c226                	sw	s1,4(sp)
    27ec:	c04a                	sw	s2,0(sp)
        list->info->data16=(ee_s16)0x8080;
    27ee:	75e1                	lui	a1,0xffff8

000027f0 <.LVL1019>:
        list->next=NULL;
    27f0:	00052023          	sw	zero,0(a0)
        list->info->data16=(ee_s16)0x8080;
    27f4:	08058713          	addi	a4,a1,128 # ffff8080 <STACK+0xfffdf9b0>

000027f8 <.LBB584>:
        if ((*memblock+1) >= memblock_end)
    27f8:	01050793          	addi	a5,a0,16

000027fc <.LBE584>:
        memblock++;
    27fc:	00850813          	addi	a6,a0,8
        ee_u32 size=(blksize/per_item)-2; /* to accomodate systems with 64b pointers, and make sure same code is executed, set max list elements */
    2800:	ffe08313          	addi	t1,ra,-2

00002804 <.LVL1020>:
        list_head *memblock_end=memblock+size;
    2804:	00331693          	slli	a3,t1,0x3
    2808:	00d50433          	add	s0,a0,a3

0000280c <.LVL1021>:
        list->info=datablock;
    280c:	c140                	sw	s0,4(a0)
        list_data *datablock_end=datablock+size;
    280e:	00231e13          	slli	t3,t1,0x2
        list->info->idx=0x0000;
    2812:	00041123          	sh	zero,2(s0)
        list->info->data16=(ee_s16)0x8080;
    2816:	00e41023          	sh	a4,0(s0)
        list_data *datablock_end=datablock+size;
    281a:	01c404b3          	add	s1,s0,t3

0000281e <.LVL1022>:
        datablock++;
    281e:	00440893          	addi	a7,s0,4

00002822 <.LBB590>:
        if ((*memblock+1) >= memblock_end)
    2822:	3a87fd63          	bgeu	a5,s0,2bdc <.L1181>
        if ((*datablock+1) >= datablock_end)
    2826:	00840713          	addi	a4,s0,8
    282a:	3a977963          	bgeu	a4,s1,2bdc <.L1181>

0000282e <.LVL1024>:
        newitem->next=insert_point->next;
    282e:	00052423          	sw	zero,8(a0)
        insert_point->next=newitem;
    2832:	01052023          	sw	a6,0(a0)
        newitem->info=*datablock;
    2836:	01152623          	sw	a7,12(a0)

0000283a <.LBB586>:
        to->idx=from->idx;
    283a:	fff5c293          	not	t0,a1
        to->data16=from->data16;
    283e:	53fd                	li	t2,-1
    2840:	00741223          	sh	t2,4(s0)
        to->idx=from->idx;
    2844:	00541323          	sh	t0,6(s0)

00002848 <.L1165>:
        for (i=0; i<size; i++) {
    2848:	22030a63          	beqz	t1,2a7c <.L1166>

0000284c <.LBB591>:
                        ee_u16 pat=(ee_u16)(i++ ^ seed); /* get a pseudo random number */
    284c:	01061e93          	slli	t4,a2,0x10

00002850 <.LBB592>:
        to->idx=from->idx;
    2850:	7fe1                	lui	t6,0xffff8
    2852:	00337913          	andi	s2,t1,3

00002856 <.LBB705>:
                        ee_u16 pat=(ee_u16)(i++ ^ seed); /* get a pseudo random number */
    2856:	010edf13          	srli	t5,t4,0x10
    285a:	4881                	li	a7,0

0000285c <.LBB612>:
        to->idx=from->idx;
    285c:	ffffc093          	not	ra,t6
    2860:	0e090263          	beqz	s2,2944 <.L1171>
    2864:	4585                	li	a1,1
    2866:	08b90763          	beq	s2,a1,28f4 <.L1211>
    286a:	4689                	li	a3,2
    286c:	02d90e63          	beq	s2,a3,28a8 <.L1212>

00002870 <.LBB667>:
        if ((*memblock+1) >= memblock_end)
    2870:	00878e13          	addi	t3,a5,8
    2874:	208e7463          	bgeu	t3,s0,2a7c <.L1166>
        if ((*datablock+1) >= datablock_end)
    2878:	00470893          	addi	a7,a4,4
    287c:	0298f563          	bgeu	a7,s1,28a6 <.L1196>

00002880 <.LBE667>:
                ee_u16 dat=(datpat<<3) | (i&0x7); /* alternate between algorithms */
    2880:	003f1293          	slli	t0,t5,0x3

00002884 <.LBB668>:
        newitem->next=insert_point->next;
    2884:	0107a023          	sw	a6,0(a5)

00002888 <.LBE668>:
                ee_u16 dat=(datpat<<3) | (i&0x7); /* alternate between algorithms */
    2888:	0782f393          	andi	t2,t0,120

0000288c <.LBB669>:
        insert_point->next=newitem;
    288c:	c11c                	sw	a5,0(a0)

0000288e <.LBE669>:
                info.data16=(dat<<8) | dat;             /* fill the data with actual data and upper bits with rebuild value */
    288e:	00839813          	slli	a6,t2,0x8

00002892 <.LBB670>:
        newitem->info=*datablock;
    2892:	c3d8                	sw	a4,4(a5)

00002894 <.LBB613>:
                info.data16=(dat<<8) | dat;             /* fill the data with actual data and upper bits with rebuild value */
    2894:	00786933          	or	s2,a6,t2

00002898 <.LBB614>:
        to->data16=from->data16;
    2898:	01271023          	sh	s2,0(a4)
        to->idx=from->idx;
    289c:	00171123          	sh	ra,2(a4)

000028a0 <.LBE614>:
        return newitem;
    28a0:	883e                	mv	a6,a5
    28a2:	8746                	mv	a4,a7
    28a4:	87f2                	mv	a5,t3

000028a6 <.L1196>:
        for (i=0; i<size; i++) {
    28a6:	4885                	li	a7,1

000028a8 <.L1212>:
        if ((*memblock+1) >= memblock_end)
    28a8:	00878e93          	addi	t4,a5,8
    28ac:	1c8ef863          	bgeu	t4,s0,2a7c <.L1166>
        if ((*datablock+1) >= datablock_end)
    28b0:	00470693          	addi	a3,a4,4
    28b4:	0296ff63          	bgeu	a3,s1,28f2 <.L1199>
    28b8:	01089f93          	slli	t6,a7,0x10
    28bc:	010fde13          	srli	t3,t6,0x10

000028c0 <.LBE672>:
                ee_u16 datpat=((ee_u16)(seed^i) & 0xf);
    28c0:	01ee45b3          	xor	a1,t3,t5
                ee_u16 dat=(datpat<<3) | (i&0x7); /* alternate between algorithms */
    28c4:	00359293          	slli	t0,a1,0x3
    28c8:	007e7913          	andi	s2,t3,7
    28cc:	0782f393          	andi	t2,t0,120

000028d0 <.LBB673>:
        newitem->next=insert_point->next;
    28d0:	0107a023          	sw	a6,0(a5)

000028d4 <.LBE673>:
                ee_u16 dat=(datpat<<3) | (i&0x7); /* alternate between algorithms */
    28d4:	0123efb3          	or	t6,t2,s2

000028d8 <.LBB674>:
        insert_point->next=newitem;
    28d8:	c11c                	sw	a5,0(a0)

000028da <.LBE674>:
                info.data16=(dat<<8) | dat;             /* fill the data with actual data and upper bits with rebuild value */
    28da:	008f9813          	slli	a6,t6,0x8

000028de <.LBB675>:
        newitem->info=*datablock;
    28de:	c3d8                	sw	a4,4(a5)

000028e0 <.LBB615>:
                info.data16=(dat<<8) | dat;             /* fill the data with actual data and upper bits with rebuild value */
    28e0:	01f86e33          	or	t3,a6,t6

000028e4 <.LBB616>:
        to->data16=from->data16;
    28e4:	01c71023          	sh	t3,0(a4)
        to->idx=from->idx;
    28e8:	00171123          	sh	ra,2(a4)

000028ec <.LBE616>:
        return newitem;
    28ec:	883e                	mv	a6,a5
    28ee:	8736                	mv	a4,a3
    28f0:	87f6                	mv	a5,t4

000028f2 <.L1199>:
        for (i=0; i<size; i++) {
    28f2:	0885                	addi	a7,a7,1

000028f4 <.L1211>:
        if ((*memblock+1) >= memblock_end)
    28f4:	00878e93          	addi	t4,a5,8
    28f8:	188ef263          	bgeu	t4,s0,2a7c <.L1166>
        if ((*datablock+1) >= datablock_end)
    28fc:	00470693          	addi	a3,a4,4
    2900:	0296ff63          	bgeu	a3,s1,293e <.L1202>
    2904:	01089593          	slli	a1,a7,0x10
    2908:	0105d293          	srli	t0,a1,0x10

0000290c <.LBE677>:
                ee_u16 datpat=((ee_u16)(seed^i) & 0xf);
    290c:	01e2c3b3          	xor	t2,t0,t5
                ee_u16 dat=(datpat<<3) | (i&0x7); /* alternate between algorithms */
    2910:	00339913          	slli	s2,t2,0x3
    2914:	0072ff93          	andi	t6,t0,7
    2918:	07897e13          	andi	t3,s2,120

0000291c <.LBB678>:
        newitem->next=insert_point->next;
    291c:	0107a023          	sw	a6,0(a5)

00002920 <.LBE678>:
                ee_u16 dat=(datpat<<3) | (i&0x7); /* alternate between algorithms */
    2920:	01fe65b3          	or	a1,t3,t6

00002924 <.LBB679>:
        insert_point->next=newitem;
    2924:	c11c                	sw	a5,0(a0)

00002926 <.LBE679>:
                info.data16=(dat<<8) | dat;             /* fill the data with actual data and upper bits with rebuild value */
    2926:	00859813          	slli	a6,a1,0x8

0000292a <.LBB680>:
        newitem->info=*datablock;
    292a:	c3d8                	sw	a4,4(a5)

0000292c <.LBB617>:
                info.data16=(dat<<8) | dat;             /* fill the data with actual data and upper bits with rebuild value */
    292c:	00b862b3          	or	t0,a6,a1

00002930 <.LBB618>:
        to->data16=from->data16;
    2930:	00571023          	sh	t0,0(a4)
        to->idx=from->idx;
    2934:	00171123          	sh	ra,2(a4)

00002938 <.LBE618>:
        return newitem;
    2938:	883e                	mv	a6,a5
    293a:	8736                	mv	a4,a3
    293c:	87f6                	mv	a5,t4

0000293e <.L1202>:
        for (i=0; i<size; i++) {
    293e:	0885                	addi	a7,a7,1

00002940 <.LVL1042>:
    2940:	13130e63          	beq	t1,a7,2a7c <.L1166>

00002944 <.L1171>:
        if ((*memblock+1) >= memblock_end)
    2944:	00878e93          	addi	t4,a5,8
    2948:	128efa63          	bgeu	t4,s0,2a7c <.L1166>
        if ((*datablock+1) >= datablock_end)
    294c:	00470693          	addi	a3,a4,4
    2950:	0296ff63          	bgeu	a3,s1,298e <.L1168>
    2954:	01089393          	slli	t2,a7,0x10
    2958:	0103d913          	srli	s2,t2,0x10

0000295c <.LBE682>:
                ee_u16 datpat=((ee_u16)(seed^i) & 0xf);
    295c:	01e94e33          	xor	t3,s2,t5
                ee_u16 dat=(datpat<<3) | (i&0x7); /* alternate between algorithms */
    2960:	003e1f93          	slli	t6,t3,0x3
    2964:	00797293          	andi	t0,s2,7
    2968:	078ff593          	andi	a1,t6,120

0000296c <.LBB683>:
        newitem->next=insert_point->next;
    296c:	0107a023          	sw	a6,0(a5)

00002970 <.LBE683>:
                ee_u16 dat=(datpat<<3) | (i&0x7); /* alternate between algorithms */
    2970:	0055e3b3          	or	t2,a1,t0

00002974 <.LBB684>:
        insert_point->next=newitem;
    2974:	c11c                	sw	a5,0(a0)

00002976 <.LBE684>:
                info.data16=(dat<<8) | dat;             /* fill the data with actual data and upper bits with rebuild value */
    2976:	00839813          	slli	a6,t2,0x8

0000297a <.LBB685>:
        newitem->info=*datablock;
    297a:	c3d8                	sw	a4,4(a5)

0000297c <.LBB619>:
                info.data16=(dat<<8) | dat;             /* fill the data with actual data and upper bits with rebuild value */
    297c:	00786933          	or	s2,a6,t2

00002980 <.LBB620>:
        to->data16=from->data16;
    2980:	01271023          	sh	s2,0(a4)
        to->idx=from->idx;
    2984:	00171123          	sh	ra,2(a4)

00002988 <.LBE620>:
        return newitem;
    2988:	883e                	mv	a6,a5
    298a:	8736                	mv	a4,a3
    298c:	87f6                	mv	a5,t4

0000298e <.L1168>:
        if ((*memblock+1) >= memblock_end)
    298e:	00878e93          	addi	t4,a5,8

00002992 <.LBE687>:
        for (i=0; i<size; i++) {
    2992:	0885                	addi	a7,a7,1

00002994 <.LBB688>:
        if ((*memblock+1) >= memblock_end)
    2994:	0e8ef463          	bgeu	t4,s0,2a7c <.L1166>
        if ((*datablock+1) >= datablock_end)
    2998:	00470693          	addi	a3,a4,4
    299c:	0296ff63          	bgeu	a3,s1,29da <.L1205>
    29a0:	01089e13          	slli	t3,a7,0x10
    29a4:	010e5f93          	srli	t6,t3,0x10

000029a8 <.LBE688>:
                ee_u16 datpat=((ee_u16)(seed^i) & 0xf);
    29a8:	01efc5b3          	xor	a1,t6,t5
                ee_u16 dat=(datpat<<3) | (i&0x7); /* alternate between algorithms */
    29ac:	00359293          	slli	t0,a1,0x3
    29b0:	007ff913          	andi	s2,t6,7
    29b4:	0782f393          	andi	t2,t0,120

000029b8 <.LBB689>:
        newitem->next=insert_point->next;
    29b8:	0107a023          	sw	a6,0(a5)

000029bc <.LBE689>:
                ee_u16 dat=(datpat<<3) | (i&0x7); /* alternate between algorithms */
    29bc:	0123ee33          	or	t3,t2,s2

000029c0 <.LBB690>:
        insert_point->next=newitem;
    29c0:	c11c                	sw	a5,0(a0)

000029c2 <.LBE690>:
                info.data16=(dat<<8) | dat;             /* fill the data with actual data and upper bits with rebuild value */
    29c2:	008e1813          	slli	a6,t3,0x8

000029c6 <.LBB691>:
        newitem->info=*datablock;
    29c6:	c3d8                	sw	a4,4(a5)

000029c8 <.LBB621>:
                info.data16=(dat<<8) | dat;             /* fill the data with actual data and upper bits with rebuild value */
    29c8:	01c86fb3          	or	t6,a6,t3

000029cc <.LBB622>:
        to->data16=from->data16;
    29cc:	01f71023          	sh	t6,0(a4)
        to->idx=from->idx;
    29d0:	00171123          	sh	ra,2(a4)

000029d4 <.LBE622>:
        return newitem;
    29d4:	883e                	mv	a6,a5
    29d6:	8736                	mv	a4,a3
    29d8:	87f6                	mv	a5,t4

000029da <.L1205>:
        if ((*memblock+1) >= memblock_end)
    29da:	00878e93          	addi	t4,a5,8

000029de <.LBE693>:
        for (i=0; i<size; i++) {
    29de:	00188693          	addi	a3,a7,1

000029e2 <.LBB694>:
        if ((*memblock+1) >= memblock_end)
    29e2:	088efd63          	bgeu	t4,s0,2a7c <.L1166>
        if ((*datablock+1) >= datablock_end)
    29e6:	00470293          	addi	t0,a4,4
    29ea:	0292ff63          	bgeu	t0,s1,2a28 <.L1207>
    29ee:	01069593          	slli	a1,a3,0x10
    29f2:	0105d393          	srli	t2,a1,0x10

000029f6 <.LBE694>:
                ee_u16 datpat=((ee_u16)(seed^i) & 0xf);
    29f6:	01e3c933          	xor	s2,t2,t5
                ee_u16 dat=(datpat<<3) | (i&0x7); /* alternate between algorithms */
    29fa:	00391e13          	slli	t3,s2,0x3
    29fe:	0073ff93          	andi	t6,t2,7
    2a02:	078e7693          	andi	a3,t3,120

00002a06 <.LBB695>:
        newitem->next=insert_point->next;
    2a06:	0107a023          	sw	a6,0(a5)

00002a0a <.LBE695>:
                ee_u16 dat=(datpat<<3) | (i&0x7); /* alternate between algorithms */
    2a0a:	01f6e5b3          	or	a1,a3,t6

00002a0e <.LBB696>:
        insert_point->next=newitem;
    2a0e:	c11c                	sw	a5,0(a0)

00002a10 <.LBE696>:
                info.data16=(dat<<8) | dat;             /* fill the data with actual data and upper bits with rebuild value */
    2a10:	00859813          	slli	a6,a1,0x8

00002a14 <.LBB697>:
        newitem->info=*datablock;
    2a14:	c3d8                	sw	a4,4(a5)

00002a16 <.LBB623>:
                info.data16=(dat<<8) | dat;             /* fill the data with actual data and upper bits with rebuild value */
    2a16:	00b863b3          	or	t2,a6,a1

00002a1a <.LBB624>:
        to->data16=from->data16;
    2a1a:	00771023          	sh	t2,0(a4)
        to->idx=from->idx;
    2a1e:	00171123          	sh	ra,2(a4)

00002a22 <.LBE624>:
        return newitem;
    2a22:	883e                	mv	a6,a5
    2a24:	8716                	mv	a4,t0
    2a26:	87f6                	mv	a5,t4

00002a28 <.L1207>:
        if ((*memblock+1) >= memblock_end)
    2a28:	00878e93          	addi	t4,a5,8

00002a2c <.LBE699>:
        for (i=0; i<size; i++) {
    2a2c:	00288293          	addi	t0,a7,2

00002a30 <.LBB700>:
        if ((*memblock+1) >= memblock_end)
    2a30:	048ef663          	bgeu	t4,s0,2a7c <.L1166>
        if ((*datablock+1) >= datablock_end)
    2a34:	00470913          	addi	s2,a4,4
    2a38:	02997f63          	bgeu	s2,s1,2a76 <.L1209>
    2a3c:	01029e13          	slli	t3,t0,0x10
    2a40:	010e5693          	srli	a3,t3,0x10

00002a44 <.LBE700>:
                ee_u16 datpat=((ee_u16)(seed^i) & 0xf);
    2a44:	01e6cfb3          	xor	t6,a3,t5
                ee_u16 dat=(datpat<<3) | (i&0x7); /* alternate between algorithms */
    2a48:	003f9593          	slli	a1,t6,0x3
    2a4c:	0076f293          	andi	t0,a3,7
    2a50:	0785f393          	andi	t2,a1,120

00002a54 <.LBB701>:
        newitem->next=insert_point->next;
    2a54:	0107a023          	sw	a6,0(a5)

00002a58 <.LBE701>:
                ee_u16 dat=(datpat<<3) | (i&0x7); /* alternate between algorithms */
    2a58:	0053ee33          	or	t3,t2,t0

00002a5c <.LBB702>:
        insert_point->next=newitem;
    2a5c:	c11c                	sw	a5,0(a0)

00002a5e <.LBE702>:
                info.data16=(dat<<8) | dat;             /* fill the data with actual data and upper bits with rebuild value */
    2a5e:	008e1813          	slli	a6,t3,0x8

00002a62 <.LBB703>:
        newitem->info=*datablock;
    2a62:	c3d8                	sw	a4,4(a5)

00002a64 <.LBB625>:
                info.data16=(dat<<8) | dat;             /* fill the data with actual data and upper bits with rebuild value */
    2a64:	01c866b3          	or	a3,a6,t3

00002a68 <.LBB626>:
        to->data16=from->data16;
    2a68:	00d71023          	sh	a3,0(a4)
        to->idx=from->idx;
    2a6c:	00171123          	sh	ra,2(a4)

00002a70 <.LBE626>:
        return newitem;
    2a70:	883e                	mv	a6,a5
    2a72:	874a                	mv	a4,s2
    2a74:	87f6                	mv	a5,t4

00002a76 <.L1209>:
        for (i=0; i<size; i++) {
    2a76:	088d                	addi	a7,a7,3

00002a78 <.LVL1063>:
    2a78:	ed1316e3          	bne	t1,a7,2944 <.L1171>

00002a7c <.L1166>:
        while (finder->next!=NULL) {
    2a7c:	00082883          	lw	a7,0(a6)
    2a80:	06088063          	beqz	a7,2ae0 <.L1177>
                if (i<size/5) /* first 20% of the list in order */
    2a84:	4415                	li	s0,5

00002a86 <.LVL1065>:
    2a86:	028354b3          	divu	s1,t1,s0

00002a8a <.LBB716>:
                        finder->info->idx=0x3fff & (((i & 0x07) << 8) | pat); /* make sure the mixed items end up after the ones in sequence */
    2a8a:	6311                	lui	t1,0x4

00002a8c <.LBE716>:
                if (i<size/5) /* first 20% of the list in order */
    2a8c:	20000713          	li	a4,512

00002a90 <.LVL1068>:
    2a90:	4685                	li	a3,1

00002a92 <.LBB717>:
                        finder->info->idx=0x3fff & (((i & 0x07) << 8) | pat); /* make sure the mixed items end up after the ones in sequence */
    2a92:	fff30f13          	addi	t5,t1,-1 # 3fff <.LVL1564+0x1>
    2a96:	a821                	j	2aae <.L1178>

00002a98 <.L1227>:
                        finder->info->idx=i++;
    2a98:	00d59123          	sh	a3,2(a1)
        while (finder->next!=NULL) {
    2a9c:	01039793          	slli	a5,t2,0x10
    2aa0:	0107d713          	srli	a4,a5,0x10
    2aa4:	0685                	addi	a3,a3,1

00002aa6 <.LVL1070>:
    2aa6:	020e0d63          	beqz	t3,2ae0 <.L1177>

00002aaa <.L1176>:
                if (i<size/5) /* first 20% of the list in order */
    2aaa:	8846                	mv	a6,a7
    2aac:	88f2                	mv	a7,t3

00002aae <.L1178>:
                        ee_u16 pat=(ee_u16)(i++ ^ seed); /* get a pseudo random number */
    2aae:	00d640b3          	xor	ra,a2,a3
                        finder->info->idx=0x3fff & (((i & 0x07) << 8) | pat); /* make sure the mixed items end up after the ones in sequence */
    2ab2:	70077e93          	andi	t4,a4,1792
    2ab6:	01d0e933          	or	s2,ra,t4

00002aba <.LBE718>:
                        finder->info->idx=i++;
    2aba:	00482583          	lw	a1,4(a6)
        while (finder->next!=NULL) {
    2abe:	0008ae03          	lw	t3,0(a7)

00002ac2 <.LBB719>:
                        finder->info->idx=0x3fff & (((i & 0x07) << 8) | pat); /* make sure the mixed items end up after the ones in sequence */
    2ac2:	01e97fb3          	and	t6,s2,t5

00002ac6 <.LBE719>:
        while (finder->next!=NULL) {
    2ac6:	10070393          	addi	t2,a4,256
                if (i<size/5) /* first 20% of the list in order */
    2aca:	fc96e7e3          	bltu	a3,s1,2a98 <.L1227>
        while (finder->next!=NULL) {
    2ace:	01039813          	slli	a6,t2,0x10

00002ad2 <.LBB720>:
                        finder->info->idx=0x3fff & (((i & 0x07) << 8) | pat); /* make sure the mixed items end up after the ones in sequence */
    2ad2:	01f59123          	sh	t6,2(a1)

00002ad6 <.LBE720>:
        while (finder->next!=NULL) {
    2ad6:	0685                	addi	a3,a3,1

00002ad8 <.LVL1073>:
    2ad8:	01085713          	srli	a4,a6,0x10
    2adc:	fc0e17e3          	bnez	t3,2aaa <.L1176>

00002ae0 <.L1177>:
        list = core_list_mergesort(list,cmp_idx,NULL);
    2ae0:	daefd0ef          	jal	ra,8e <core_list_mergesort.constprop.0>

00002ae4 <.LVL1075>:
    2ae4:	84aa                	mv	s1,a0

00002ae6 <.LVL1076>:
        ee_printf("Initialized list:\n");
    2ae6:	6541                	lui	a0,0x10
    2ae8:	0f450513          	addi	a0,a0,244 # 100f4 <.LC0>
    2aec:	31f1                	jal	27b8 <whisperPrintf>

00002aee <.LVL1077>:
        while (finder) {
    2aee:	8926                	mv	s2,s1
    2af0:	6441                	lui	s0,0x10
    2af2:	0c048a63          	beqz	s1,2bc6 <.L1174>

00002af6 <.L1173>:
                ee_printf("[%04x,%04x]",finder->info->idx,(ee_u16)finder->info->data16);
    2af6:	00492883          	lw	a7,4(s2)
    2afa:	10840513          	addi	a0,s0,264 # 10108 <.LC2>
    2afe:	0008d603          	lhu	a2,0(a7)
    2b02:	00289583          	lh	a1,2(a7)
    2b06:	394d                	jal	27b8 <whisperPrintf>

00002b08 <.LVL1079>:
                finder=finder->next;
    2b08:	00092903          	lw	s2,0(s2)

00002b0c <.LVL1080>:
                ee_printf("[%04x,%04x]",finder->info->idx,(ee_u16)finder->info->data16);
    2b0c:	10840513          	addi	a0,s0,264
        while (finder) {
    2b10:	0a090b63          	beqz	s2,2bc6 <.L1174>
                ee_printf("[%04x,%04x]",finder->info->idx,(ee_u16)finder->info->data16);
    2b14:	00492303          	lw	t1,4(s2)
    2b18:	00035603          	lhu	a2,0(t1)
    2b1c:	00231583          	lh	a1,2(t1)
    2b20:	3961                	jal	27b8 <whisperPrintf>

00002b22 <.LVL1081>:
                finder=finder->next;
    2b22:	00092903          	lw	s2,0(s2)
                ee_printf("[%04x,%04x]",finder->info->idx,(ee_u16)finder->info->data16);
    2b26:	10840513          	addi	a0,s0,264
        while (finder) {
    2b2a:	08090e63          	beqz	s2,2bc6 <.L1174>
                ee_printf("[%04x,%04x]",finder->info->idx,(ee_u16)finder->info->data16);
    2b2e:	00492f03          	lw	t5,4(s2)
    2b32:	000f5603          	lhu	a2,0(t5)
    2b36:	002f1583          	lh	a1,2(t5)
    2b3a:	39bd                	jal	27b8 <whisperPrintf>

00002b3c <.LVL1082>:
                finder=finder->next;
    2b3c:	00092903          	lw	s2,0(s2)
                ee_printf("[%04x,%04x]",finder->info->idx,(ee_u16)finder->info->data16);
    2b40:	10840513          	addi	a0,s0,264
        while (finder) {
    2b44:	08090163          	beqz	s2,2bc6 <.L1174>
                ee_printf("[%04x,%04x]",finder->info->idx,(ee_u16)finder->info->data16);
    2b48:	00492083          	lw	ra,4(s2)
    2b4c:	0000d603          	lhu	a2,0(ra)
    2b50:	00209583          	lh	a1,2(ra)
    2b54:	3195                	jal	27b8 <whisperPrintf>

00002b56 <.LVL1083>:
                finder=finder->next;
    2b56:	00092903          	lw	s2,0(s2)
                ee_printf("[%04x,%04x]",finder->info->idx,(ee_u16)finder->info->data16);
    2b5a:	10840513          	addi	a0,s0,264
        while (finder) {
    2b5e:	06090463          	beqz	s2,2bc6 <.L1174>
                ee_printf("[%04x,%04x]",finder->info->idx,(ee_u16)finder->info->data16);
    2b62:	00492e83          	lw	t4,4(s2)
    2b66:	000ed603          	lhu	a2,0(t4)
    2b6a:	002e9583          	lh	a1,2(t4)
    2b6e:	31a9                	jal	27b8 <whisperPrintf>

00002b70 <.LVL1084>:
                finder=finder->next;
    2b70:	00092903          	lw	s2,0(s2)
                ee_printf("[%04x,%04x]",finder->info->idx,(ee_u16)finder->info->data16);
    2b74:	10840513          	addi	a0,s0,264
        while (finder) {
    2b78:	04090763          	beqz	s2,2bc6 <.L1174>
                ee_printf("[%04x,%04x]",finder->info->idx,(ee_u16)finder->info->data16);
    2b7c:	00492f83          	lw	t6,4(s2)
    2b80:	000fd603          	lhu	a2,0(t6) # ffff8000 <STACK+0xfffdf930>
    2b84:	002f9583          	lh	a1,2(t6)
    2b88:	3905                	jal	27b8 <whisperPrintf>

00002b8a <.LVL1085>:
                finder=finder->next;
    2b8a:	00092903          	lw	s2,0(s2)
                ee_printf("[%04x,%04x]",finder->info->idx,(ee_u16)finder->info->data16);
    2b8e:	10840513          	addi	a0,s0,264
        while (finder) {
    2b92:	02090a63          	beqz	s2,2bc6 <.L1174>
                ee_printf("[%04x,%04x]",finder->info->idx,(ee_u16)finder->info->data16);
    2b96:	00492383          	lw	t2,4(s2)
    2b9a:	0003d603          	lhu	a2,0(t2)
    2b9e:	00239583          	lh	a1,2(t2)
    2ba2:	3919                	jal	27b8 <whisperPrintf>

00002ba4 <.LVL1086>:
                finder=finder->next;
    2ba4:	00092903          	lw	s2,0(s2)
                ee_printf("[%04x,%04x]",finder->info->idx,(ee_u16)finder->info->data16);
    2ba8:	10840513          	addi	a0,s0,264
        while (finder) {
    2bac:	00090d63          	beqz	s2,2bc6 <.L1174>
                ee_printf("[%04x,%04x]",finder->info->idx,(ee_u16)finder->info->data16);
    2bb0:	00492283          	lw	t0,4(s2)
    2bb4:	0002d603          	lhu	a2,0(t0)
    2bb8:	00229583          	lh	a1,2(t0)
    2bbc:	3ef5                	jal	27b8 <whisperPrintf>

00002bbe <.LVL1087>:
                finder=finder->next;
    2bbe:	00092903          	lw	s2,0(s2)

00002bc2 <.LVL1088>:
        while (finder) {
    2bc2:	f2091ae3          	bnez	s2,2af6 <.L1173>

00002bc6 <.L1174>:
        ee_printf("\n");
    2bc6:	6641                	lui	a2,0x10
    2bc8:	41460513          	addi	a0,a2,1044 # 10414 <.LC1>
    2bcc:	36f5                	jal	27b8 <whisperPrintf>

00002bce <.LVL1090>:
}
    2bce:	40b2                	lw	ra,12(sp)
    2bd0:	4422                	lw	s0,8(sp)
    2bd2:	4902                	lw	s2,0(sp)
    2bd4:	8526                	mv	a0,s1
    2bd6:	4492                	lw	s1,4(sp)

00002bd8 <.LVL1091>:
    2bd8:	0141                	addi	sp,sp,16
    2bda:	8082                	ret

00002bdc <.L1181>:
        memblock++;
    2bdc:	87c2                	mv	a5,a6

00002bde <.LVL1093>:
        datablock++;
    2bde:	8746                	mv	a4,a7

00002be0 <.LBB721>:
    2be0:	4801                	li	a6,0
    2be2:	b19d                	j	2848 <.L1165>

00002be4 <printmat>:
void printmat(MATDAT *A, ee_u32 N, char *name) {
    2be4:	7179                	addi	sp,sp,-48
    2be6:	cc52                	sw	s4,24(sp)
    2be8:	c65e                	sw	s7,12(sp)
    2bea:	8a2e                	mv	s4,a1
    2bec:	8baa                	mv	s7,a0
        ee_printf("Matrix %s [%dx%d]:\n",name,N,N);
    2bee:	6541                	lui	a0,0x10

00002bf0 <.LVL1095>:
void printmat(MATDAT *A, ee_u32 N, char *name) {
    2bf0:	85b2                	mv	a1,a2

00002bf2 <.LVL1096>:
        ee_printf("Matrix %s [%dx%d]:\n",name,N,N);
    2bf2:	86d2                	mv	a3,s4
    2bf4:	8652                	mv	a2,s4

00002bf6 <.LVL1097>:
    2bf6:	11450513          	addi	a0,a0,276 # 10114 <.LC3>
void printmat(MATDAT *A, ee_u32 N, char *name) {
    2bfa:	d606                	sw	ra,44(sp)
    2bfc:	d422                	sw	s0,40(sp)
    2bfe:	d226                	sw	s1,36(sp)
    2c00:	d04a                	sw	s2,32(sp)
    2c02:	ce4e                	sw	s3,28(sp)
    2c04:	ca56                	sw	s5,20(sp)
    2c06:	c85a                	sw	s6,16(sp)
    2c08:	c462                	sw	s8,8(sp)
    2c0a:	c266                	sw	s9,4(sp)
        ee_printf("Matrix %s [%dx%d]:\n",name,N,N);
    2c0c:	3675                	jal	27b8 <whisperPrintf>

00002c0e <.LVL1098>:
        for (i=0; i<N; i++) {
    2c0e:	160a0963          	beqz	s4,2d80 <.L1228>
    2c12:	4a81                	li	s5,0
    2c14:	4b01                	li	s6,0
    2c16:	69c1                	lui	s3,0x10
    2c18:	6c41                	lui	s8,0x10
                                ee_printf(",");
    2c1a:	6941                	lui	s2,0x10

00002c1c <.L1229>:
                        if (j!=0)
    2c1c:	fffa0c93          	addi	s9,s4,-1
    2c20:	001a9413          	slli	s0,s5,0x1
    2c24:	007cfc93          	andi	s9,s9,7
    2c28:	945e                	add	s0,s0,s7
                for (j=0; j<N; j++) {
    2c2a:	4481                	li	s1,0
    2c2c:	120c8563          	beqz	s9,2d56 <.L1232>
                        ee_printf("%d",A[i*N+j]);
    2c30:	00041583          	lh	a1,0(s0)
    2c34:	12c98513          	addi	a0,s3,300 # 1012c <.LC5>
                                ee_printf(",");
    2c38:	4485                	li	s1,1
                        ee_printf("%d",A[i*N+j]);
    2c3a:	3ebd                	jal	27b8 <whisperPrintf>

00002c3c <.LVL1100>:
                                ee_printf(",");
    2c3c:	12890513          	addi	a0,s2,296 # 10128 <.LC4>
                for (j=0; j<N; j++) {
    2c40:	0409                	addi	s0,s0,2
                                ee_printf(",");
    2c42:	3e9d                	jal	27b8 <whisperPrintf>

00002c44 <.LVL1101>:
    2c44:	109c8963          	beq	s9,s1,2d56 <.L1232>
    2c48:	4789                	li	a5,2
    2c4a:	08fc8063          	beq	s9,a5,2cca <.L1255>
    2c4e:	408d                	li	ra,3
    2c50:	061c8363          	beq	s9,ra,2cb6 <.L1256>
    2c54:	4291                	li	t0,4
    2c56:	045c8663          	beq	s9,t0,2ca2 <.L1257>
    2c5a:	4315                	li	t1,5
    2c5c:	026c8963          	beq	s9,t1,2c8e <.L1258>
    2c60:	4399                	li	t2,6
    2c62:	007c8c63          	beq	s9,t2,2c7a <.L1259>
                        ee_printf("%d",A[i*N+j]);
    2c66:	00041583          	lh	a1,0(s0)
    2c6a:	12c98513          	addi	a0,s3,300
                for (j=0; j<N; j++) {
    2c6e:	0409                	addi	s0,s0,2
                        ee_printf("%d",A[i*N+j]);
    2c70:	36a1                	jal	27b8 <whisperPrintf>

00002c72 <.LVL1102>:
                                ee_printf(",");
    2c72:	12890513          	addi	a0,s2,296
    2c76:	3689                	jal	27b8 <whisperPrintf>

00002c78 <.LVL1103>:
    2c78:	4489                	li	s1,2

00002c7a <.L1259>:
                        ee_printf("%d",A[i*N+j]);
    2c7a:	00041583          	lh	a1,0(s0)
    2c7e:	12c98513          	addi	a0,s3,300
                for (j=0; j<N; j++) {
    2c82:	0485                	addi	s1,s1,1
                        ee_printf("%d",A[i*N+j]);
    2c84:	3e15                	jal	27b8 <whisperPrintf>

00002c86 <.LVL1104>:
                                ee_printf(",");
    2c86:	12890513          	addi	a0,s2,296
                for (j=0; j<N; j++) {
    2c8a:	0409                	addi	s0,s0,2
                                ee_printf(",");
    2c8c:	3635                	jal	27b8 <whisperPrintf>

00002c8e <.L1258>:
                        ee_printf("%d",A[i*N+j]);
    2c8e:	00041583          	lh	a1,0(s0)
    2c92:	12c98513          	addi	a0,s3,300
                for (j=0; j<N; j++) {
    2c96:	0485                	addi	s1,s1,1
                        ee_printf("%d",A[i*N+j]);
    2c98:	3605                	jal	27b8 <whisperPrintf>

00002c9a <.LVL1106>:
                                ee_printf(",");
    2c9a:	12890513          	addi	a0,s2,296
                for (j=0; j<N; j++) {
    2c9e:	0409                	addi	s0,s0,2
                                ee_printf(",");
    2ca0:	3e21                	jal	27b8 <whisperPrintf>

00002ca2 <.L1257>:
                        ee_printf("%d",A[i*N+j]);
    2ca2:	00041583          	lh	a1,0(s0)
    2ca6:	12c98513          	addi	a0,s3,300
                for (j=0; j<N; j++) {
    2caa:	0485                	addi	s1,s1,1
                        ee_printf("%d",A[i*N+j]);
    2cac:	3631                	jal	27b8 <whisperPrintf>

00002cae <.LVL1108>:
                                ee_printf(",");
    2cae:	12890513          	addi	a0,s2,296
                for (j=0; j<N; j++) {
    2cb2:	0409                	addi	s0,s0,2
                                ee_printf(",");
    2cb4:	3611                	jal	27b8 <whisperPrintf>

00002cb6 <.L1256>:
                        ee_printf("%d",A[i*N+j]);
    2cb6:	00041583          	lh	a1,0(s0)
    2cba:	12c98513          	addi	a0,s3,300
                for (j=0; j<N; j++) {
    2cbe:	0485                	addi	s1,s1,1
                        ee_printf("%d",A[i*N+j]);
    2cc0:	3ce5                	jal	27b8 <whisperPrintf>

00002cc2 <.LVL1110>:
                                ee_printf(",");
    2cc2:	12890513          	addi	a0,s2,296
                for (j=0; j<N; j++) {
    2cc6:	0409                	addi	s0,s0,2
                                ee_printf(",");
    2cc8:	3cc5                	jal	27b8 <whisperPrintf>

00002cca <.L1255>:
                        ee_printf("%d",A[i*N+j]);
    2cca:	00041583          	lh	a1,0(s0)
    2cce:	12c98513          	addi	a0,s3,300
                for (j=0; j<N; j++) {
    2cd2:	0485                	addi	s1,s1,1
                        ee_printf("%d",A[i*N+j]);
    2cd4:	34d5                	jal	27b8 <whisperPrintf>

00002cd6 <.LVL1112>:
                                ee_printf(",");
    2cd6:	12890513          	addi	a0,s2,296
                for (j=0; j<N; j++) {
    2cda:	0409                	addi	s0,s0,2
                                ee_printf(",");
    2cdc:	3cf1                	jal	27b8 <whisperPrintf>

00002cde <.LVL1113>:
    2cde:	a8a5                	j	2d56 <.L1232>

00002ce0 <.L1231>:
    2ce0:	3ce1                	jal	27b8 <whisperPrintf>

00002ce2 <.LVL1115>:
                        ee_printf("%d",A[i*N+j]);
    2ce2:	00241583          	lh	a1,2(s0)
    2ce6:	12c98513          	addi	a0,s3,300
                for (j=0; j<N; j++) {
    2cea:	0441                	addi	s0,s0,16
                        ee_printf("%d",A[i*N+j]);
    2cec:	34f1                	jal	27b8 <whisperPrintf>

00002cee <.LVL1116>:
                                ee_printf(",");
    2cee:	12890513          	addi	a0,s2,296
    2cf2:	34d9                	jal	27b8 <whisperPrintf>

00002cf4 <.LVL1117>:
                        ee_printf("%d",A[i*N+j]);
    2cf4:	ff441583          	lh	a1,-12(s0)
    2cf8:	12c98513          	addi	a0,s3,300
                                ee_printf(",");
    2cfc:	04a1                	addi	s1,s1,8

00002cfe <.LVL1118>:
                        ee_printf("%d",A[i*N+j]);
    2cfe:	3c6d                	jal	27b8 <whisperPrintf>

00002d00 <.LVL1119>:
                                ee_printf(",");
    2d00:	12890513          	addi	a0,s2,296
    2d04:	3c55                	jal	27b8 <whisperPrintf>

00002d06 <.LVL1120>:
                        ee_printf("%d",A[i*N+j]);
    2d06:	ff641583          	lh	a1,-10(s0)
    2d0a:	12c98513          	addi	a0,s3,300
    2d0e:	346d                	jal	27b8 <whisperPrintf>

00002d10 <.LVL1121>:
                                ee_printf(",");
    2d10:	12890513          	addi	a0,s2,296
    2d14:	3455                	jal	27b8 <whisperPrintf>

00002d16 <.LVL1122>:
                        ee_printf("%d",A[i*N+j]);
    2d16:	ff841583          	lh	a1,-8(s0)
    2d1a:	12c98513          	addi	a0,s3,300
    2d1e:	3c69                	jal	27b8 <whisperPrintf>

00002d20 <.LVL1123>:
                                ee_printf(",");
    2d20:	12890513          	addi	a0,s2,296
    2d24:	3c51                	jal	27b8 <whisperPrintf>

00002d26 <.LVL1124>:
                        ee_printf("%d",A[i*N+j]);
    2d26:	ffa41583          	lh	a1,-6(s0)
    2d2a:	12c98513          	addi	a0,s3,300
    2d2e:	3469                	jal	27b8 <whisperPrintf>

00002d30 <.LVL1125>:
                                ee_printf(",");
    2d30:	12890513          	addi	a0,s2,296
    2d34:	3451                	jal	27b8 <whisperPrintf>

00002d36 <.LVL1126>:
                        ee_printf("%d",A[i*N+j]);
    2d36:	ffc41583          	lh	a1,-4(s0)
    2d3a:	12c98513          	addi	a0,s3,300
    2d3e:	3cad                	jal	27b8 <whisperPrintf>

00002d40 <.LVL1127>:
                                ee_printf(",");
    2d40:	12890513          	addi	a0,s2,296
    2d44:	3c95                	jal	27b8 <whisperPrintf>

00002d46 <.LVL1128>:
                        ee_printf("%d",A[i*N+j]);
    2d46:	ffe41583          	lh	a1,-2(s0)
    2d4a:	12c98513          	addi	a0,s3,300
    2d4e:	34ad                	jal	27b8 <whisperPrintf>

00002d50 <.LVL1129>:
                                ee_printf(",");
    2d50:	12890513          	addi	a0,s2,296
    2d54:	3495                	jal	27b8 <whisperPrintf>

00002d56 <.L1232>:
                        ee_printf("%d",A[i*N+j]);
    2d56:	00041583          	lh	a1,0(s0)
    2d5a:	12c98513          	addi	a0,s3,300
    2d5e:	3ca9                	jal	27b8 <whisperPrintf>

00002d60 <.LVL1131>:
                for (j=0; j<N; j++) {
    2d60:	00148593          	addi	a1,s1,1

00002d64 <.LVL1132>:
                                ee_printf(",");
    2d64:	12890513          	addi	a0,s2,296
                for (j=0; j<N; j++) {
    2d68:	f6ba1ce3          	bne	s4,a1,2ce0 <.L1231>
                ee_printf("\n");
    2d6c:	414c0513          	addi	a0,s8,1044 # 10414 <.LC1>
    2d70:	34a1                	jal	27b8 <whisperPrintf>

00002d72 <.LVL1133>:
        for (i=0; i<N; i++) {
    2d72:	9ad2                	add	s5,s5,s4
    2d74:	001b0613          	addi	a2,s6,1

00002d78 <.LVL1134>:
    2d78:	01648463          	beq	s1,s6,2d80 <.L1228>
    2d7c:	8b32                	mv	s6,a2
    2d7e:	bd79                	j	2c1c <.L1229>

00002d80 <.L1228>:
}
    2d80:	50b2                	lw	ra,44(sp)
    2d82:	5422                	lw	s0,40(sp)
    2d84:	5492                	lw	s1,36(sp)
    2d86:	5902                	lw	s2,32(sp)
    2d88:	49f2                	lw	s3,28(sp)
    2d8a:	4a62                	lw	s4,24(sp)

00002d8c <.LVL1136>:
    2d8c:	4ad2                	lw	s5,20(sp)
    2d8e:	4b42                	lw	s6,16(sp)
    2d90:	4bb2                	lw	s7,12(sp)

00002d92 <.LVL1137>:
    2d92:	4c22                	lw	s8,8(sp)
    2d94:	4c92                	lw	s9,4(sp)
    2d96:	6145                	addi	sp,sp,48
    2d98:	8082                	ret

00002d9a <printmatC>:
void printmatC(MATRES *C, ee_u32 N, char *name) {
    2d9a:	7179                	addi	sp,sp,-48
    2d9c:	cc52                	sw	s4,24(sp)
    2d9e:	c65e                	sw	s7,12(sp)
    2da0:	8a2e                	mv	s4,a1
    2da2:	8baa                	mv	s7,a0
        ee_printf("Matrix %s [%dx%d]:\n",name,N,N);
    2da4:	6541                	lui	a0,0x10

00002da6 <.LVL1139>:
void printmatC(MATRES *C, ee_u32 N, char *name) {
    2da6:	85b2                	mv	a1,a2

00002da8 <.LVL1140>:
        ee_printf("Matrix %s [%dx%d]:\n",name,N,N);
    2da8:	86d2                	mv	a3,s4
    2daa:	8652                	mv	a2,s4

00002dac <.LVL1141>:
    2dac:	11450513          	addi	a0,a0,276 # 10114 <.LC3>
void printmatC(MATRES *C, ee_u32 N, char *name) {
    2db0:	d606                	sw	ra,44(sp)
    2db2:	d422                	sw	s0,40(sp)
    2db4:	d226                	sw	s1,36(sp)
    2db6:	d04a                	sw	s2,32(sp)
    2db8:	ce4e                	sw	s3,28(sp)
    2dba:	ca56                	sw	s5,20(sp)
    2dbc:	c85a                	sw	s6,16(sp)
    2dbe:	c462                	sw	s8,8(sp)
    2dc0:	c266                	sw	s9,4(sp)
        ee_printf("Matrix %s [%dx%d]:\n",name,N,N);
    2dc2:	3add                	jal	27b8 <whisperPrintf>

00002dc4 <.LVL1142>:
        for (i=0; i<N; i++) {
    2dc4:	160a0163          	beqz	s4,2f26 <.L1263>
    2dc8:	4a81                	li	s5,0
    2dca:	4b01                	li	s6,0
    2dcc:	69c1                	lui	s3,0x10
    2dce:	6c41                	lui	s8,0x10
                                ee_printf(",");
    2dd0:	6941                	lui	s2,0x10

00002dd2 <.L1264>:
                        if (j!=0)
    2dd2:	fffa0c93          	addi	s9,s4,-1
    2dd6:	002a9413          	slli	s0,s5,0x2
    2dda:	007cfc93          	andi	s9,s9,7
    2dde:	945e                	add	s0,s0,s7
                for (j=0; j<N; j++) {
    2de0:	4481                	li	s1,0
    2de2:	100c8e63          	beqz	s9,2efe <.L1267>
                        ee_printf("%d",C[i*N+j]);
    2de6:	400c                	lw	a1,0(s0)
    2de8:	12c98513          	addi	a0,s3,300 # 1012c <.LC5>
                                ee_printf(",");
    2dec:	4485                	li	s1,1
                        ee_printf("%d",C[i*N+j]);
    2dee:	32e9                	jal	27b8 <whisperPrintf>

00002df0 <.LVL1144>:
                                ee_printf(",");
    2df0:	12890513          	addi	a0,s2,296 # 10128 <.LC4>
                for (j=0; j<N; j++) {
    2df4:	0411                	addi	s0,s0,4
                                ee_printf(",");
    2df6:	32c9                	jal	27b8 <whisperPrintf>

00002df8 <.LVL1145>:
    2df8:	109c8363          	beq	s9,s1,2efe <.L1267>
    2dfc:	4789                	li	a5,2
    2dfe:	06fc8b63          	beq	s9,a5,2e74 <.L1290>
    2e02:	408d                	li	ra,3
    2e04:	041c8f63          	beq	s9,ra,2e62 <.L1291>
    2e08:	4291                	li	t0,4
    2e0a:	045c8363          	beq	s9,t0,2e50 <.L1292>
    2e0e:	4315                	li	t1,5
    2e10:	026c8763          	beq	s9,t1,2e3e <.L1293>
    2e14:	4399                	li	t2,6
    2e16:	007c8b63          	beq	s9,t2,2e2c <.L1294>
                        ee_printf("%d",C[i*N+j]);
    2e1a:	400c                	lw	a1,0(s0)
    2e1c:	12c98513          	addi	a0,s3,300
                for (j=0; j<N; j++) {
    2e20:	0411                	addi	s0,s0,4
                        ee_printf("%d",C[i*N+j]);
    2e22:	3a59                	jal	27b8 <whisperPrintf>

00002e24 <.LVL1146>:
                                ee_printf(",");
    2e24:	12890513          	addi	a0,s2,296
    2e28:	3a41                	jal	27b8 <whisperPrintf>

00002e2a <.LVL1147>:
    2e2a:	4489                	li	s1,2

00002e2c <.L1294>:
                        ee_printf("%d",C[i*N+j]);
    2e2c:	400c                	lw	a1,0(s0)
    2e2e:	12c98513          	addi	a0,s3,300
                for (j=0; j<N; j++) {
    2e32:	0485                	addi	s1,s1,1
                        ee_printf("%d",C[i*N+j]);
    2e34:	3251                	jal	27b8 <whisperPrintf>

00002e36 <.LVL1148>:
                                ee_printf(",");
    2e36:	12890513          	addi	a0,s2,296
                for (j=0; j<N; j++) {
    2e3a:	0411                	addi	s0,s0,4
                                ee_printf(",");
    2e3c:	3ab5                	jal	27b8 <whisperPrintf>

00002e3e <.L1293>:
                        ee_printf("%d",C[i*N+j]);
    2e3e:	400c                	lw	a1,0(s0)
    2e40:	12c98513          	addi	a0,s3,300
                for (j=0; j<N; j++) {
    2e44:	0485                	addi	s1,s1,1
                        ee_printf("%d",C[i*N+j]);
    2e46:	3a8d                	jal	27b8 <whisperPrintf>

00002e48 <.LVL1150>:
                                ee_printf(",");
    2e48:	12890513          	addi	a0,s2,296
                for (j=0; j<N; j++) {
    2e4c:	0411                	addi	s0,s0,4
                                ee_printf(",");
    2e4e:	32ad                	jal	27b8 <whisperPrintf>

00002e50 <.L1292>:
                        ee_printf("%d",C[i*N+j]);
    2e50:	400c                	lw	a1,0(s0)
    2e52:	12c98513          	addi	a0,s3,300
                for (j=0; j<N; j++) {
    2e56:	0485                	addi	s1,s1,1
                        ee_printf("%d",C[i*N+j]);
    2e58:	3285                	jal	27b8 <whisperPrintf>

00002e5a <.LVL1152>:
                                ee_printf(",");
    2e5a:	12890513          	addi	a0,s2,296
                for (j=0; j<N; j++) {
    2e5e:	0411                	addi	s0,s0,4
                                ee_printf(",");
    2e60:	3aa1                	jal	27b8 <whisperPrintf>

00002e62 <.L1291>:
                        ee_printf("%d",C[i*N+j]);
    2e62:	400c                	lw	a1,0(s0)
    2e64:	12c98513          	addi	a0,s3,300
                for (j=0; j<N; j++) {
    2e68:	0485                	addi	s1,s1,1
                        ee_printf("%d",C[i*N+j]);
    2e6a:	32b9                	jal	27b8 <whisperPrintf>

00002e6c <.LVL1154>:
                                ee_printf(",");
    2e6c:	12890513          	addi	a0,s2,296
                for (j=0; j<N; j++) {
    2e70:	0411                	addi	s0,s0,4
                                ee_printf(",");
    2e72:	3299                	jal	27b8 <whisperPrintf>

00002e74 <.L1290>:
                        ee_printf("%d",C[i*N+j]);
    2e74:	400c                	lw	a1,0(s0)
    2e76:	12c98513          	addi	a0,s3,300
                for (j=0; j<N; j++) {
    2e7a:	0485                	addi	s1,s1,1
                        ee_printf("%d",C[i*N+j]);
    2e7c:	3a35                	jal	27b8 <whisperPrintf>

00002e7e <.LVL1156>:
                                ee_printf(",");
    2e7e:	12890513          	addi	a0,s2,296
                for (j=0; j<N; j++) {
    2e82:	0411                	addi	s0,s0,4
                                ee_printf(",");
    2e84:	3a15                	jal	27b8 <whisperPrintf>

00002e86 <.LVL1157>:
    2e86:	a8a5                	j	2efe <.L1267>

00002e88 <.L1266>:
    2e88:	3a05                	jal	27b8 <whisperPrintf>

00002e8a <.LVL1159>:
                        ee_printf("%d",C[i*N+j]);
    2e8a:	404c                	lw	a1,4(s0)
    2e8c:	12c98513          	addi	a0,s3,300
                for (j=0; j<N; j++) {
    2e90:	02040413          	addi	s0,s0,32
                        ee_printf("%d",C[i*N+j]);
    2e94:	3215                	jal	27b8 <whisperPrintf>

00002e96 <.LVL1160>:
                                ee_printf(",");
    2e96:	12890513          	addi	a0,s2,296
    2e9a:	3a39                	jal	27b8 <whisperPrintf>

00002e9c <.LVL1161>:
                        ee_printf("%d",C[i*N+j]);
    2e9c:	fe842583          	lw	a1,-24(s0)
    2ea0:	12c98513          	addi	a0,s3,300
                                ee_printf(",");
    2ea4:	04a1                	addi	s1,s1,8

00002ea6 <.LVL1162>:
                        ee_printf("%d",C[i*N+j]);
    2ea6:	3a09                	jal	27b8 <whisperPrintf>

00002ea8 <.LVL1163>:
                                ee_printf(",");
    2ea8:	12890513          	addi	a0,s2,296
    2eac:	3231                	jal	27b8 <whisperPrintf>

00002eae <.LVL1164>:
                        ee_printf("%d",C[i*N+j]);
    2eae:	fec42583          	lw	a1,-20(s0)
    2eb2:	12c98513          	addi	a0,s3,300
    2eb6:	3209                	jal	27b8 <whisperPrintf>

00002eb8 <.LVL1165>:
                                ee_printf(",");
    2eb8:	12890513          	addi	a0,s2,296
    2ebc:	38f5                	jal	27b8 <whisperPrintf>

00002ebe <.LVL1166>:
                        ee_printf("%d",C[i*N+j]);
    2ebe:	ff042583          	lw	a1,-16(s0)
    2ec2:	12c98513          	addi	a0,s3,300
    2ec6:	38cd                	jal	27b8 <whisperPrintf>

00002ec8 <.LVL1167>:
                                ee_printf(",");
    2ec8:	12890513          	addi	a0,s2,296
    2ecc:	30f5                	jal	27b8 <whisperPrintf>

00002ece <.LVL1168>:
                        ee_printf("%d",C[i*N+j]);
    2ece:	ff442583          	lw	a1,-12(s0)
    2ed2:	12c98513          	addi	a0,s3,300
    2ed6:	30cd                	jal	27b8 <whisperPrintf>

00002ed8 <.LVL1169>:
                                ee_printf(",");
    2ed8:	12890513          	addi	a0,s2,296
    2edc:	38f1                	jal	27b8 <whisperPrintf>

00002ede <.LVL1170>:
                        ee_printf("%d",C[i*N+j]);
    2ede:	ff842583          	lw	a1,-8(s0)
    2ee2:	12c98513          	addi	a0,s3,300
    2ee6:	38c9                	jal	27b8 <whisperPrintf>

00002ee8 <.LVL1171>:
                                ee_printf(",");
    2ee8:	12890513          	addi	a0,s2,296
    2eec:	30f1                	jal	27b8 <whisperPrintf>

00002eee <.LVL1172>:
                        ee_printf("%d",C[i*N+j]);
    2eee:	ffc42583          	lw	a1,-4(s0)
    2ef2:	12c98513          	addi	a0,s3,300
    2ef6:	30c9                	jal	27b8 <whisperPrintf>

00002ef8 <.LVL1173>:
                                ee_printf(",");
    2ef8:	12890513          	addi	a0,s2,296
    2efc:	3875                	jal	27b8 <whisperPrintf>

00002efe <.L1267>:
                        ee_printf("%d",C[i*N+j]);
    2efe:	400c                	lw	a1,0(s0)
    2f00:	12c98513          	addi	a0,s3,300
    2f04:	3855                	jal	27b8 <whisperPrintf>

00002f06 <.LVL1175>:
                for (j=0; j<N; j++) {
    2f06:	00148593          	addi	a1,s1,1

00002f0a <.LVL1176>:
                                ee_printf(",");
    2f0a:	12890513          	addi	a0,s2,296
                for (j=0; j<N; j++) {
    2f0e:	f6ba1de3          	bne	s4,a1,2e88 <.L1266>
                ee_printf("\n");
    2f12:	414c0513          	addi	a0,s8,1044 # 10414 <.LC1>
    2f16:	304d                	jal	27b8 <whisperPrintf>

00002f18 <.LVL1177>:
        for (i=0; i<N; i++) {
    2f18:	9ad2                	add	s5,s5,s4
    2f1a:	001b0613          	addi	a2,s6,1

00002f1e <.LVL1178>:
    2f1e:	01648463          	beq	s1,s6,2f26 <.L1263>
    2f22:	8b32                	mv	s6,a2
    2f24:	b57d                	j	2dd2 <.L1264>

00002f26 <.L1263>:
}
    2f26:	50b2                	lw	ra,44(sp)
    2f28:	5422                	lw	s0,40(sp)
    2f2a:	5492                	lw	s1,36(sp)
    2f2c:	5902                	lw	s2,32(sp)
    2f2e:	49f2                	lw	s3,28(sp)
    2f30:	4a62                	lw	s4,24(sp)

00002f32 <.LVL1180>:
    2f32:	4ad2                	lw	s5,20(sp)
    2f34:	4b42                	lw	s6,16(sp)
    2f36:	4bb2                	lw	s7,12(sp)

00002f38 <.LVL1181>:
    2f38:	4c22                	lw	s8,8(sp)
    2f3a:	4c92                	lw	s9,4(sp)
    2f3c:	6145                	addi	sp,sp,48
    2f3e:	8082                	ret

00002f40 <core_bench_state>:
{
    2f40:	7119                	addi	sp,sp,-128
    2f42:	d6ce                	sw	s3,108(sp)
    2f44:	d4d2                	sw	s4,104(sp)
    2f46:	d2d6                	sw	s5,100(sp)
    2f48:	d0da                	sw	s6,96(sp)
    2f4a:	8ab6                	mv	s5,a3
    2f4c:	8b32                	mv	s6,a2
    2f4e:	8a3a                	mv	s4,a4
    2f50:	89aa                	mv	s3,a0
        ee_printf("State Bench: %d,%d,%d,%04x\n",seed1,seed2,step,crc);
    2f52:	6541                	lui	a0,0x10

00002f54 <.LVL1183>:
{
    2f54:	d8ca                	sw	s2,112(sp)
        ee_printf("State Bench: %d,%d,%d,%04x\n",seed1,seed2,step,crc);
    2f56:	873e                	mv	a4,a5

00002f58 <.LVL1184>:
{
    2f58:	892e                	mv	s2,a1
        ee_printf("State Bench: %d,%d,%d,%04x\n",seed1,seed2,step,crc);
    2f5a:	86d2                	mv	a3,s4

00002f5c <.LVL1185>:
    2f5c:	8656                	mv	a2,s5

00002f5e <.LVL1186>:
    2f5e:	85da                	mv	a1,s6

00002f60 <.LVL1187>:
    2f60:	13050513          	addi	a0,a0,304 # 10130 <.LC6>
{
    2f64:	dca2                	sw	s0,120(sp)
    2f66:	daa6                	sw	s1,116(sp)
    2f68:	cede                	sw	s7,92(sp)
    2f6a:	843e                	mv	s0,a5
    2f6c:	de86                	sw	ra,124(sp)
        ee_u8 *p=memblock;
    2f6e:	c64a                	sw	s2,12(sp)
        ee_printf("State Bench: %d,%d,%d,%04x\n",seed1,seed2,step,crc);
    2f70:	30a1                	jal	27b8 <whisperPrintf>

00002f72 <.LVL1188>:
        while (*p!=0) {
    2f72:	47b2                	lw	a5,12(sp)
                final_counts[i]=track_counts[i]=0;
    2f74:	d802                	sw	zero,48(sp)
    2f76:	da02                	sw	zero,52(sp)
    2f78:	dc02                	sw	zero,56(sp)
    2f7a:	de02                	sw	zero,60(sp)
    2f7c:	c082                	sw	zero,64(sp)
    2f7e:	c282                	sw	zero,68(sp)
    2f80:	c482                	sw	zero,72(sp)
    2f82:	c682                	sw	zero,76(sp)
        while (*p!=0) {
    2f84:	0007c283          	lbu	t0,0(a5)
                final_counts[i]=track_counts[i]=0;
    2f88:	c802                	sw	zero,16(sp)
    2f8a:	ca02                	sw	zero,20(sp)
    2f8c:	cc02                	sw	zero,24(sp)
    2f8e:	ce02                	sw	zero,28(sp)
    2f90:	d002                	sw	zero,32(sp)
    2f92:	d202                	sw	zero,36(sp)
    2f94:	d402                	sw	zero,40(sp)
    2f96:	d602                	sw	zero,44(sp)

00002f98 <.LVL1189>:
    2f98:	1804                	addi	s1,sp,48
    2f9a:	6bc1                	lui	s7,0x10
        while (*p!=0) {
    2f9c:	0c028763          	beqz	t0,306a <.L1302>

00002fa0 <.L1299>:
                enum CORE_STATE fstate=core_state_transition(&p,track_counts);
    2fa0:	85a6                	mv	a1,s1
    2fa2:	0068                	addi	a0,sp,12
    2fa4:	97efe0ef          	jal	ra,1122 <core_state_transition>

00002fa8 <.LVL1190>:
                final_counts[fstate]++;
    2fa8:	00251313          	slli	t1,a0,0x2
    2fac:	0898                	addi	a4,sp,80
    2fae:	006703b3          	add	t2,a4,t1
    2fb2:	fc03a603          	lw	a2,-64(t2)
                enum CORE_STATE fstate=core_state_transition(&p,track_counts);
    2fb6:	85aa                	mv	a1,a0

00002fb8 <.LVL1191>:
        ee_printf("%d,",fstate);
    2fb8:	14cb8513          	addi	a0,s7,332 # 1014c <.LC7>

00002fbc <.LVL1192>:
                final_counts[fstate]++;
    2fbc:	00160693          	addi	a3,a2,1
    2fc0:	fcd3a023          	sw	a3,-64(t2)
        ee_printf("%d,",fstate);
    2fc4:	ff4ff0ef          	jal	ra,27b8 <whisperPrintf>

00002fc8 <.LBB761>:
        while (*p!=0) {
    2fc8:	4832                	lw	a6,12(sp)

00002fca <.LBB762>:
                enum CORE_STATE fstate=core_state_transition(&p,track_counts);
    2fca:	85a6                	mv	a1,s1
    2fcc:	0068                	addi	a0,sp,12

00002fce <.LBE762>:
        while (*p!=0) {
    2fce:	00084883          	lbu	a7,0(a6)
    2fd2:	08088c63          	beqz	a7,306a <.L1302>

00002fd6 <.LBB763>:
                enum CORE_STATE fstate=core_state_transition(&p,track_counts);
    2fd6:	94cfe0ef          	jal	ra,1122 <core_state_transition>

00002fda <.LVL1194>:
                final_counts[fstate]++;
    2fda:	00251e13          	slli	t3,a0,0x2
    2fde:	05010e93          	addi	t4,sp,80
    2fe2:	01ce8f33          	add	t5,t4,t3
    2fe6:	fc0f2f83          	lw	t6,-64(t5)
                enum CORE_STATE fstate=core_state_transition(&p,track_counts);
    2fea:	85aa                	mv	a1,a0
        ee_printf("%d,",fstate);
    2fec:	14cb8513          	addi	a0,s7,332
                final_counts[fstate]++;
    2ff0:	001f8793          	addi	a5,t6,1
    2ff4:	fcff2023          	sw	a5,-64(t5)
        ee_printf("%d,",fstate);
    2ff8:	fc0ff0ef          	jal	ra,27b8 <whisperPrintf>

00002ffc <.LBB764>:
        while (*p!=0) {
    2ffc:	42b2                	lw	t0,12(sp)

00002ffe <.LBB765>:
                enum CORE_STATE fstate=core_state_transition(&p,track_counts);
    2ffe:	85a6                	mv	a1,s1
    3000:	0068                	addi	a0,sp,12

00003002 <.LBE765>:
        while (*p!=0) {
    3002:	0002c303          	lbu	t1,0(t0)
    3006:	06030263          	beqz	t1,306a <.L1302>

0000300a <.LBB766>:
                enum CORE_STATE fstate=core_state_transition(&p,track_counts);
    300a:	918fe0ef          	jal	ra,1122 <core_state_transition>

0000300e <.LVL1196>:
    300e:	85aa                	mv	a1,a0
                final_counts[fstate]++;
    3010:	0898                	addi	a4,sp,80
    3012:	050a                	slli	a0,a0,0x2
    3014:	00a703b3          	add	t2,a4,a0
    3018:	fc03a603          	lw	a2,-64(t2)
        ee_printf("%d,",fstate);
    301c:	14cb8513          	addi	a0,s7,332
                final_counts[fstate]++;
    3020:	00160693          	addi	a3,a2,1
    3024:	fcd3a023          	sw	a3,-64(t2)
        ee_printf("%d,",fstate);
    3028:	f90ff0ef          	jal	ra,27b8 <whisperPrintf>

0000302c <.LBB767>:
        while (*p!=0) {
    302c:	4832                	lw	a6,12(sp)

0000302e <.LBB768>:
                enum CORE_STATE fstate=core_state_transition(&p,track_counts);
    302e:	85a6                	mv	a1,s1
    3030:	0068                	addi	a0,sp,12

00003032 <.LBE768>:
        while (*p!=0) {
    3032:	00084883          	lbu	a7,0(a6)
    3036:	02088a63          	beqz	a7,306a <.L1302>

0000303a <.LBB769>:
                enum CORE_STATE fstate=core_state_transition(&p,track_counts);
    303a:	8e8fe0ef          	jal	ra,1122 <core_state_transition>

0000303e <.LVL1198>:
                final_counts[fstate]++;
    303e:	00251e13          	slli	t3,a0,0x2
    3042:	05010e93          	addi	t4,sp,80
    3046:	01ce8f33          	add	t5,t4,t3
    304a:	fc0f2f83          	lw	t6,-64(t5)
                enum CORE_STATE fstate=core_state_transition(&p,track_counts);
    304e:	85aa                	mv	a1,a0
        ee_printf("%d,",fstate);
    3050:	14cb8513          	addi	a0,s7,332
                final_counts[fstate]++;
    3054:	001f8793          	addi	a5,t6,1
    3058:	fcff2023          	sw	a5,-64(t5)
        ee_printf("%d,",fstate);
    305c:	f5cff0ef          	jal	ra,27b8 <whisperPrintf>

00003060 <.LBE769>:
        while (*p!=0) {
    3060:	45b2                	lw	a1,12(sp)
    3062:	0005c283          	lbu	t0,0(a1)
    3066:	f2029de3          	bnez	t0,2fa0 <.L1299>

0000306a <.L1302>:
        ee_printf("\n");
    306a:	6bc1                	lui	s7,0x10
    306c:	414b8513          	addi	a0,s7,1044 # 10414 <.LC1>
    3070:	f48ff0ef          	jal	ra,27b8 <whisperPrintf>

00003074 <.LVL1200>:
        while (p < (memblock+blksize)) { /* insert some corruption */
    3074:	99ca                	add	s3,s3,s2

00003076 <.LVL1201>:
        p=memblock;
    3076:	c64a                	sw	s2,12(sp)
                p+=step;
    3078:	83ca                	mv	t2,s2
                if (*p!=',')
    307a:	02c00313          	li	t1,44
        while (p < (memblock+blksize)) { /* insert some corruption */
    307e:	17397ee3          	bgeu	s2,s3,39fa <.L1599>

00003082 <.L1306>:
                if (*p!=',')
    3082:	0003c503          	lbu	a0,0(t2)
                        *p^=(ee_u8)seed1;
    3086:	01654733          	xor	a4,a0,s6
                if (*p!=',')
    308a:	146501e3          	beq	a0,t1,39cc <.L1303>
                        *p^=(ee_u8)seed1;
    308e:	00e38023          	sb	a4,0(t2)
                p+=step;
    3092:	4632                	lw	a2,12(sp)
    3094:	014603b3          	add	t2,a2,s4
    3098:	c61e                	sw	t2,12(sp)
        while (p < (memblock+blksize)) { /* insert some corruption */
    309a:	ff33e4e3          	bltu	t2,s3,3082 <.L1306>
        while (*p!=0) {
    309e:	00094b03          	lbu	s6,0(s2)
        p=memblock;
    30a2:	c64a                	sw	s2,12(sp)
        while (*p!=0) {
    30a4:	140b04e3          	beqz	s6,39ec <.L1600>

000030a8 <.L1379>:
    30a8:	6b41                	lui	s6,0x10

000030aa <.L1309>:
                enum CORE_STATE fstate=core_state_transition(&p,track_counts);
    30aa:	85a6                	mv	a1,s1
    30ac:	0068                	addi	a0,sp,12
    30ae:	874fe0ef          	jal	ra,1122 <core_state_transition>

000030b2 <.LVL1202>:
                final_counts[fstate]++;
    30b2:	00251693          	slli	a3,a0,0x2
    30b6:	05010813          	addi	a6,sp,80
    30ba:	00d808b3          	add	a7,a6,a3
    30be:	fc08ae03          	lw	t3,-64(a7)
                enum CORE_STATE fstate=core_state_transition(&p,track_counts);
    30c2:	85aa                	mv	a1,a0

000030c4 <.LVL1203>:
        ee_printf("%d,",fstate);
    30c4:	14cb0513          	addi	a0,s6,332 # 1014c <.LC7>

000030c8 <.LVL1204>:
                final_counts[fstate]++;
    30c8:	001e0e93          	addi	t4,t3,1
    30cc:	fdd8a023          	sw	t4,-64(a7)
        ee_printf("%d,",fstate);
    30d0:	ee8ff0ef          	jal	ra,27b8 <whisperPrintf>

000030d4 <.LBB771>:
        while (*p!=0) {
    30d4:	4f32                	lw	t5,12(sp)

000030d6 <.LBB772>:
                enum CORE_STATE fstate=core_state_transition(&p,track_counts);
    30d6:	85a6                	mv	a1,s1
    30d8:	0068                	addi	a0,sp,12

000030da <.LBE772>:
        while (*p!=0) {
    30da:	000f4f83          	lbu	t6,0(t5)
    30de:	080f8b63          	beqz	t6,3174 <.L1593>

000030e2 <.LBB773>:
                enum CORE_STATE fstate=core_state_transition(&p,track_counts);
    30e2:	840fe0ef          	jal	ra,1122 <core_state_transition>

000030e6 <.LVL1206>:
                final_counts[fstate]++;
    30e6:	00251793          	slli	a5,a0,0x2
    30ea:	05010293          	addi	t0,sp,80
    30ee:	00f28333          	add	t1,t0,a5
    30f2:	fc032703          	lw	a4,-64(t1)
                enum CORE_STATE fstate=core_state_transition(&p,track_counts);
    30f6:	85aa                	mv	a1,a0
        ee_printf("%d,",fstate);
    30f8:	14cb0513          	addi	a0,s6,332
                final_counts[fstate]++;
    30fc:	00170393          	addi	t2,a4,1
    3100:	fc732023          	sw	t2,-64(t1)
        ee_printf("%d,",fstate);
    3104:	eb4ff0ef          	jal	ra,27b8 <whisperPrintf>

00003108 <.LBB774>:
        while (*p!=0) {
    3108:	4632                	lw	a2,12(sp)

0000310a <.LBB775>:
                enum CORE_STATE fstate=core_state_transition(&p,track_counts);
    310a:	85a6                	mv	a1,s1
    310c:	0068                	addi	a0,sp,12

0000310e <.LBE775>:
        while (*p!=0) {
    310e:	00064683          	lbu	a3,0(a2)
    3112:	c2ad                	beqz	a3,3174 <.L1593>

00003114 <.LBB776>:
                enum CORE_STATE fstate=core_state_transition(&p,track_counts);
    3114:	80efe0ef          	jal	ra,1122 <core_state_transition>

00003118 <.LVL1208>:
    3118:	85aa                	mv	a1,a0
                final_counts[fstate]++;
    311a:	05010813          	addi	a6,sp,80
    311e:	050a                	slli	a0,a0,0x2
    3120:	00a808b3          	add	a7,a6,a0
    3124:	fc08ae03          	lw	t3,-64(a7)
        ee_printf("%d,",fstate);
    3128:	14cb0513          	addi	a0,s6,332
                final_counts[fstate]++;
    312c:	001e0e93          	addi	t4,t3,1
    3130:	fdd8a023          	sw	t4,-64(a7)
        ee_printf("%d,",fstate);
    3134:	e84ff0ef          	jal	ra,27b8 <whisperPrintf>

00003138 <.LBB777>:
        while (*p!=0) {
    3138:	4f32                	lw	t5,12(sp)

0000313a <.LBB778>:
                enum CORE_STATE fstate=core_state_transition(&p,track_counts);
    313a:	85a6                	mv	a1,s1
    313c:	0068                	addi	a0,sp,12

0000313e <.LBE778>:
        while (*p!=0) {
    313e:	000f4f83          	lbu	t6,0(t5)
    3142:	020f8963          	beqz	t6,3174 <.L1593>

00003146 <.LBB779>:
                enum CORE_STATE fstate=core_state_transition(&p,track_counts);
    3146:	fddfd0ef          	jal	ra,1122 <core_state_transition>

0000314a <.LVL1210>:
                final_counts[fstate]++;
    314a:	00251793          	slli	a5,a0,0x2
    314e:	05010293          	addi	t0,sp,80
    3152:	00f28333          	add	t1,t0,a5
    3156:	fc032703          	lw	a4,-64(t1)
                enum CORE_STATE fstate=core_state_transition(&p,track_counts);
    315a:	85aa                	mv	a1,a0
        ee_printf("%d,",fstate);
    315c:	14cb0513          	addi	a0,s6,332
                final_counts[fstate]++;
    3160:	00170393          	addi	t2,a4,1
    3164:	fc732023          	sw	t2,-64(t1)
        ee_printf("%d,",fstate);
    3168:	e50ff0ef          	jal	ra,27b8 <whisperPrintf>

0000316c <.LBE779>:
        while (*p!=0) {
    316c:	45b2                	lw	a1,12(sp)
    316e:	0005c603          	lbu	a2,0(a1)
    3172:	fe05                	bnez	a2,30aa <.L1309>

00003174 <.L1593>:
        ee_printf("\n");
    3174:	414b8513          	addi	a0,s7,1044
    3178:	e40ff0ef          	jal	ra,27b8 <whisperPrintf>

0000317c <.LVL1212>:
        p=memblock;
    317c:	c64a                	sw	s2,12(sp)
        while (p < (memblock+blksize)) { /* undo corruption is seed1 and seed2 are equal */
    317e:	03397163          	bgeu	s2,s3,31a0 <.L1308>

00003182 <.L1307>:
                if (*p!=',')
    3182:	02c00b93          	li	s7,44

00003186 <.L1314>:
    3186:	00094083          	lbu	ra,0(s2)
                        *p^=(ee_u8)seed2;
    318a:	0150cb33          	xor	s6,ra,s5
                if (*p!=',')
    318e:	057089e3          	beq	ra,s7,39e0 <.L1312>
                        *p^=(ee_u8)seed2;
    3192:	01690023          	sb	s6,0(s2)
                p+=step;
    3196:	4932                	lw	s2,12(sp)
    3198:	9952                	add	s2,s2,s4
    319a:	c64a                	sw	s2,12(sp)
        while (p < (memblock+blksize)) { /* undo corruption is seed1 and seed2 are equal */
    319c:	ff3965e3          	bltu	s2,s3,3186 <.L1314>

000031a0 <.L1308>:
                   crc |= 0x8000;
    31a0:	7ae9                	lui	s5,0xffffa
    31a2:	0814                	addi	a3,sp,16
    31a4:	8626                	mv	a2,s1
    31a6:	001a8a13          	addi	s4,s5,1 # ffffa001 <STACK+0xfffe1931>

000031aa <.L1311>:
                crc=crcu32(final_counts[i],crc);
    31aa:	0006a983          	lw	s3,0(a3)

000031ae <.LBB791>:
                crc >>= 1;
    31ae:	00145793          	srli	a5,s0,0x1
                x16 = (ee_u8)((data & 1) ^ ((ee_u8)crc & 1));
    31b2:	0089c433          	xor	s0,s3,s0

000031b6 <.LBE791>:
        crc=crcu8( (ee_u8) (newval)                             ,crc);
    31b6:	0ff9f813          	andi	a6,s3,255

000031ba <.LBE801>:
        return crcu16((ee_u16)newval, crc);
    31ba:	01099513          	slli	a0,s3,0x10

000031be <.LBB792>:
                if (x16 == 1)
    31be:	00147893          	andi	a7,s0,1

000031c2 <.LBE792>:
        return crcu16((ee_u16)newval, crc);
    31c2:	01055e13          	srli	t3,a0,0x10

000031c6 <.LBB793>:
                data >>= 1;
    31c6:	00185e93          	srli	t4,a6,0x1

000031ca <.LVL1217>:
                if (x16 == 1)
    31ca:	00088863          	beqz	a7,31da <.L1315>

000031ce <.LVL1218>:
                   crc |= 0x8000;
    31ce:	0147cf33          	xor	t5,a5,s4

000031d2 <.LVL1219>:
    31d2:	010f1f93          	slli	t6,t5,0x10
    31d6:	010fd793          	srli	a5,t6,0x10

000031da <.L1315>:
                x16 = (ee_u8)((data & 1) ^ ((ee_u8)crc & 1));
    31da:	00fec2b3          	xor	t0,t4,a5
                if (x16 == 1)
    31de:	0012f313          	andi	t1,t0,1
                data >>= 1;
    31e2:	00285713          	srli	a4,a6,0x2

000031e6 <.LVL1221>:
                if (x16 == 1)
    31e6:	0017db93          	srli	s7,a5,0x1
    31ea:	00030863          	beqz	t1,31fa <.L1316>

000031ee <.LVL1222>:
                   crc |= 0x8000;
    31ee:	014bc3b3          	xor	t2,s7,s4

000031f2 <.LVL1223>:
    31f2:	01039593          	slli	a1,t2,0x10
    31f6:	0105db93          	srli	s7,a1,0x10

000031fa <.L1316>:
                x16 = (ee_u8)((data & 1) ^ ((ee_u8)crc & 1));
    31fa:	017740b3          	xor	ra,a4,s7
                if (x16 == 1)
    31fe:	0010fb13          	andi	s6,ra,1
                data >>= 1;
    3202:	00385913          	srli	s2,a6,0x3

00003206 <.LVL1225>:
                if (x16 == 1)
    3206:	001bd513          	srli	a0,s7,0x1
    320a:	000b0863          	beqz	s6,321a <.L1317>

0000320e <.LVL1226>:
                   crc |= 0x8000;
    320e:	01454ab3          	xor	s5,a0,s4

00003212 <.LVL1227>:
    3212:	010a9413          	slli	s0,s5,0x10
    3216:	01045513          	srli	a0,s0,0x10

0000321a <.L1317>:
                x16 = (ee_u8)((data & 1) ^ ((ee_u8)crc & 1));
    321a:	00a948b3          	xor	a7,s2,a0
                if (x16 == 1)
    321e:	0018fe93          	andi	t4,a7,1
                data >>= 1;
    3222:	00485f13          	srli	t5,a6,0x4

00003226 <.LVL1229>:
                if (x16 == 1)
    3226:	00155293          	srli	t0,a0,0x1
    322a:	000e8863          	beqz	t4,323a <.L1318>

0000322e <.LVL1230>:
                   crc |= 0x8000;
    322e:	0142cfb3          	xor	t6,t0,s4

00003232 <.LVL1231>:
    3232:	010f9793          	slli	a5,t6,0x10
    3236:	0107d293          	srli	t0,a5,0x10

0000323a <.L1318>:
                x16 = (ee_u8)((data & 1) ^ ((ee_u8)crc & 1));
    323a:	01e2c333          	xor	t1,t0,t5
                if (x16 == 1)
    323e:	00137713          	andi	a4,t1,1
                data >>= 1;
    3242:	00585393          	srli	t2,a6,0x5

00003246 <.LVL1233>:
                if (x16 == 1)
    3246:	0012d093          	srli	ra,t0,0x1
    324a:	c719                	beqz	a4,3258 <.L1319>

0000324c <.LVL1234>:
                   crc |= 0x8000;
    324c:	0140c5b3          	xor	a1,ra,s4

00003250 <.LVL1235>:
    3250:	01059b93          	slli	s7,a1,0x10
    3254:	010bd093          	srli	ra,s7,0x10

00003258 <.L1319>:
                x16 = (ee_u8)((data & 1) ^ ((ee_u8)crc & 1));
    3258:	0070cb33          	xor	s6,ra,t2
                if (x16 == 1)
    325c:	001b7913          	andi	s2,s6,1
                data >>= 1;
    3260:	00685a93          	srli	s5,a6,0x6

00003264 <.LVL1237>:
                if (x16 == 1)
    3264:	0010de93          	srli	t4,ra,0x1
    3268:	00090863          	beqz	s2,3278 <.L1320>

0000326c <.LVL1238>:
                   crc |= 0x8000;
    326c:	014ec433          	xor	s0,t4,s4

00003270 <.LVL1239>:
    3270:	01041513          	slli	a0,s0,0x10
    3274:	01055e93          	srli	t4,a0,0x10

00003278 <.L1320>:
                x16 = (ee_u8)((data & 1) ^ ((ee_u8)crc & 1));
    3278:	01dac8b3          	xor	a7,s5,t4
                if (x16 == 1)
    327c:	0018ff13          	andi	t5,a7,1
                data >>= 1;
    3280:	00785813          	srli	a6,a6,0x7

00003284 <.LVL1241>:
                if (x16 == 1)
    3284:	001ed293          	srli	t0,t4,0x1
    3288:	000f0863          	beqz	t5,3298 <.L1321>

0000328c <.LVL1242>:
                   crc |= 0x8000;
    328c:	0142cfb3          	xor	t6,t0,s4

00003290 <.LVL1243>:
    3290:	010f9793          	slli	a5,t6,0x10
    3294:	0107d293          	srli	t0,a5,0x10

00003298 <.L1321>:
                if (x16 == 1)
    3298:	0012f313          	andi	t1,t0,1
    329c:	0012d593          	srli	a1,t0,0x1
    32a0:	01030863          	beq	t1,a6,32b0 <.L1322>

000032a4 <.LVL1245>:
                   crc |= 0x8000;
    32a4:	0145c733          	xor	a4,a1,s4

000032a8 <.LVL1246>:
    32a8:	01071393          	slli	t2,a4,0x10
    32ac:	0103d593          	srli	a1,t2,0x10

000032b0 <.L1322>:
        crc=crcu8( (ee_u8) ((newval)>>8)        ,crc);
    32b0:	008e5b93          	srli	s7,t3,0x8

000032b4 <.LBB794>:
                x16 = (ee_u8)((data & 1) ^ ((ee_u8)crc & 1));
    32b4:	00bbc0b3          	xor	ra,s7,a1
                if (x16 == 1)
    32b8:	0010fb13          	andi	s6,ra,1

000032bc <.LBE794>:
        crc=crcu8( (ee_u8) ((newval)>>8)        ,crc);
    32bc:	008e5913          	srli	s2,t3,0x8

000032c0 <.LBB797>:
                data >>= 1;
    32c0:	0015de93          	srli	t4,a1,0x1
    32c4:	009e5e13          	srli	t3,t3,0x9

000032c8 <.LVL1249>:
                if (x16 == 1)
    32c8:	000b0863          	beqz	s6,32d8 <.L1323>

000032cc <.LVL1250>:
                   crc |= 0x8000;
    32cc:	014ecab3          	xor	s5,t4,s4

000032d0 <.LVL1251>:
    32d0:	010a9413          	slli	s0,s5,0x10
    32d4:	01045e93          	srli	t4,s0,0x10

000032d8 <.L1323>:
                x16 = (ee_u8)((data & 1) ^ ((ee_u8)crc & 1));
    32d8:	01de4533          	xor	a0,t3,t4
                if (x16 == 1)
    32dc:	00157f13          	andi	t5,a0,1
                data >>= 1;
    32e0:	00295893          	srli	a7,s2,0x2

000032e4 <.LVL1253>:
                if (x16 == 1)
    32e4:	001ed793          	srli	a5,t4,0x1
    32e8:	000f0863          	beqz	t5,32f8 <.L1324>

000032ec <.LVL1254>:
                   crc |= 0x8000;
    32ec:	0147c833          	xor	a6,a5,s4

000032f0 <.LVL1255>:
    32f0:	01081f93          	slli	t6,a6,0x10
    32f4:	010fd793          	srli	a5,t6,0x10

000032f8 <.L1324>:
                x16 = (ee_u8)((data & 1) ^ ((ee_u8)crc & 1));
    32f8:	00f8c2b3          	xor	t0,a7,a5
                if (x16 == 1)
    32fc:	0012f313          	andi	t1,t0,1
                data >>= 1;
    3300:	00395713          	srli	a4,s2,0x3

00003304 <.LVL1257>:
                if (x16 == 1)
    3304:	0017db93          	srli	s7,a5,0x1
    3308:	00030863          	beqz	t1,3318 <.L1325>

0000330c <.LVL1258>:
                   crc |= 0x8000;
    330c:	014bc3b3          	xor	t2,s7,s4

00003310 <.LVL1259>:
    3310:	01039593          	slli	a1,t2,0x10
    3314:	0105db93          	srli	s7,a1,0x10

00003318 <.L1325>:
                x16 = (ee_u8)((data & 1) ^ ((ee_u8)crc & 1));
    3318:	017740b3          	xor	ra,a4,s7
                if (x16 == 1)
    331c:	0010fb13          	andi	s6,ra,1
                data >>= 1;
    3320:	00495e13          	srli	t3,s2,0x4

00003324 <.LVL1261>:
                if (x16 == 1)
    3324:	001bde93          	srli	t4,s7,0x1
    3328:	000b0863          	beqz	s6,3338 <.L1326>

0000332c <.LVL1262>:
                   crc |= 0x8000;
    332c:	014ecab3          	xor	s5,t4,s4

00003330 <.LVL1263>:
    3330:	010a9413          	slli	s0,s5,0x10
    3334:	01045e93          	srli	t4,s0,0x10

00003338 <.L1326>:
                x16 = (ee_u8)((data & 1) ^ ((ee_u8)crc & 1));
    3338:	01de4533          	xor	a0,t3,t4
                if (x16 == 1)
    333c:	00157f13          	andi	t5,a0,1
                data >>= 1;
    3340:	00595893          	srli	a7,s2,0x5

00003344 <.LVL1265>:
                if (x16 == 1)
    3344:	001ed793          	srli	a5,t4,0x1
    3348:	000f0863          	beqz	t5,3358 <.L1327>

0000334c <.LVL1266>:
                   crc |= 0x8000;
    334c:	0147c833          	xor	a6,a5,s4

00003350 <.LVL1267>:
    3350:	01081f93          	slli	t6,a6,0x10
    3354:	010fd793          	srli	a5,t6,0x10

00003358 <.L1327>:
                x16 = (ee_u8)((data & 1) ^ ((ee_u8)crc & 1));
    3358:	00f8c2b3          	xor	t0,a7,a5
                if (x16 == 1)
    335c:	0012f313          	andi	t1,t0,1
                data >>= 1;
    3360:	00695713          	srli	a4,s2,0x6

00003364 <.LVL1269>:
                if (x16 == 1)
    3364:	0017db93          	srli	s7,a5,0x1
    3368:	00030863          	beqz	t1,3378 <.L1328>

0000336c <.LVL1270>:
                   crc |= 0x8000;
    336c:	014bc3b3          	xor	t2,s7,s4

00003370 <.LVL1271>:
    3370:	01039593          	slli	a1,t2,0x10
    3374:	0105db93          	srli	s7,a1,0x10

00003378 <.L1328>:
                x16 = (ee_u8)((data & 1) ^ ((ee_u8)crc & 1));
    3378:	017740b3          	xor	ra,a4,s7
                if (x16 == 1)
    337c:	0010fb13          	andi	s6,ra,1
                data >>= 1;
    3380:	00795913          	srli	s2,s2,0x7

00003384 <.LVL1273>:
                if (x16 == 1)
    3384:	001bd413          	srli	s0,s7,0x1
    3388:	000b0863          	beqz	s6,3398 <.L1329>

0000338c <.LVL1274>:
                   crc |= 0x8000;
    338c:	01444e33          	xor	t3,s0,s4

00003390 <.LVL1275>:
    3390:	010e1a93          	slli	s5,t3,0x10
    3394:	010ad413          	srli	s0,s5,0x10

00003398 <.L1329>:
                if (x16 == 1)
    3398:	00147e93          	andi	t4,s0,1
    339c:	00145f93          	srli	t6,s0,0x1
    33a0:	012e8863          	beq	t4,s2,33b0 <.L1330>

000033a4 <.LVL1277>:
                   crc |= 0x8000;
    33a4:	014fc533          	xor	a0,t6,s4

000033a8 <.LVL1278>:
    33a8:	01051f13          	slli	t5,a0,0x10
    33ac:	010f5f93          	srli	t6,t5,0x10

000033b0 <.L1330>:
        crc=crc16((ee_s16) (newval>>16) ,crc);
    33b0:	0109d893          	srli	a7,s3,0x10

000033b4 <.LBB806>:
                x16 = (ee_u8)((data & 1) ^ ((ee_u8)crc & 1));
    33b4:	01f8c833          	xor	a6,a7,t6

000033b8 <.LBE810>:
        crc=crcu8( (ee_u8) (newval)                             ,crc);
    33b8:	0ff8f293          	andi	t0,a7,255

000033bc <.LBB814>:
                if (x16 == 1)
    33bc:	00187313          	andi	t1,a6,1

000033c0 <.LBE808>:
        return crcu16((ee_u16)newval, crc);
    33c0:	0109d993          	srli	s3,s3,0x10

000033c4 <.LBB815>:
                data >>= 1;
    33c4:	0012d713          	srli	a4,t0,0x1

000033c8 <.LVL1282>:
                if (x16 == 1)
    33c8:	001fd593          	srli	a1,t6,0x1
    33cc:	00030863          	beqz	t1,33dc <.L1331>

000033d0 <.LVL1283>:
                   crc |= 0x8000;
    33d0:	0145c7b3          	xor	a5,a1,s4

000033d4 <.LVL1284>:
    33d4:	01079393          	slli	t2,a5,0x10
    33d8:	0103d593          	srli	a1,t2,0x10

000033dc <.L1331>:
                x16 = (ee_u8)((data & 1) ^ ((ee_u8)crc & 1));
    33dc:	00b74bb3          	xor	s7,a4,a1
                if (x16 == 1)
    33e0:	001bf093          	andi	ra,s7,1
                data >>= 1;
    33e4:	0022db13          	srli	s6,t0,0x2

000033e8 <.LVL1286>:
                if (x16 == 1)
    33e8:	0015da93          	srli	s5,a1,0x1
    33ec:	00008863          	beqz	ra,33fc <.L1332>

000033f0 <.LVL1287>:
                   crc |= 0x8000;
    33f0:	014ac933          	xor	s2,s5,s4

000033f4 <.LVL1288>:
    33f4:	01091e13          	slli	t3,s2,0x10
    33f8:	010e5a93          	srli	s5,t3,0x10

000033fc <.L1332>:
                x16 = (ee_u8)((data & 1) ^ ((ee_u8)crc & 1));
    33fc:	015b4433          	xor	s0,s6,s5
                if (x16 == 1)
    3400:	00147e93          	andi	t4,s0,1
                data >>= 1;
    3404:	0032d513          	srli	a0,t0,0x3

00003408 <.LVL1290>:
                if (x16 == 1)
    3408:	001ad313          	srli	t1,s5,0x1
    340c:	000e8863          	beqz	t4,341c <.L1333>

00003410 <.LVL1291>:
                   crc |= 0x8000;
    3410:	01434f33          	xor	t5,t1,s4

00003414 <.LVL1292>:
    3414:	010f1f93          	slli	t6,t5,0x10
    3418:	010fd313          	srli	t1,t6,0x10

0000341c <.L1333>:
                x16 = (ee_u8)((data & 1) ^ ((ee_u8)crc & 1));
    341c:	006548b3          	xor	a7,a0,t1

00003420 <.LVL1294>:
                if (x16 == 1)
    3420:	0018f713          	andi	a4,a7,1
                data >>= 1;
    3424:	0042d813          	srli	a6,t0,0x4

00003428 <.LVL1295>:
                if (x16 == 1)
    3428:	00135593          	srli	a1,t1,0x1
    342c:	c719                	beqz	a4,343a <.L1334>

0000342e <.LVL1296>:
                   crc |= 0x8000;
    342e:	0145c7b3          	xor	a5,a1,s4

00003432 <.LVL1297>:
    3432:	01079393          	slli	t2,a5,0x10
    3436:	0103d593          	srli	a1,t2,0x10

0000343a <.L1334>:
                x16 = (ee_u8)((data & 1) ^ ((ee_u8)crc & 1));
    343a:	00b84bb3          	xor	s7,a6,a1
                if (x16 == 1)
    343e:	001bf093          	andi	ra,s7,1
                data >>= 1;
    3442:	0052db13          	srli	s6,t0,0x5

00003446 <.LVL1299>:
                if (x16 == 1)
    3446:	0015da93          	srli	s5,a1,0x1
    344a:	00008863          	beqz	ra,345a <.L1335>

0000344e <.LVL1300>:
                   crc |= 0x8000;
    344e:	014ac933          	xor	s2,s5,s4

00003452 <.LVL1301>:
    3452:	01091e13          	slli	t3,s2,0x10
    3456:	010e5a93          	srli	s5,t3,0x10

0000345a <.L1335>:
                x16 = (ee_u8)((data & 1) ^ ((ee_u8)crc & 1));
    345a:	015b4433          	xor	s0,s6,s5
                if (x16 == 1)
    345e:	00147e93          	andi	t4,s0,1
                data >>= 1;
    3462:	0062d513          	srli	a0,t0,0x6

00003466 <.LVL1303>:
                if (x16 == 1)
    3466:	001ad313          	srli	t1,s5,0x1
    346a:	000e8863          	beqz	t4,347a <.L1336>

0000346e <.LVL1304>:
                   crc |= 0x8000;
    346e:	01434f33          	xor	t5,t1,s4

00003472 <.LVL1305>:
    3472:	010f1f93          	slli	t6,t5,0x10
    3476:	010fd313          	srli	t1,t6,0x10

0000347a <.L1336>:
                x16 = (ee_u8)((data & 1) ^ ((ee_u8)crc & 1));
    347a:	006548b3          	xor	a7,a0,t1
                if (x16 == 1)
    347e:	0018f713          	andi	a4,a7,1
                data >>= 1;
    3482:	0072d293          	srli	t0,t0,0x7

00003486 <.LVL1307>:
                if (x16 == 1)
    3486:	00135393          	srli	t2,t1,0x1
    348a:	c719                	beqz	a4,3498 <.L1337>

0000348c <.LVL1308>:
                   crc |= 0x8000;
    348c:	0143c833          	xor	a6,t2,s4

00003490 <.LVL1309>:
    3490:	01081793          	slli	a5,a6,0x10
    3494:	0107d393          	srli	t2,a5,0x10

00003498 <.L1337>:
                if (x16 == 1)
    3498:	0013f593          	andi	a1,t2,1
    349c:	0013db13          	srli	s6,t2,0x1
    34a0:	00558863          	beq	a1,t0,34b0 <.L1338>

000034a4 <.LVL1311>:
                   crc |= 0x8000;
    34a4:	014b4bb3          	xor	s7,s6,s4

000034a8 <.LVL1312>:
    34a8:	010b9093          	slli	ra,s7,0x10
    34ac:	0100db13          	srli	s6,ra,0x10

000034b0 <.L1338>:
        crc=crcu8( (ee_u8) ((newval)>>8)        ,crc);
    34b0:	0089d913          	srli	s2,s3,0x8

000034b4 <.LBB816>:
                x16 = (ee_u8)((data & 1) ^ ((ee_u8)crc & 1));
    34b4:	01694e33          	xor	t3,s2,s6
                if (x16 == 1)
    34b8:	001e7a93          	andi	s5,t3,1

000034bc <.LBE816>:
        crc=crcu8( (ee_u8) ((newval)>>8)        ,crc);
    34bc:	0089d413          	srli	s0,s3,0x8

000034c0 <.LBB819>:
                data >>= 1;
    34c0:	001b5f13          	srli	t5,s6,0x1
    34c4:	0099d993          	srli	s3,s3,0x9

000034c8 <.LVL1315>:
                if (x16 == 1)
    34c8:	000a8863          	beqz	s5,34d8 <.L1339>

000034cc <.LVL1316>:
                   crc |= 0x8000;
    34cc:	014f4eb3          	xor	t4,t5,s4

000034d0 <.LVL1317>:
    34d0:	010e9513          	slli	a0,t4,0x10
    34d4:	01055f13          	srli	t5,a0,0x10

000034d8 <.L1339>:
                x16 = (ee_u8)((data & 1) ^ ((ee_u8)crc & 1));
    34d8:	01e9cfb3          	xor	t6,s3,t5
                if (x16 == 1)
    34dc:	001ff313          	andi	t1,t6,1
                data >>= 1;
    34e0:	00245893          	srli	a7,s0,0x2

000034e4 <.LVL1319>:
                if (x16 == 1)
    34e4:	001f5793          	srli	a5,t5,0x1
    34e8:	00030863          	beqz	t1,34f8 <.L1340>

000034ec <.LVL1320>:
                   crc |= 0x8000;
    34ec:	0147c733          	xor	a4,a5,s4

000034f0 <.LVL1321>:
    34f0:	01071293          	slli	t0,a4,0x10
    34f4:	0102d793          	srli	a5,t0,0x10

000034f8 <.L1340>:
                x16 = (ee_u8)((data & 1) ^ ((ee_u8)crc & 1));
    34f8:	00f8c833          	xor	a6,a7,a5
                if (x16 == 1)
    34fc:	00187393          	andi	t2,a6,1
                data >>= 1;
    3500:	00345593          	srli	a1,s0,0x3

00003504 <.LVL1323>:
                if (x16 == 1)
    3504:	0017db13          	srli	s6,a5,0x1
    3508:	00038863          	beqz	t2,3518 <.L1341>

0000350c <.LVL1324>:
                   crc |= 0x8000;
    350c:	014b4bb3          	xor	s7,s6,s4

00003510 <.LVL1325>:
    3510:	010b9093          	slli	ra,s7,0x10
    3514:	0100db13          	srli	s6,ra,0x10

00003518 <.L1341>:
                x16 = (ee_u8)((data & 1) ^ ((ee_u8)crc & 1));
    3518:	0165c933          	xor	s2,a1,s6
                if (x16 == 1)
    351c:	00197e13          	andi	t3,s2,1
                data >>= 1;
    3520:	00445a93          	srli	s5,s0,0x4

00003524 <.LVL1327>:
                if (x16 == 1)
    3524:	001b5513          	srli	a0,s6,0x1
    3528:	000e0863          	beqz	t3,3538 <.L1342>

0000352c <.LVL1328>:
                   crc |= 0x8000;
    352c:	014549b3          	xor	s3,a0,s4

00003530 <.LVL1329>:
    3530:	01099e93          	slli	t4,s3,0x10
    3534:	010ed513          	srli	a0,t4,0x10

00003538 <.L1342>:
                x16 = (ee_u8)((data & 1) ^ ((ee_u8)crc & 1));
    3538:	00aacf33          	xor	t5,s5,a0
                if (x16 == 1)
    353c:	001f7f93          	andi	t6,t5,1
                data >>= 1;
    3540:	00545313          	srli	t1,s0,0x5

00003544 <.LVL1331>:
                if (x16 == 1)
    3544:	00155293          	srli	t0,a0,0x1
    3548:	000f8863          	beqz	t6,3558 <.L1343>

0000354c <.LVL1332>:
                   crc |= 0x8000;
    354c:	0142c8b3          	xor	a7,t0,s4

00003550 <.LVL1333>:
    3550:	01089713          	slli	a4,a7,0x10
    3554:	01075293          	srli	t0,a4,0x10

00003558 <.L1343>:
                x16 = (ee_u8)((data & 1) ^ ((ee_u8)crc & 1));
    3558:	005347b3          	xor	a5,t1,t0
                if (x16 == 1)
    355c:	0017f813          	andi	a6,a5,1
                data >>= 1;
    3560:	00645393          	srli	t2,s0,0x6

00003564 <.LVL1335>:
                if (x16 == 1)
    3564:	0012d093          	srli	ra,t0,0x1
    3568:	00080863          	beqz	a6,3578 <.L1344>

0000356c <.LVL1336>:
                   crc |= 0x8000;
    356c:	0140c5b3          	xor	a1,ra,s4

00003570 <.LVL1337>:
    3570:	01059b93          	slli	s7,a1,0x10
    3574:	010bd093          	srli	ra,s7,0x10

00003578 <.L1344>:
                x16 = (ee_u8)((data & 1) ^ ((ee_u8)crc & 1));
    3578:	0013cb33          	xor	s6,t2,ra
                if (x16 == 1)
    357c:	001b7913          	andi	s2,s6,1
                data >>= 1;
    3580:	801d                	srli	s0,s0,0x7

00003582 <.LVL1339>:
                if (x16 == 1)
    3582:	0010d993          	srli	s3,ra,0x1
    3586:	00090863          	beqz	s2,3596 <.L1345>

0000358a <.LVL1340>:
                   crc |= 0x8000;
    358a:	0149ce33          	xor	t3,s3,s4

0000358e <.LVL1341>:
    358e:	010e1a93          	slli	s5,t3,0x10
    3592:	010ad993          	srli	s3,s5,0x10

00003596 <.L1345>:
                if (x16 == 1)
    3596:	0019fe93          	andi	t4,s3,1
    359a:	0019df93          	srli	t6,s3,0x1
    359e:	008e8863          	beq	t4,s0,35ae <.L1346>

000035a2 <.LVL1343>:
                   crc |= 0x8000;
    35a2:	014fc533          	xor	a0,t6,s4

000035a6 <.LVL1344>:
    35a6:	01051f13          	slli	t5,a0,0x10
    35aa:	010f5f93          	srli	t6,t5,0x10

000035ae <.L1346>:
                crc=crcu32(track_counts[i],crc);
    35ae:	00062303          	lw	t1,0(a2)

000035b2 <.LBB824>:
        return crcu16((ee_u16)newval, crc);
    35b2:	001fd093          	srli	ra,t6,0x1

000035b6 <.LBB828>:
                x16 = (ee_u8)((data & 1) ^ ((ee_u8)crc & 1));
    35b6:	01f348b3          	xor	a7,t1,t6

000035ba <.LBE830>:
        crc=crcu8( (ee_u8) (newval)                             ,crc);
    35ba:	0ff37713          	andi	a4,t1,255

000035be <.LBE828>:
        return crcu16((ee_u16)newval, crc);
    35be:	01031793          	slli	a5,t1,0x10

000035c2 <.LBB834>:
                if (x16 == 1)
    35c2:	0018f293          	andi	t0,a7,1

000035c6 <.LBE834>:
        return crcu16((ee_u16)newval, crc);
    35c6:	0107d813          	srli	a6,a5,0x10

000035ca <.LBB835>:
                data >>= 1;
    35ca:	00175393          	srli	t2,a4,0x1

000035ce <.LVL1348>:
                if (x16 == 1)
    35ce:	00028863          	beqz	t0,35de <.L1347>

000035d2 <.LVL1349>:
                   crc |= 0x8000;
    35d2:	0140c5b3          	xor	a1,ra,s4

000035d6 <.LVL1350>:
    35d6:	01059b93          	slli	s7,a1,0x10
    35da:	010bd093          	srli	ra,s7,0x10

000035de <.L1347>:
                x16 = (ee_u8)((data & 1) ^ ((ee_u8)crc & 1));
    35de:	0013cb33          	xor	s6,t2,ra
                if (x16 == 1)
    35e2:	001b7913          	andi	s2,s6,1
                data >>= 1;
    35e6:	00275e13          	srli	t3,a4,0x2

000035ea <.LVL1352>:
                if (x16 == 1)
    35ea:	0010d993          	srli	s3,ra,0x1
    35ee:	00090863          	beqz	s2,35fe <.L1348>

000035f2 <.LVL1353>:
                   crc |= 0x8000;
    35f2:	0149c433          	xor	s0,s3,s4

000035f6 <.LVL1354>:
    35f6:	01041a93          	slli	s5,s0,0x10
    35fa:	010ad993          	srli	s3,s5,0x10

000035fe <.L1348>:
                x16 = (ee_u8)((data & 1) ^ ((ee_u8)crc & 1));
    35fe:	013e4eb3          	xor	t4,t3,s3
                if (x16 == 1)
    3602:	001ef513          	andi	a0,t4,1
                data >>= 1;
    3606:	00375f13          	srli	t5,a4,0x3

0000360a <.LVL1356>:
                if (x16 == 1)
    360a:	0019d293          	srli	t0,s3,0x1
    360e:	c519                	beqz	a0,361c <.L1349>

00003610 <.LVL1357>:
                   crc |= 0x8000;
    3610:	0142cfb3          	xor	t6,t0,s4

00003614 <.LVL1358>:
    3614:	010f9893          	slli	a7,t6,0x10
    3618:	0108d293          	srli	t0,a7,0x10

0000361c <.L1349>:
                x16 = (ee_u8)((data & 1) ^ ((ee_u8)crc & 1));
    361c:	005f47b3          	xor	a5,t5,t0
                if (x16 == 1)
    3620:	0017f393          	andi	t2,a5,1
                data >>= 1;
    3624:	00475593          	srli	a1,a4,0x4

00003628 <.LVL1360>:
                if (x16 == 1)
    3628:	0012db13          	srli	s6,t0,0x1
    362c:	00038863          	beqz	t2,363c <.L1350>

00003630 <.LVL1361>:
                   crc |= 0x8000;
    3630:	014b4bb3          	xor	s7,s6,s4

00003634 <.LVL1362>:
    3634:	010b9093          	slli	ra,s7,0x10
    3638:	0100db13          	srli	s6,ra,0x10

0000363c <.L1350>:
                x16 = (ee_u8)((data & 1) ^ ((ee_u8)crc & 1));
    363c:	0165c933          	xor	s2,a1,s6
                if (x16 == 1)
    3640:	00197e13          	andi	t3,s2,1
                data >>= 1;
    3644:	00575a93          	srli	s5,a4,0x5

00003648 <.LVL1364>:
                if (x16 == 1)
    3648:	001b5e93          	srli	t4,s6,0x1
    364c:	000e0863          	beqz	t3,365c <.L1351>

00003650 <.LVL1365>:
                   crc |= 0x8000;
    3650:	014ec433          	xor	s0,t4,s4

00003654 <.LVL1366>:
    3654:	01041993          	slli	s3,s0,0x10
    3658:	0109de93          	srli	t4,s3,0x10

0000365c <.L1351>:
                x16 = (ee_u8)((data & 1) ^ ((ee_u8)crc & 1));
    365c:	01dac533          	xor	a0,s5,t4
                if (x16 == 1)
    3660:	00157f13          	andi	t5,a0,1
                data >>= 1;
    3664:	00675f93          	srli	t6,a4,0x6

00003668 <.LVL1368>:
                if (x16 == 1)
    3668:	001ed393          	srli	t2,t4,0x1
    366c:	000f0863          	beqz	t5,367c <.L1352>

00003670 <.LVL1369>:
                   crc |= 0x8000;
    3670:	0143c8b3          	xor	a7,t2,s4

00003674 <.LVL1370>:
    3674:	01089293          	slli	t0,a7,0x10
    3678:	0102d393          	srli	t2,t0,0x10

0000367c <.L1352>:
                x16 = (ee_u8)((data & 1) ^ ((ee_u8)crc & 1));
    367c:	007fc7b3          	xor	a5,t6,t2
                if (x16 == 1)
    3680:	0017f593          	andi	a1,a5,1
                data >>= 1;
    3684:	831d                	srli	a4,a4,0x7

00003686 <.LVL1372>:
                if (x16 == 1)
    3686:	0013db13          	srli	s6,t2,0x1
    368a:	c599                	beqz	a1,3698 <.L1353>

0000368c <.LVL1373>:
                   crc |= 0x8000;
    368c:	014b4bb3          	xor	s7,s6,s4

00003690 <.LVL1374>:
    3690:	010b9093          	slli	ra,s7,0x10
    3694:	0100db13          	srli	s6,ra,0x10

00003698 <.L1353>:
                if (x16 == 1)
    3698:	001b7913          	andi	s2,s6,1
    369c:	001b5413          	srli	s0,s6,0x1
    36a0:	00e90863          	beq	s2,a4,36b0 <.L1354>

000036a4 <.LVL1376>:
                   crc |= 0x8000;
    36a4:	01444e33          	xor	t3,s0,s4

000036a8 <.LVL1377>:
    36a8:	010e1a93          	slli	s5,t3,0x10
    36ac:	010ad413          	srli	s0,s5,0x10

000036b0 <.L1354>:
        crc=crcu8( (ee_u8) ((newval)>>8)        ,crc);
    36b0:	00885993          	srli	s3,a6,0x8

000036b4 <.LBB836>:
                x16 = (ee_u8)((data & 1) ^ ((ee_u8)crc & 1));
    36b4:	0089ceb3          	xor	t4,s3,s0
                if (x16 == 1)
    36b8:	001eff13          	andi	t5,t4,1

000036bc <.LBE836>:
        crc=crcu8( (ee_u8) ((newval)>>8)        ,crc);
    36bc:	00885513          	srli	a0,a6,0x8

000036c0 <.LBB839>:
                data >>= 1;
    36c0:	00145293          	srli	t0,s0,0x1
    36c4:	00985813          	srli	a6,a6,0x9

000036c8 <.LVL1380>:
                if (x16 == 1)
    36c8:	000f0863          	beqz	t5,36d8 <.L1355>

000036cc <.LVL1381>:
                   crc |= 0x8000;
    36cc:	0142cfb3          	xor	t6,t0,s4

000036d0 <.LVL1382>:
    36d0:	010f9893          	slli	a7,t6,0x10
    36d4:	0108d293          	srli	t0,a7,0x10

000036d8 <.L1355>:
                x16 = (ee_u8)((data & 1) ^ ((ee_u8)crc & 1));
    36d8:	005843b3          	xor	t2,a6,t0
                if (x16 == 1)
    36dc:	0013f793          	andi	a5,t2,1
                data >>= 1;
    36e0:	00255593          	srli	a1,a0,0x2

000036e4 <.LVL1384>:
                if (x16 == 1)
    36e4:	0012d093          	srli	ra,t0,0x1
    36e8:	c799                	beqz	a5,36f6 <.L1356>

000036ea <.LVL1385>:
                   crc |= 0x8000;
    36ea:	0140c733          	xor	a4,ra,s4

000036ee <.LVL1386>:
    36ee:	01071b93          	slli	s7,a4,0x10
    36f2:	010bd093          	srli	ra,s7,0x10

000036f6 <.L1356>:
                x16 = (ee_u8)((data & 1) ^ ((ee_u8)crc & 1));
    36f6:	0015cb33          	xor	s6,a1,ra
                if (x16 == 1)
    36fa:	001b7913          	andi	s2,s6,1
                data >>= 1;
    36fe:	00355e13          	srli	t3,a0,0x3

00003702 <.LVL1388>:
                if (x16 == 1)
    3702:	0010d993          	srli	s3,ra,0x1
    3706:	00090863          	beqz	s2,3716 <.L1357>

0000370a <.LVL1389>:
                   crc |= 0x8000;
    370a:	0149cab3          	xor	s5,s3,s4

0000370e <.LVL1390>:
    370e:	010a9413          	slli	s0,s5,0x10
    3712:	01045993          	srli	s3,s0,0x10

00003716 <.L1357>:
                x16 = (ee_u8)((data & 1) ^ ((ee_u8)crc & 1));
    3716:	013e4eb3          	xor	t4,t3,s3
                if (x16 == 1)
    371a:	001eff13          	andi	t5,t4,1
                data >>= 1;
    371e:	00455813          	srli	a6,a0,0x4

00003722 <.LVL1392>:
                if (x16 == 1)
    3722:	0019d293          	srli	t0,s3,0x1
    3726:	000f0863          	beqz	t5,3736 <.L1358>

0000372a <.LVL1393>:
                   crc |= 0x8000;
    372a:	0142cfb3          	xor	t6,t0,s4

0000372e <.LVL1394>:
    372e:	010f9893          	slli	a7,t6,0x10
    3732:	0108d293          	srli	t0,a7,0x10

00003736 <.L1358>:
                x16 = (ee_u8)((data & 1) ^ ((ee_u8)crc & 1));
    3736:	005843b3          	xor	t2,a6,t0
                if (x16 == 1)
    373a:	0013f793          	andi	a5,t2,1
                data >>= 1;
    373e:	00555593          	srli	a1,a0,0x5

00003742 <.LVL1396>:
                if (x16 == 1)
    3742:	0012d093          	srli	ra,t0,0x1
    3746:	c799                	beqz	a5,3754 <.L1359>

00003748 <.LVL1397>:
                   crc |= 0x8000;
    3748:	0140c733          	xor	a4,ra,s4

0000374c <.LVL1398>:
    374c:	01071b93          	slli	s7,a4,0x10
    3750:	010bd093          	srli	ra,s7,0x10

00003754 <.L1359>:
                x16 = (ee_u8)((data & 1) ^ ((ee_u8)crc & 1));
    3754:	0015cb33          	xor	s6,a1,ra
                if (x16 == 1)
    3758:	001b7913          	andi	s2,s6,1
                data >>= 1;
    375c:	00655e13          	srli	t3,a0,0x6

00003760 <.LVL1400>:
                if (x16 == 1)
    3760:	0010d993          	srli	s3,ra,0x1
    3764:	00090863          	beqz	s2,3774 <.L1360>

00003768 <.LVL1401>:
                   crc |= 0x8000;
    3768:	0149cab3          	xor	s5,s3,s4

0000376c <.LVL1402>:
    376c:	010a9413          	slli	s0,s5,0x10
    3770:	01045993          	srli	s3,s0,0x10

00003774 <.L1360>:
                x16 = (ee_u8)((data & 1) ^ ((ee_u8)crc & 1));
    3774:	013e4eb3          	xor	t4,t3,s3
                if (x16 == 1)
    3778:	001eff13          	andi	t5,t4,1
                data >>= 1;
    377c:	811d                	srli	a0,a0,0x7

0000377e <.LVL1404>:
                if (x16 == 1)
    377e:	0019d893          	srli	a7,s3,0x1
    3782:	000f0863          	beqz	t5,3792 <.L1361>

00003786 <.LVL1405>:
                   crc |= 0x8000;
    3786:	0148c833          	xor	a6,a7,s4

0000378a <.LVL1406>:
    378a:	01081f93          	slli	t6,a6,0x10
    378e:	010fd893          	srli	a7,t6,0x10

00003792 <.L1361>:
                if (x16 == 1)
    3792:	0018f293          	andi	t0,a7,1
    3796:	0018d713          	srli	a4,a7,0x1
    379a:	00a28863          	beq	t0,a0,37aa <.L1362>

0000379e <.LVL1408>:
                   crc |= 0x8000;
    379e:	014743b3          	xor	t2,a4,s4

000037a2 <.LVL1409>:
    37a2:	01039793          	slli	a5,t2,0x10
    37a6:	0107d713          	srli	a4,a5,0x10

000037aa <.L1362>:
        crc=crc16((ee_s16) (newval>>16) ,crc);
    37aa:	01035593          	srli	a1,t1,0x10

000037ae <.LBB844>:
                x16 = (ee_u8)((data & 1) ^ ((ee_u8)crc & 1));
    37ae:	00e5cbb3          	xor	s7,a1,a4

000037b2 <.LBE848>:
        crc=crcu8( (ee_u8) (newval)                             ,crc);
    37b2:	0ff5f093          	andi	ra,a1,255

000037b6 <.LBB852>:
                if (x16 == 1)
    37b6:	001bfb13          	andi	s6,s7,1

000037ba <.LBE846>:
        return crcu16((ee_u16)newval, crc);
    37ba:	01035313          	srli	t1,t1,0x10

000037be <.LBB853>:
                data >>= 1;
    37be:	0010d913          	srli	s2,ra,0x1

000037c2 <.LVL1413>:
                if (x16 == 1)
    37c2:	00175413          	srli	s0,a4,0x1
    37c6:	000b0863          	beqz	s6,37d6 <.L1363>

000037ca <.LVL1414>:
                   crc |= 0x8000;
    37ca:	01444e33          	xor	t3,s0,s4

000037ce <.LVL1415>:
    37ce:	010e1a93          	slli	s5,t3,0x10
    37d2:	010ad413          	srli	s0,s5,0x10

000037d6 <.L1363>:
                x16 = (ee_u8)((data & 1) ^ ((ee_u8)crc & 1));
    37d6:	008949b3          	xor	s3,s2,s0
                if (x16 == 1)
    37da:	0019fe93          	andi	t4,s3,1
                data >>= 1;
    37de:	0020df13          	srli	t5,ra,0x2

000037e2 <.LVL1417>:
                if (x16 == 1)
    37e2:	00145f93          	srli	t6,s0,0x1
    37e6:	000e8863          	beqz	t4,37f6 <.L1364>

000037ea <.LVL1418>:
                   crc |= 0x8000;
    37ea:	014fc533          	xor	a0,t6,s4

000037ee <.LVL1419>:
    37ee:	01051813          	slli	a6,a0,0x10
    37f2:	01085f93          	srli	t6,a6,0x10

000037f6 <.L1364>:
                x16 = (ee_u8)((data & 1) ^ ((ee_u8)crc & 1));
    37f6:	01ff48b3          	xor	a7,t5,t6
                if (x16 == 1)
    37fa:	0018f293          	andi	t0,a7,1
                data >>= 1;
    37fe:	0030d393          	srli	t2,ra,0x3

00003802 <.LVL1421>:
                if (x16 == 1)
    3802:	001fd593          	srli	a1,t6,0x1

00003806 <.LVL1422>:
    3806:	00028863          	beqz	t0,3816 <.L1365>

0000380a <.LVL1423>:
                   crc |= 0x8000;
    380a:	0145c7b3          	xor	a5,a1,s4

0000380e <.LVL1424>:
    380e:	01079713          	slli	a4,a5,0x10
    3812:	01075593          	srli	a1,a4,0x10

00003816 <.L1365>:
                x16 = (ee_u8)((data & 1) ^ ((ee_u8)crc & 1));
    3816:	00b3cbb3          	xor	s7,t2,a1
                if (x16 == 1)
    381a:	001bfb13          	andi	s6,s7,1
                data >>= 1;
    381e:	0040d913          	srli	s2,ra,0x4

00003822 <.LVL1426>:
                if (x16 == 1)
    3822:	0015d413          	srli	s0,a1,0x1
    3826:	000b0863          	beqz	s6,3836 <.L1366>

0000382a <.LVL1427>:
                   crc |= 0x8000;
    382a:	01444e33          	xor	t3,s0,s4

0000382e <.LVL1428>:
    382e:	010e1a93          	slli	s5,t3,0x10
    3832:	010ad413          	srli	s0,s5,0x10

00003836 <.L1366>:
                x16 = (ee_u8)((data & 1) ^ ((ee_u8)crc & 1));
    3836:	008949b3          	xor	s3,s2,s0
                if (x16 == 1)
    383a:	0019fe93          	andi	t4,s3,1
                data >>= 1;
    383e:	0050df13          	srli	t5,ra,0x5

00003842 <.LVL1430>:
                if (x16 == 1)
    3842:	00145f93          	srli	t6,s0,0x1
    3846:	000e8863          	beqz	t4,3856 <.L1367>

0000384a <.LVL1431>:
                   crc |= 0x8000;
    384a:	014fc533          	xor	a0,t6,s4

0000384e <.LVL1432>:
    384e:	01051813          	slli	a6,a0,0x10
    3852:	01085f93          	srli	t6,a6,0x10

00003856 <.L1367>:
                x16 = (ee_u8)((data & 1) ^ ((ee_u8)crc & 1));
    3856:	01ff48b3          	xor	a7,t5,t6
                if (x16 == 1)
    385a:	0018f293          	andi	t0,a7,1
                data >>= 1;
    385e:	0060d393          	srli	t2,ra,0x6

00003862 <.LVL1434>:
                if (x16 == 1)
    3862:	001fd593          	srli	a1,t6,0x1
    3866:	00028863          	beqz	t0,3876 <.L1368>

0000386a <.LVL1435>:
                   crc |= 0x8000;
    386a:	0145c7b3          	xor	a5,a1,s4

0000386e <.LVL1436>:
    386e:	01079713          	slli	a4,a5,0x10
    3872:	01075593          	srli	a1,a4,0x10

00003876 <.L1368>:
                x16 = (ee_u8)((data & 1) ^ ((ee_u8)crc & 1));
    3876:	00b3cbb3          	xor	s7,t2,a1
                if (x16 == 1)
    387a:	001bfb13          	andi	s6,s7,1
                data >>= 1;
    387e:	0070d093          	srli	ra,ra,0x7

00003882 <.LVL1438>:
                if (x16 == 1)
    3882:	0015da93          	srli	s5,a1,0x1
    3886:	000b0863          	beqz	s6,3896 <.L1369>

0000388a <.LVL1439>:
                   crc |= 0x8000;
    388a:	014ac933          	xor	s2,s5,s4

0000388e <.LVL1440>:
    388e:	01091e13          	slli	t3,s2,0x10
    3892:	010e5a93          	srli	s5,t3,0x10

00003896 <.L1369>:
                if (x16 == 1)
    3896:	001af993          	andi	s3,s5,1
    389a:	001adf13          	srli	t5,s5,0x1
    389e:	00198863          	beq	s3,ra,38ae <.L1370>

000038a2 <.LVL1442>:
                   crc |= 0x8000;
    38a2:	014f4433          	xor	s0,t5,s4

000038a6 <.LVL1443>:
    38a6:	01041e93          	slli	t4,s0,0x10
    38aa:	010edf13          	srli	t5,t4,0x10

000038ae <.L1370>:
        crc=crcu8( (ee_u8) ((newval)>>8)        ,crc);
    38ae:	00835513          	srli	a0,t1,0x8

000038b2 <.LBB854>:
                x16 = (ee_u8)((data & 1) ^ ((ee_u8)crc & 1));
    38b2:	01e54833          	xor	a6,a0,t5
                if (x16 == 1)
    38b6:	00187f93          	andi	t6,a6,1

000038ba <.LBE854>:
        crc=crcu8( (ee_u8) ((newval)>>8)        ,crc);
    38ba:	00835893          	srli	a7,t1,0x8

000038be <.LBB857>:
                data >>= 1;
    38be:	001f5713          	srli	a4,t5,0x1
    38c2:	00935313          	srli	t1,t1,0x9

000038c6 <.LVL1446>:
                if (x16 == 1)
    38c6:	000f8863          	beqz	t6,38d6 <.L1371>

000038ca <.LVL1447>:
                   crc |= 0x8000;
    38ca:	014742b3          	xor	t0,a4,s4

000038ce <.LVL1448>:
    38ce:	01029393          	slli	t2,t0,0x10
    38d2:	0103d713          	srli	a4,t2,0x10

000038d6 <.L1371>:
                x16 = (ee_u8)((data & 1) ^ ((ee_u8)crc & 1));
    38d6:	00e347b3          	xor	a5,t1,a4
                if (x16 == 1)
    38da:	0017fb93          	andi	s7,a5,1
                data >>= 1;
    38de:	0028d593          	srli	a1,a7,0x2

000038e2 <.LVL1450>:
                if (x16 == 1)
    38e2:	00175913          	srli	s2,a4,0x1
    38e6:	000b8863          	beqz	s7,38f6 <.L1372>

000038ea <.LVL1451>:
                   crc |= 0x8000;
    38ea:	01494b33          	xor	s6,s2,s4

000038ee <.LVL1452>:
    38ee:	010b1093          	slli	ra,s6,0x10
    38f2:	0100d913          	srli	s2,ra,0x10

000038f6 <.L1372>:
                x16 = (ee_u8)((data & 1) ^ ((ee_u8)crc & 1));
    38f6:	0125ce33          	xor	t3,a1,s2
                if (x16 == 1)
    38fa:	001e7a93          	andi	s5,t3,1
                data >>= 1;
    38fe:	0038d993          	srli	s3,a7,0x3

00003902 <.LVL1454>:
                if (x16 == 1)
    3902:	00195f13          	srli	t5,s2,0x1
    3906:	000a8863          	beqz	s5,3916 <.L1373>

0000390a <.LVL1455>:
                   crc |= 0x8000;
    390a:	014f4433          	xor	s0,t5,s4

0000390e <.LVL1456>:
    390e:	01041e93          	slli	t4,s0,0x10
    3912:	010edf13          	srli	t5,t4,0x10

00003916 <.L1373>:
                x16 = (ee_u8)((data & 1) ^ ((ee_u8)crc & 1));
    3916:	01e9c533          	xor	a0,s3,t5
                if (x16 == 1)
    391a:	00157813          	andi	a6,a0,1
                data >>= 1;
    391e:	0048df93          	srli	t6,a7,0x4

00003922 <.LVL1458>:
                if (x16 == 1)
    3922:	001f5393          	srli	t2,t5,0x1
    3926:	00080863          	beqz	a6,3936 <.L1374>

0000392a <.LVL1459>:
                   crc |= 0x8000;
    392a:	0143c333          	xor	t1,t2,s4

0000392e <.LVL1460>:
    392e:	01031293          	slli	t0,t1,0x10
    3932:	0102d393          	srli	t2,t0,0x10

00003936 <.L1374>:
                x16 = (ee_u8)((data & 1) ^ ((ee_u8)crc & 1));
    3936:	007fc733          	xor	a4,t6,t2
                if (x16 == 1)
    393a:	00177793          	andi	a5,a4,1
                data >>= 1;
    393e:	0058db93          	srli	s7,a7,0x5

00003942 <.LVL1462>:
                if (x16 == 1)
    3942:	0013d093          	srli	ra,t2,0x1
    3946:	c799                	beqz	a5,3954 <.L1375>

00003948 <.LVL1463>:
                   crc |= 0x8000;
    3948:	0140c5b3          	xor	a1,ra,s4

0000394c <.LVL1464>:
    394c:	01059b13          	slli	s6,a1,0x10
    3950:	010b5093          	srli	ra,s6,0x10

00003954 <.L1375>:
                x16 = (ee_u8)((data & 1) ^ ((ee_u8)crc & 1));
    3954:	001bc933          	xor	s2,s7,ra
                if (x16 == 1)
    3958:	00197e13          	andi	t3,s2,1
                data >>= 1;
    395c:	0068da93          	srli	s5,a7,0x6

00003960 <.LVL1466>:
                if (x16 == 1)
    3960:	0010de93          	srli	t4,ra,0x1
    3964:	000e0863          	beqz	t3,3974 <.L1376>

00003968 <.LVL1467>:
                   crc |= 0x8000;
    3968:	014ec9b3          	xor	s3,t4,s4

0000396c <.LVL1468>:
    396c:	01099413          	slli	s0,s3,0x10
    3970:	01045e93          	srli	t4,s0,0x10

00003974 <.L1376>:
                x16 = (ee_u8)((data & 1) ^ ((ee_u8)crc & 1));
    3974:	01dacf33          	xor	t5,s5,t4
                if (x16 == 1)
    3978:	001f7813          	andi	a6,t5,1
                data >>= 1;
    397c:	0078d893          	srli	a7,a7,0x7

00003980 <.LVL1470>:
                if (x16 == 1)
    3980:	001ed313          	srli	t1,t4,0x1
    3984:	00080863          	beqz	a6,3994 <.L1377>

00003988 <.LVL1471>:
                   crc |= 0x8000;
    3988:	01434533          	xor	a0,t1,s4

0000398c <.LVL1472>:
    398c:	01051f93          	slli	t6,a0,0x10
    3990:	010fd313          	srli	t1,t6,0x10

00003994 <.L1377>:
                if (x16 == 1)
    3994:	00137293          	andi	t0,t1,1
    3998:	00135413          	srli	s0,t1,0x1
    399c:	01128863          	beq	t0,a7,39ac <.L1378>

000039a0 <.LVL1474>:
                   crc |= 0x8000;
    39a0:	014443b3          	xor	t2,s0,s4

000039a4 <.LVL1475>:
    39a4:	01039713          	slli	a4,t2,0x10
    39a8:	01075413          	srli	s0,a4,0x10

000039ac <.L1378>:
        for (i=0; i<NUM_CORE_STATES; i++) {
    39ac:	0691                	addi	a3,a3,4
    39ae:	0611                	addi	a2,a2,4
    39b0:	fed49d63          	bne	s1,a3,31aa <.L1311>
}
    39b4:	50f6                	lw	ra,124(sp)
    39b6:	8522                	mv	a0,s0
    39b8:	5466                	lw	s0,120(sp)
    39ba:	54d6                	lw	s1,116(sp)
    39bc:	5946                	lw	s2,112(sp)
    39be:	59b6                	lw	s3,108(sp)
    39c0:	5a26                	lw	s4,104(sp)
    39c2:	5a96                	lw	s5,100(sp)
    39c4:	5b06                	lw	s6,96(sp)
    39c6:	4bf6                	lw	s7,92(sp)
    39c8:	6109                	addi	sp,sp,128
    39ca:	8082                	ret

000039cc <.L1303>:
                p+=step;
    39cc:	93d2                	add	t2,t2,s4
    39ce:	c61e                	sw	t2,12(sp)
        while (p < (memblock+blksize)) { /* insert some corruption */
    39d0:	eb33e963          	bltu	t2,s3,3082 <.L1306>
        while (*p!=0) {
    39d4:	00094b03          	lbu	s6,0(s2)
        p=memblock;
    39d8:	c64a                	sw	s2,12(sp)
        while (*p!=0) {
    39da:	ec0b1763          	bnez	s6,30a8 <.L1379>
    39de:	a039                	j	39ec <.L1600>

000039e0 <.L1312>:
                p+=step;
    39e0:	9952                	add	s2,s2,s4
    39e2:	c64a                	sw	s2,12(sp)
        while (p < (memblock+blksize)) { /* undo corruption is seed1 and seed2 are equal */
    39e4:	fb396163          	bltu	s2,s3,3186 <.L1314>
    39e8:	fb8ff06f          	j	31a0 <.L1308>

000039ec <.L1600>:
        ee_printf("\n");
    39ec:	414b8513          	addi	a0,s7,1044
    39f0:	dc9fe0ef          	jal	ra,27b8 <whisperPrintf>

000039f4 <.LVL1480>:
        p=memblock;
    39f4:	c64a                	sw	s2,12(sp)
        while (p < (memblock+blksize)) { /* undo corruption is seed1 and seed2 are equal */
    39f6:	f8cff06f          	j	3182 <.L1307>

000039fa <.L1599>:
        while (*p!=0) {
    39fa:	00094083          	lbu	ra,0(s2)
    39fe:	ea009563          	bnez	ra,30a8 <.L1379>
        ee_printf("\n");
    3a02:	414b8513          	addi	a0,s7,1044
    3a06:	db3fe0ef          	jal	ra,27b8 <whisperPrintf>

00003a0a <.LVL1482>:
        while (p < (memblock+blksize)) { /* undo corruption is seed1 and seed2 are equal */
    3a0a:	f96ff06f          	j	31a0 <.L1308>

00003a0e <core_init_state>:
void core_init_state(ee_u32 size, ee_s16 seed, ee_u8 *p) {
    3a0e:	1141                	addi	sp,sp,-16
    3a10:	c226                	sw	s1,4(sp)
    3a12:	c04a                	sw	s2,0(sp)
    3a14:	84aa                	mv	s1,a0
    3a16:	892e                	mv	s2,a1
        ee_printf("State: %d,%d\n",size,seed);
    3a18:	85aa                	mv	a1,a0

00003a1a <.LVL1484>:
    3a1a:	6541                	lui	a0,0x10

00003a1c <.LVL1485>:
void core_init_state(ee_u32 size, ee_s16 seed, ee_u8 *p) {
    3a1c:	c422                	sw	s0,8(sp)
        ee_printf("State: %d,%d\n",size,seed);
    3a1e:	15050513          	addi	a0,a0,336 # 10150 <.LC8>
void core_init_state(ee_u32 size, ee_s16 seed, ee_u8 *p) {
    3a22:	8432                	mv	s0,a2

00003a24 <.LVL1486>:
        ee_printf("State: %d,%d\n",size,seed);
    3a24:	864a                	mv	a2,s2

00003a26 <.LVL1487>:
void core_init_state(ee_u32 size, ee_s16 seed, ee_u8 *p) {
    3a26:	c606                	sw	ra,12(sp)
        ee_printf("State: %d,%d\n",size,seed);
    3a28:	d91fe0ef          	jal	ra,27b8 <whisperPrintf>

00003a2c <.LVL1488>:
        size--;
    3a2c:	fff48893          	addi	a7,s1,-1

00003a30 <.LVL1489>:
        while ((total+next+1)<size) {
    3a30:	4785                	li	a5,1
    3a32:	1117fb63          	bgeu	a5,a7,3b48 <.L1611>
    3a36:	00190693          	addi	a3,s2,1
    3a3a:	01069293          	slli	t0,a3,0x10
    3a3e:	6641                	lui	a2,0x10
    3a40:	0102d693          	srli	a3,t0,0x10
        ee_u32 total=0,next=0,i;
    3a44:	4081                	li	ra,0
    3a46:	0a860613          	addi	a2,a2,168 # 100a8 <intpat>
                switch (seed & 0x7) {
    3a4a:	4e1d                	li	t3,7
                                next=8;
    3a4c:	4ea1                	li	t4,8
                switch (seed & 0x7) {
    3a4e:	4811                	li	a6,4
    3a50:	4305                	li	t1,1
                        *(p+total+i)=',';
    3a52:	02c00593          	li	a1,44
    3a56:	a059                	j	3adc <.L1603>

00003a58 <.L1615>:
                switch (seed & 0x7) {
    3a58:	0ce86f63          	bltu	a6,a4,3b36 <.L1606>
    3a5c:	1775                	addi	a4,a4,-3
    3a5e:	01071913          	slli	s2,a4,0x10
                                buf=floatpat[(seed>>3) & 0x3];
    3a62:	0f0a                	slli	t5,t5,0x2
                switch (seed & 0x7) {
    3a64:	01095393          	srli	t2,s2,0x10
                                buf=floatpat[(seed>>3) & 0x3];
    3a68:	01e60533          	add	a0,a2,t5
                switch (seed & 0x7) {
    3a6c:	0c736063          	bltu	t1,t2,3b2c <.L1613>
                                buf=floatpat[(seed>>3) & 0x3];
    3a70:	01052383          	lw	t2,16(a0)

00003a74 <.LVL1491>:
                                next=8;
    3a74:	4fa1                	li	t6,8
                        break;
    3a76:	4525                	li	a0,9

00003a78 <.L1608>:
        while ((total+next+1)<size) {
    3a78:	00a08933          	add	s2,ra,a0
    3a7c:	09197463          	bgeu	s2,a7,3b04 <.L1614>

00003a80 <.L1609>:
                                *(p+total+i)=buf[i];
    3a80:	0003c283          	lbu	t0,0(t2)
    3a84:	90a2                	add	ra,ra,s0
    3a86:	00508023          	sb	t0,0(ra)

00003a8a <.LVL1494>:
    3a8a:	0013c783          	lbu	a5,1(t2)
    3a8e:	00f080a3          	sb	a5,1(ra)

00003a92 <.LVL1495>:
    3a92:	0023c703          	lbu	a4,2(t2)
    3a96:	00e08123          	sb	a4,2(ra)

00003a9a <.LVL1496>:
    3a9a:	0033cf03          	lbu	t5,3(t2)
    3a9e:	01e081a3          	sb	t5,3(ra)

00003aa2 <.LVL1497>:
                        for(i=0;i<next;i++)
    3aa2:	030f8463          	beq	t6,a6,3aca <.L1604>
                                *(p+total+i)=buf[i];
    3aa6:	0043c503          	lbu	a0,4(t2)
    3aaa:	00a08223          	sb	a0,4(ra)

00003aae <.LVL1498>:
    3aae:	0053c283          	lbu	t0,5(t2)
    3ab2:	005082a3          	sb	t0,5(ra)

00003ab6 <.LVL1499>:
    3ab6:	0063c783          	lbu	a5,6(t2)
    3aba:	00f08323          	sb	a5,6(ra)

00003abe <.LVL1500>:
                        for(i=0;i<next;i++)
    3abe:	01df9663          	bne	t6,t4,3aca <.L1604>
                                *(p+total+i)=buf[i];
    3ac2:	0073c383          	lbu	t2,7(t2)
    3ac6:	007083a3          	sb	t2,7(ra)

00003aca <.L1604>:
                        *(p+total+i)=',';
    3aca:	0685                	addi	a3,a3,1
    3acc:	9f86                	add	t6,t6,ra
    3ace:	01069093          	slli	ra,a3,0x10
    3ad2:	0100d693          	srli	a3,ra,0x10
    3ad6:	00bf8023          	sb	a1,0(t6)

00003ada <.LVL1502>:
    3ada:	80ca                	mv	ra,s2

00003adc <.L1603>:
                                buf=intpat[(seed>>3) & 0x3];
    3adc:	0036d393          	srli	t2,a3,0x3
    3ae0:	0076f713          	andi	a4,a3,7
    3ae4:	0033ff13          	andi	t5,t2,3
                switch (seed & 0x7) {
    3ae8:	f7c718e3          	bne	a4,t3,3a58 <.L1615>
                                buf=errpat[(seed>>3) & 0x3];
    3aec:	002f1f93          	slli	t6,t5,0x2
    3af0:	01f60933          	add	s2,a2,t6
                        break;
    3af4:	4525                	li	a0,9
                                buf=errpat[(seed>>3) & 0x3];
    3af6:	03092383          	lw	t2,48(s2)

00003afa <.LVL1504>:
        while ((total+next+1)<size) {
    3afa:	00a08933          	add	s2,ra,a0
                                next=8;
    3afe:	4fa1                	li	t6,8

00003b00 <.LVL1505>:
        while ((total+next+1)<size) {
    3b00:	f91960e3          	bltu	s2,a7,3a80 <.L1609>

00003b04 <.L1614>:
        while (total<size) { /* fill the rest with 0 */
    3b04:	0090f963          	bgeu	ra,s1,3b16 <.L1610>

00003b08 <.L1602>:
                *(p+total)=0;
    3b08:	40148633          	sub	a2,s1,ra
    3b0c:	4581                	li	a1,0
    3b0e:	00140533          	add	a0,s0,ra
    3b12:	3d6040ef          	jal	ra,7ee8 <memset>

00003b16 <.L1610>:
        ee_printf("State Input: %s\n",start);
    3b16:	85a2                	mv	a1,s0
}
    3b18:	4422                	lw	s0,8(sp)

00003b1a <.LVL1509>:
    3b1a:	40b2                	lw	ra,12(sp)
    3b1c:	4492                	lw	s1,4(sp)
    3b1e:	4902                	lw	s2,0(sp)
        ee_printf("State Input: %s\n",start);
    3b20:	6341                	lui	t1,0x10
    3b22:	16030513          	addi	a0,t1,352 # 10160 <.LC9>
}
    3b26:	0141                	addi	sp,sp,16
        ee_printf("State Input: %s\n",start);
    3b28:	c91fe06f          	j	27b8 <whisperPrintf>

00003b2c <.L1613>:
                                buf=intpat[(seed>>3) & 0x3];
    3b2c:	00052383          	lw	t2,0(a0)

00003b30 <.LVL1511>:
                                next=4;
    3b30:	4f91                	li	t6,4
                        break;
    3b32:	4515                	li	a0,5
    3b34:	b791                	j	3a78 <.L1608>

00003b36 <.L1606>:
                                buf=scipat[(seed>>3) & 0x3];
    3b36:	002f1793          	slli	a5,t5,0x2
    3b3a:	00f602b3          	add	t0,a2,a5
    3b3e:	0202a383          	lw	t2,32(t0)

00003b42 <.LVL1513>:
                        break;
    3b42:	4525                	li	a0,9
                                next=8;
    3b44:	4fa1                	li	t6,8
                        break;
    3b46:	bf0d                	j	3a78 <.L1608>

00003b48 <.L1611>:
        ee_u32 total=0,next=0,i;
    3b48:	4081                	li	ra,0
    3b4a:	bf7d                	j	3b08 <.L1602>

00003b4c <core_init_matrix>:
ee_u32 core_init_matrix(ee_u32 blksize, void *memblk, ee_s32 seed, mat_params *p) {
    3b4c:	7139                	addi	sp,sp,-64
    3b4e:	de06                	sw	ra,60(sp)
    3b50:	dc22                	sw	s0,56(sp)
    3b52:	da26                	sw	s1,52(sp)
    3b54:	d84a                	sw	s2,48(sp)
    3b56:	d64e                	sw	s3,44(sp)
    3b58:	d452                	sw	s4,40(sp)
    3b5a:	d256                	sw	s5,36(sp)
    3b5c:	d05a                	sw	s6,32(sp)
    3b5e:	ce5e                	sw	s7,28(sp)
    3b60:	cc62                	sw	s8,24(sp)
    3b62:	ca66                	sw	s9,20(sp)
    3b64:	c86a                	sw	s10,16(sp)
    3b66:	c66e                	sw	s11,12(sp)
    3b68:	80b6                	mv	ra,a3
        if (seed==0)
    3b6a:	e211                	bnez	a2,3b6e <.L1617>
                seed=1;
    3b6c:	4605                	li	a2,1

00003b6e <.L1617>:
        A=(MATDAT *)align_mem(memblk);
    3b6e:	fff58693          	addi	a3,a1,-1

00003b72 <.LVL1517>:
    3b72:	ffc6f293          	andi	t0,a3,-4
    3b76:	00428493          	addi	s1,t0,4
        while (j<blksize) {
    3b7a:	4781                	li	a5,0
    3b7c:	6c050463          	beqz	a0,4244 <.L1734>

00003b80 <.L1618>:
                i++;
    3b80:	00178393          	addi	t2,a5,1

00003b84 <.LVL1519>:
                j=i*i*2*4;
    3b84:	02738733          	mul	a4,t2,t2
                i++;
    3b88:	00278593          	addi	a1,a5,2
    3b8c:	00378813          	addi	a6,a5,3
    3b90:	00478e13          	addi	t3,a5,4
    3b94:	00578e93          	addi	t4,a5,5
    3b98:	00678893          	addi	a7,a5,6
    3b9c:	00778313          	addi	t1,a5,7
        while (j<blksize) {
    3ba0:	843e                	mv	s0,a5
                i++;
    3ba2:	07a1                	addi	a5,a5,8
                j=i*i*2*4;
    3ba4:	00371993          	slli	s3,a4,0x3
        while (j<blksize) {
    3ba8:	06a9f363          	bgeu	s3,a0,3c0e <.L1724>
                j=i*i*2*4;
    3bac:	02b58ab3          	mul	s5,a1,a1
    3bb0:	841e                	mv	s0,t2
    3bb2:	003a9b13          	slli	s6,s5,0x3
        while (j<blksize) {
    3bb6:	04ab7c63          	bgeu	s6,a0,3c0e <.L1724>
                j=i*i*2*4;
    3bba:	03080bb3          	mul	s7,a6,a6
    3bbe:	842e                	mv	s0,a1
    3bc0:	003b9c13          	slli	s8,s7,0x3
        while (j<blksize) {
    3bc4:	04ac7563          	bgeu	s8,a0,3c0e <.L1724>
                j=i*i*2*4;
    3bc8:	03ce0cb3          	mul	s9,t3,t3
    3bcc:	8442                	mv	s0,a6
    3bce:	003c9d93          	slli	s11,s9,0x3
        while (j<blksize) {
    3bd2:	02adfe63          	bgeu	s11,a0,3c0e <.L1724>
                j=i*i*2*4;
    3bd6:	03de8f33          	mul	t5,t4,t4
    3bda:	8472                	mv	s0,t3
    3bdc:	003f1f93          	slli	t6,t5,0x3
        while (j<blksize) {
    3be0:	02aff763          	bgeu	t6,a0,3c0e <.L1724>
                j=i*i*2*4;
    3be4:	031886b3          	mul	a3,a7,a7
    3be8:	8476                	mv	s0,t4
    3bea:	00369293          	slli	t0,a3,0x3
        while (j<blksize) {
    3bee:	02a2f063          	bgeu	t0,a0,3c0e <.L1724>
                j=i*i*2*4;
    3bf2:	02630933          	mul	s2,t1,t1
    3bf6:	8446                	mv	s0,a7
    3bf8:	00391d13          	slli	s10,s2,0x3
        while (j<blksize) {
    3bfc:	00ad7963          	bgeu	s10,a0,3c0e <.L1724>
                j=i*i*2*4;
    3c00:	02f78a33          	mul	s4,a5,a5
    3c04:	841a                	mv	s0,t1
    3c06:	003a1393          	slli	t2,s4,0x3
        while (j<blksize) {
    3c0a:	f6a3ebe3          	bltu	t2,a0,3b80 <.L1618>

00003c0e <.L1724>:
        B=A+N*N;
    3c0e:	02840533          	mul	a0,s0,s0

00003c12 <.LVL1521>:
        p->N=N;
    3c12:	8a22                	mv	s4,s0
        B=A+N*N;
    3c14:	00151593          	slli	a1,a0,0x1
    3c18:	00b48933          	add	s2,s1,a1

00003c1c <.LVL1522>:
        p->C=(MATRES *)align_mem(B+N*N);
    3c1c:	00b90833          	add	a6,s2,a1
    3c20:	fff80e13          	addi	t3,a6,-1
    3c24:	ffce7e93          	andi	t4,t3,-4
    3c28:	004e8d13          	addi	s10,t4,4
        for (i=0; i<N; i++) {
    3c2c:	62040363          	beqz	s0,4252 <.L1735>

00003c30 <.L1621>:
                        seed = ( ( order * seed ) % 65536 );
    3c30:	68c1                	lui	a7,0x10
        N=i-1;
    3c32:	4d81                	li	s11,0
    3c34:	4681                	li	a3,0
    3c36:	4f05                	li	t5,1
    3c38:	412482b3          	sub	t0,s1,s2
                        seed = ( ( order * seed ) % 65536 );
    3c3c:	fff88393          	addi	t2,a7,-1 # ffff <.LLST604+0x3d62>
                        order++;
    3c40:	fff40e13          	addi	t3,s0,-1

00003c44 <.L1626>:
                        seed = ( ( order * seed ) % 65536 );
    3c44:	02cf0ab3          	mul	s5,t5,a2
    3c48:	010f1313          	slli	t1,t5,0x10
    3c4c:	01035793          	srli	a5,t1,0x10
    3c50:	001d9713          	slli	a4,s11,0x1
    3c54:	01270b33          	add	s6,a4,s2
    3c58:	fff40c13          	addi	s8,s0,-1
                        A[i*N+j] = val;
    3c5c:	01628bb3          	add	s7,t0,s6
    3c60:	003c7c93          	andi	s9,s8,3

00003c64 <.LVL1525>:
                for (j=0; j<N; j++) {
    3c64:	4305                	li	t1,1
                        order++;
    3c66:	001f0513          	addi	a0,t5,1
                        seed = ( ( order * seed ) % 65536 );
    3c6a:	41fadf93          	srai	t6,s5,0x1f
    3c6e:	010fd813          	srli	a6,t6,0x10
    3c72:	010a8eb3          	add	t4,s5,a6
    3c76:	007ef9b3          	and	s3,t4,t2
    3c7a:	41098633          	sub	a2,s3,a6
                        val = (seed + order);
    3c7e:	00c788b3          	add	a7,a5,a2
    3c82:	01089a93          	slli	s5,a7,0x10
    3c86:	010ad713          	srli	a4,s5,0x10
                        val =  (val + order);
    3c8a:	97ba                	add	a5,a5,a4
                        B[i*N+j] = val;
    3c8c:	00eb1023          	sh	a4,0(s6)
                        val=matrix_clip(val,1);
    3c90:	0ff7fc13          	andi	s8,a5,255
                        A[i*N+j] = val;
    3c94:	018b9023          	sh	s8,0(s7)

00003c98 <.LVL1527>:
                for (j=0; j<N; j++) {
    3c98:	002b0593          	addi	a1,s6,2
    3c9c:	1e837663          	bgeu	t1,s0,3e88 <.L1728>
    3ca0:	0e0c8363          	beqz	s9,3d86 <.L1623>
    3ca4:	086c8c63          	beq	s9,t1,3d3c <.L1712>
    3ca8:	4b89                	li	s7,2
    3caa:	057c8663          	beq	s9,s7,3cf6 <.L1713>
                        seed = ( ( order * seed ) % 65536 );
    3cae:	02c50633          	mul	a2,a0,a2
    3cb2:	0542                	slli	a0,a0,0x10

00003cb4 <.LVL1528>:
    3cb4:	01055c93          	srli	s9,a0,0x10
                        A[i*N+j] = val;
    3cb8:	00b28fb3          	add	t6,t0,a1
                for (j=0; j<N; j++) {
    3cbc:	004b0593          	addi	a1,s6,4
                        order++;
    3cc0:	002f0513          	addi	a0,t5,2
                for (j=0; j<N; j++) {
    3cc4:	4309                	li	t1,2
                        seed = ( ( order * seed ) % 65536 );
    3cc6:	41f65813          	srai	a6,a2,0x1f
    3cca:	01085e93          	srli	t4,a6,0x10
    3cce:	01d609b3          	add	s3,a2,t4
    3cd2:	0079f8b3          	and	a7,s3,t2
    3cd6:	41d88633          	sub	a2,a7,t4
                        val = (seed + order);
    3cda:	00cc8ab3          	add	s5,s9,a2
    3cde:	010a9713          	slli	a4,s5,0x10
    3ce2:	01075c13          	srli	s8,a4,0x10
                        val =  (val + order);
    3ce6:	019c07b3          	add	a5,s8,s9
                        B[i*N+j] = val;
    3cea:	018b1123          	sh	s8,2(s6)
                        val=matrix_clip(val,1);
    3cee:	0ff7fb13          	andi	s6,a5,255
                        A[i*N+j] = val;
    3cf2:	016f9023          	sh	s6,0(t6)

00003cf6 <.L1713>:
                        seed = ( ( order * seed ) % 65536 );
    3cf6:	02c50bb3          	mul	s7,a0,a2
    3cfa:	01051613          	slli	a2,a0,0x10
    3cfe:	01065c93          	srli	s9,a2,0x10
                        A[i*N+j] = val;
    3d02:	00b28fb3          	add	t6,t0,a1
                for (j=0; j<N; j++) {
    3d06:	0305                	addi	t1,t1,1
                        val = (seed + order);
    3d08:	0505                	addi	a0,a0,1
                for (j=0; j<N; j++) {
    3d0a:	0589                	addi	a1,a1,2
                        seed = ( ( order * seed ) % 65536 );
    3d0c:	41fbd813          	srai	a6,s7,0x1f
    3d10:	01085e93          	srli	t4,a6,0x10
    3d14:	01db89b3          	add	s3,s7,t4
    3d18:	0079f8b3          	and	a7,s3,t2
    3d1c:	41d88633          	sub	a2,a7,t4
                        val = (seed + order);
    3d20:	00cc8ab3          	add	s5,s9,a2
    3d24:	010a9713          	slli	a4,s5,0x10
    3d28:	01075c13          	srli	s8,a4,0x10
                        val =  (val + order);
    3d2c:	019c07b3          	add	a5,s8,s9
                        B[i*N+j] = val;
    3d30:	ff859f23          	sh	s8,-2(a1)
                        val=matrix_clip(val,1);
    3d34:	0ff7fb13          	andi	s6,a5,255
                        A[i*N+j] = val;
    3d38:	016f9023          	sh	s6,0(t6)

00003d3c <.L1712>:
                        seed = ( ( order * seed ) % 65536 );
    3d3c:	02c50bb3          	mul	s7,a0,a2
    3d40:	01051613          	slli	a2,a0,0x10
    3d44:	01065c93          	srli	s9,a2,0x10
                        A[i*N+j] = val;
    3d48:	00b28fb3          	add	t6,t0,a1
                for (j=0; j<N; j++) {
    3d4c:	0589                	addi	a1,a1,2
    3d4e:	0305                	addi	t1,t1,1
                        val = (seed + order);
    3d50:	0505                	addi	a0,a0,1
                        seed = ( ( order * seed ) % 65536 );
    3d52:	41fbd813          	srai	a6,s7,0x1f
    3d56:	01085e93          	srli	t4,a6,0x10
    3d5a:	01db89b3          	add	s3,s7,t4
    3d5e:	0079f8b3          	and	a7,s3,t2
    3d62:	41d88633          	sub	a2,a7,t4
                        val = (seed + order);
    3d66:	00cc8ab3          	add	s5,s9,a2
    3d6a:	010a9713          	slli	a4,s5,0x10
    3d6e:	01075c13          	srli	s8,a4,0x10
                        val =  (val + order);
    3d72:	019c07b3          	add	a5,s8,s9
                        B[i*N+j] = val;
    3d76:	ff859f23          	sh	s8,-2(a1)
                        val=matrix_clip(val,1);
    3d7a:	0ff7fb13          	andi	s6,a5,255
                        A[i*N+j] = val;
    3d7e:	016f9023          	sh	s6,0(t6)
                for (j=0; j<N; j++) {
    3d82:	10837363          	bgeu	t1,s0,3e88 <.L1728>

00003d86 <.L1623>:
                        seed = ( ( order * seed ) % 65536 );
    3d86:	02c50633          	mul	a2,a0,a2
                        order++;
    3d8a:	00150e93          	addi	t4,a0,1
    3d8e:	010e9c93          	slli	s9,t4,0x10
    3d92:	00250993          	addi	s3,a0,2
    3d96:	00350a93          	addi	s5,a0,3
    3d9a:	010cdb13          	srli	s6,s9,0x10
    3d9e:	01099813          	slli	a6,s3,0x10
    3da2:	010a9713          	slli	a4,s5,0x10
    3da6:	01085893          	srli	a7,a6,0x10
    3daa:	01075813          	srli	a6,a4,0x10
                        seed = ( ( order * seed ) % 65536 );
    3dae:	41f65793          	srai	a5,a2,0x1f
    3db2:	0107dc93          	srli	s9,a5,0x10
    3db6:	9666                	add	a2,a2,s9
    3db8:	00767733          	and	a4,a2,t2
    3dbc:	419707b3          	sub	a5,a4,s9
    3dc0:	02fe8eb3          	mul	t4,t4,a5
    3dc4:	01051b93          	slli	s7,a0,0x10
    3dc8:	010bdf93          	srli	t6,s7,0x10
                        val = (seed + order);
    3dcc:	00ff8cb3          	add	s9,t6,a5
    3dd0:	010c9613          	slli	a2,s9,0x10
    3dd4:	01065713          	srli	a4,a2,0x10

00003dd8 <.LVL1530>:
                        val =  (val + order);
    3dd8:	9fba                	add	t6,t6,a4
                        A[i*N+j] = val;
    3dda:	00b28c33          	add	s8,t0,a1
                        B[i*N+j] = val;
    3dde:	00e59023          	sh	a4,0(a1)

00003de2 <.LVL1531>:
                        val=matrix_clip(val,1);
    3de2:	0ffff793          	andi	a5,t6,255
                        A[i*N+j] = val;
    3de6:	00fc1023          	sh	a5,0(s8)
    3dea:	8be2                	mv	s7,s8
    3dec:	8ce2                	mv	s9,s8
    3dee:	8fe2                	mv	t6,s8

00003df0 <.LVL1532>:
                        seed = ( ( order * seed ) % 65536 );
    3df0:	41fedc13          	srai	s8,t4,0x1f
    3df4:	010c5613          	srli	a2,s8,0x10
    3df8:	9eb2                	add	t4,t4,a2
    3dfa:	007ef733          	and	a4,t4,t2

00003dfe <.LVL1533>:
    3dfe:	40c70c33          	sub	s8,a4,a2
    3e02:	038989b3          	mul	s3,s3,s8
                        val = (seed + order);
    3e06:	018b07b3          	add	a5,s6,s8
    3e0a:	01079613          	slli	a2,a5,0x10
    3e0e:	01065e93          	srli	t4,a2,0x10
                        val =  (val + order);
    3e12:	9b76                	add	s6,s6,t4
                        B[i*N+j] = val;
    3e14:	01d59123          	sh	t4,2(a1)
                        val=matrix_clip(val,1);
    3e18:	0ffb7713          	andi	a4,s6,255
                        A[i*N+j] = val;
    3e1c:	00eb9123          	sh	a4,2(s7)
                for (j=0; j<N; j++) {
    3e20:	05a1                	addi	a1,a1,8
    3e22:	0311                	addi	t1,t1,4
                        seed = ( ( order * seed ) % 65536 );
    3e24:	41f9db93          	srai	s7,s3,0x1f
    3e28:	010bdc13          	srli	s8,s7,0x10
    3e2c:	99e2                	add	s3,s3,s8
    3e2e:	0079f7b3          	and	a5,s3,t2
    3e32:	41878633          	sub	a2,a5,s8
    3e36:	02ca8ab3          	mul	s5,s5,a2
                        val = (seed + order);
    3e3a:	00c88eb3          	add	t4,a7,a2
    3e3e:	010e9b13          	slli	s6,t4,0x10
    3e42:	010b5713          	srli	a4,s6,0x10
                        val =  (val + order);
    3e46:	98ba                	add	a7,a7,a4
                        B[i*N+j] = val;
    3e48:	fee59e23          	sh	a4,-4(a1)
                        val=matrix_clip(val,1);
    3e4c:	0ff8fb93          	andi	s7,a7,255
                        A[i*N+j] = val;
    3e50:	017c9223          	sh	s7,4(s9)
                        order++;
    3e54:	0511                	addi	a0,a0,4
                        seed = ( ( order * seed ) % 65536 );
    3e56:	41fadc93          	srai	s9,s5,0x1f
    3e5a:	010cdc13          	srli	s8,s9,0x10
    3e5e:	018a89b3          	add	s3,s5,s8
    3e62:	0079f7b3          	and	a5,s3,t2
    3e66:	41878633          	sub	a2,a5,s8
                        val = (seed + order);
    3e6a:	00c80ab3          	add	s5,a6,a2
    3e6e:	010a9e93          	slli	t4,s5,0x10
    3e72:	010edb13          	srli	s6,t4,0x10
                        val =  (val + order);
    3e76:	985a                	add	a6,a6,s6
                        B[i*N+j] = val;
    3e78:	ff659f23          	sh	s6,-2(a1)
                        val=matrix_clip(val,1);
    3e7c:	0ff87713          	andi	a4,a6,255
                        A[i*N+j] = val;
    3e80:	00ef9323          	sh	a4,6(t6)

00003e84 <.LVL1534>:
                for (j=0; j<N; j++) {
    3e84:	f08361e3          	bltu	t1,s0,3d86 <.L1623>

00003e88 <.L1728>:
    3e88:	0f05                	addi	t5,t5,1
                        order++;
    3e8a:	4301                	li	t1,0
    3e8c:	c011                	beqz	s0,3e90 <.L1625>
    3e8e:	8372                	mv	t1,t3

00003e90 <.L1625>:
        for (i=0; i<N; i++) {
    3e90:	0685                	addi	a3,a3,1

00003e92 <.LVL1536>:
                        order++;
    3e92:	9f1a                	add	t5,t5,t1

00003e94 <.LVL1537>:
        for (i=0; i<N; i++) {
    3e94:	9da2                	add	s11,s11,s0
    3e96:	da86e7e3          	bltu	a3,s0,3c44 <.L1626>
        p->C=(MATRES *)align_mem(B+N*N);
    3e9a:	01a0a623          	sw	s10,12(ra)
        p->N=N;
    3e9e:	0140a023          	sw	s4,0(ra)
        p->A=A;
    3ea2:	0090a223          	sw	s1,4(ra)
        p->B=B;
    3ea6:	0120a423          	sw	s2,8(ra)

00003eaa <.LBB864>:
        ee_printf("Matrix %s [%dx%d]:\n",name,N,N);
    3eaa:	6bc1                	lui	s7,0x10
    3eac:	60c1                	lui	ra,0x10

00003eae <.LVL1539>:
    3eae:	86a2                	mv	a3,s0

00003eb0 <.LVL1540>:
    3eb0:	8622                	mv	a2,s0
    3eb2:	17808593          	addi	a1,ra,376 # 10178 <.LC11>
    3eb6:	114b8513          	addi	a0,s7,276 # 10114 <.LC3>
    3eba:	8fffe0ef          	jal	ra,27b8 <whisperPrintf>

00003ebe <.LVL1541>:
        for (i=0; i<N; i++) {
    3ebe:	00141d13          	slli	s10,s0,0x1
        ee_printf("Matrix %s [%dx%d]:\n",name,N,N);
    3ec2:	4c81                	li	s9,0
    3ec4:	6a41                	lui	s4,0x10
    3ec6:	6ac1                	lui	s5,0x10
                                ee_printf(",");
    3ec8:	6c41                	lui	s8,0x10

00003eca <.L1635>:
                        if (j!=0)
    3eca:	fff40d93          	addi	s11,s0,-1
    3ece:	007df993          	andi	s3,s11,7

00003ed2 <.LBE864>:
        N=i-1;
    3ed2:	8b26                	mv	s6,s1

00003ed4 <.LBB869>:
                for (j=0; j<N; j++) {
    3ed4:	4d81                	li	s11,0
    3ed6:	16098663          	beqz	s3,4042 <.L1630>
                        ee_printf("%d",A[i*N+j]);
    3eda:	00049583          	lh	a1,0(s1)
    3ede:	12ca0513          	addi	a0,s4,300 # 1012c <.LC5>
                for (j=0; j<N; j++) {
    3ee2:	4d85                	li	s11,1
                        ee_printf("%d",A[i*N+j]);
    3ee4:	8d5fe0ef          	jal	ra,27b8 <whisperPrintf>

00003ee8 <.LVL1543>:
                for (j=0; j<N; j++) {
    3ee8:	00248b13          	addi	s6,s1,2
    3eec:	168df763          	bgeu	s11,s0,405a <.L1732>
                                ee_printf(",");
    3ef0:	128c0513          	addi	a0,s8,296 # 10128 <.LC4>
    3ef4:	8c5fe0ef          	jal	ra,27b8 <whisperPrintf>

00003ef8 <.LVL1544>:
    3ef8:	15b98563          	beq	s3,s11,4042 <.L1630>
    3efc:	4689                	li	a3,2
    3efe:	08d98b63          	beq	s3,a3,3f94 <.L1707>
    3f02:	428d                	li	t0,3
    3f04:	06598c63          	beq	s3,t0,3f7c <.L1708>
    3f08:	4391                	li	t2,4
    3f0a:	04798d63          	beq	s3,t2,3f64 <.L1709>
    3f0e:	4e15                	li	t3,5
    3f10:	03c98e63          	beq	s3,t3,3f4c <.L1710>
    3f14:	4599                	li	a1,6
    3f16:	00b98f63          	beq	s3,a1,3f34 <.L1711>
                        ee_printf("%d",A[i*N+j]);
    3f1a:	000b1583          	lh	a1,0(s6)
    3f1e:	12ca0513          	addi	a0,s4,300
                for (j=0; j<N; j++) {
    3f22:	4d89                	li	s11,2
                        ee_printf("%d",A[i*N+j]);
    3f24:	895fe0ef          	jal	ra,27b8 <whisperPrintf>

00003f28 <.LVL1545>:
                                ee_printf(",");
    3f28:	128c0513          	addi	a0,s8,296
                for (j=0; j<N; j++) {
    3f2c:	00448b13          	addi	s6,s1,4
                                ee_printf(",");
    3f30:	889fe0ef          	jal	ra,27b8 <whisperPrintf>

00003f34 <.L1711>:
                        ee_printf("%d",A[i*N+j]);
    3f34:	000b1583          	lh	a1,0(s6)
    3f38:	12ca0513          	addi	a0,s4,300
                for (j=0; j<N; j++) {
    3f3c:	0d85                	addi	s11,s11,1
                        ee_printf("%d",A[i*N+j]);
    3f3e:	87bfe0ef          	jal	ra,27b8 <whisperPrintf>

00003f42 <.LVL1547>:
                                ee_printf(",");
    3f42:	128c0513          	addi	a0,s8,296
                for (j=0; j<N; j++) {
    3f46:	0b09                	addi	s6,s6,2
                                ee_printf(",");
    3f48:	871fe0ef          	jal	ra,27b8 <whisperPrintf>

00003f4c <.L1710>:
                        ee_printf("%d",A[i*N+j]);
    3f4c:	000b1583          	lh	a1,0(s6)
    3f50:	12ca0513          	addi	a0,s4,300
                for (j=0; j<N; j++) {
    3f54:	0d85                	addi	s11,s11,1
                        ee_printf("%d",A[i*N+j]);
    3f56:	863fe0ef          	jal	ra,27b8 <whisperPrintf>

00003f5a <.LVL1549>:
                                ee_printf(",");
    3f5a:	128c0513          	addi	a0,s8,296
                for (j=0; j<N; j++) {
    3f5e:	0b09                	addi	s6,s6,2
                                ee_printf(",");
    3f60:	859fe0ef          	jal	ra,27b8 <whisperPrintf>

00003f64 <.L1709>:
                        ee_printf("%d",A[i*N+j]);
    3f64:	000b1583          	lh	a1,0(s6)
    3f68:	12ca0513          	addi	a0,s4,300
                for (j=0; j<N; j++) {
    3f6c:	0d85                	addi	s11,s11,1
                        ee_printf("%d",A[i*N+j]);
    3f6e:	84bfe0ef          	jal	ra,27b8 <whisperPrintf>

00003f72 <.LVL1551>:
                                ee_printf(",");
    3f72:	128c0513          	addi	a0,s8,296
                for (j=0; j<N; j++) {
    3f76:	0b09                	addi	s6,s6,2
                                ee_printf(",");
    3f78:	841fe0ef          	jal	ra,27b8 <whisperPrintf>

00003f7c <.L1708>:
                        ee_printf("%d",A[i*N+j]);
    3f7c:	000b1583          	lh	a1,0(s6)
    3f80:	12ca0513          	addi	a0,s4,300
                for (j=0; j<N; j++) {
    3f84:	0d85                	addi	s11,s11,1
                        ee_printf("%d",A[i*N+j]);
    3f86:	833fe0ef          	jal	ra,27b8 <whisperPrintf>

00003f8a <.LVL1553>:
                                ee_printf(",");
    3f8a:	128c0513          	addi	a0,s8,296
                for (j=0; j<N; j++) {
    3f8e:	0b09                	addi	s6,s6,2
                                ee_printf(",");
    3f90:	829fe0ef          	jal	ra,27b8 <whisperPrintf>

00003f94 <.L1707>:
                        ee_printf("%d",A[i*N+j]);
    3f94:	000b1583          	lh	a1,0(s6)
    3f98:	12ca0513          	addi	a0,s4,300
                for (j=0; j<N; j++) {
    3f9c:	0d85                	addi	s11,s11,1
                        ee_printf("%d",A[i*N+j]);
    3f9e:	81bfe0ef          	jal	ra,27b8 <whisperPrintf>

00003fa2 <.LVL1555>:
                                ee_printf(",");
    3fa2:	128c0513          	addi	a0,s8,296
                for (j=0; j<N; j++) {
    3fa6:	0b09                	addi	s6,s6,2
                                ee_printf(",");
    3fa8:	811fe0ef          	jal	ra,27b8 <whisperPrintf>

00003fac <.LVL1556>:
    3fac:	a859                	j	4042 <.L1630>

00003fae <.L1628>:
    3fae:	80bfe0ef          	jal	ra,27b8 <whisperPrintf>

00003fb2 <.LVL1557>:
                        ee_printf("%d",A[i*N+j]);
    3fb2:	002b1583          	lh	a1,2(s6)
    3fb6:	12ca0513          	addi	a0,s4,300
                for (j=0; j<N; j++) {
    3fba:	0b41                	addi	s6,s6,16
                        ee_printf("%d",A[i*N+j]);
    3fbc:	ffcfe0ef          	jal	ra,27b8 <whisperPrintf>

00003fc0 <.LVL1558>:
                                ee_printf(",");
    3fc0:	128c0513          	addi	a0,s8,296
    3fc4:	ff4fe0ef          	jal	ra,27b8 <whisperPrintf>

00003fc8 <.LVL1559>:
                        ee_printf("%d",A[i*N+j]);
    3fc8:	ff4b1583          	lh	a1,-12(s6)
    3fcc:	12ca0513          	addi	a0,s4,300
                for (j=0; j<N; j++) {
    3fd0:	0da1                	addi	s11,s11,8
                        ee_printf("%d",A[i*N+j]);
    3fd2:	fe6fe0ef          	jal	ra,27b8 <whisperPrintf>

00003fd6 <.LVL1560>:
                                ee_printf(",");
    3fd6:	128c0513          	addi	a0,s8,296
    3fda:	fdefe0ef          	jal	ra,27b8 <whisperPrintf>

00003fde <.LVL1561>:
                        ee_printf("%d",A[i*N+j]);
    3fde:	ff6b1583          	lh	a1,-10(s6)
    3fe2:	12ca0513          	addi	a0,s4,300
    3fe6:	fd2fe0ef          	jal	ra,27b8 <whisperPrintf>

00003fea <.LVL1562>:
                                ee_printf(",");
    3fea:	128c0513          	addi	a0,s8,296
    3fee:	fcafe0ef          	jal	ra,27b8 <whisperPrintf>

00003ff2 <.LVL1563>:
                        ee_printf("%d",A[i*N+j]);
    3ff2:	ff8b1583          	lh	a1,-8(s6)
    3ff6:	12ca0513          	addi	a0,s4,300
    3ffa:	fbefe0ef          	jal	ra,27b8 <whisperPrintf>

00003ffe <.LVL1564>:
                                ee_printf(",");
    3ffe:	128c0513          	addi	a0,s8,296
    4002:	fb6fe0ef          	jal	ra,27b8 <whisperPrintf>

00004006 <.LVL1565>:
                        ee_printf("%d",A[i*N+j]);
    4006:	ffab1583          	lh	a1,-6(s6)
    400a:	12ca0513          	addi	a0,s4,300
    400e:	faafe0ef          	jal	ra,27b8 <whisperPrintf>

00004012 <.LVL1566>:
                                ee_printf(",");
    4012:	128c0513          	addi	a0,s8,296
    4016:	fa2fe0ef          	jal	ra,27b8 <whisperPrintf>

0000401a <.LVL1567>:
                        ee_printf("%d",A[i*N+j]);
    401a:	ffcb1583          	lh	a1,-4(s6)
    401e:	12ca0513          	addi	a0,s4,300
    4022:	f96fe0ef          	jal	ra,27b8 <whisperPrintf>

00004026 <.LVL1568>:
                                ee_printf(",");
    4026:	128c0513          	addi	a0,s8,296
    402a:	f8efe0ef          	jal	ra,27b8 <whisperPrintf>

0000402e <.LVL1569>:
                        ee_printf("%d",A[i*N+j]);
    402e:	ffeb1583          	lh	a1,-2(s6)
    4032:	12ca0513          	addi	a0,s4,300
    4036:	f82fe0ef          	jal	ra,27b8 <whisperPrintf>

0000403a <.LVL1570>:
                                ee_printf(",");
    403a:	128c0513          	addi	a0,s8,296
    403e:	f7afe0ef          	jal	ra,27b8 <whisperPrintf>

00004042 <.L1630>:
                        ee_printf("%d",A[i*N+j]);
    4042:	000b1583          	lh	a1,0(s6)
    4046:	12ca0513          	addi	a0,s4,300
    404a:	f6efe0ef          	jal	ra,27b8 <whisperPrintf>

0000404e <.LVL1572>:
                for (j=0; j<N; j++) {
    404e:	001d8f93          	addi	t6,s11,1
                                ee_printf(",");
    4052:	128c0513          	addi	a0,s8,296
                for (j=0; j<N; j++) {
    4056:	f48fece3          	bltu	t6,s0,3fae <.L1628>

0000405a <.L1732>:
                ee_printf("\n");
    405a:	414a8513          	addi	a0,s5,1044 # 10414 <.LC1>
        for (i=0; i<N; i++) {
    405e:	0c85                	addi	s9,s9,1

00004060 <.LVL1573>:
                ee_printf("\n");
    4060:	f58fe0ef          	jal	ra,27b8 <whisperPrintf>

00004064 <.LVL1574>:
        for (i=0; i<N; i++) {
    4064:	94ea                	add	s1,s1,s10
    4066:	e68ce2e3          	bltu	s9,s0,3eca <.L1635>

0000406a <.LBB870>:
        ee_printf("Matrix %s [%dx%d]:\n",name,N,N);
    406a:	64c1                	lui	s1,0x10
    406c:	114b8513          	addi	a0,s7,276
    4070:	86a2                	mv	a3,s0
    4072:	8622                	mv	a2,s0
    4074:	17448593          	addi	a1,s1,372 # 10174 <.LC10>
    4078:	f40fe0ef          	jal	ra,27b8 <whisperPrintf>

0000407c <.LVL1576>:
    407c:	4d01                	li	s10,0
    407e:	4b81                	li	s7,0
                                ee_printf(",");
    4080:	6c41                	lui	s8,0x10

00004082 <.L1634>:
                        if (j!=0)
    4082:	fff40513          	addi	a0,s0,-1
    4086:	001d1613          	slli	a2,s10,0x1
    408a:	00757993          	andi	s3,a0,7
    408e:	00c90db3          	add	s11,s2,a2
                for (j=0; j<N; j++) {
    4092:	4c81                	li	s9,0
    4094:	16098463          	beqz	s3,41fc <.L1633>
                        ee_printf("%d",A[i*N+j]);
    4098:	000d9583          	lh	a1,0(s11)
    409c:	12ca0513          	addi	a0,s4,300
                for (j=0; j<N; j++) {
    40a0:	4c85                	li	s9,1
                        ee_printf("%d",A[i*N+j]);
    40a2:	f16fe0ef          	jal	ra,27b8 <whisperPrintf>

000040a6 <.LVL1578>:
                for (j=0; j<N; j++) {
    40a6:	0d89                	addi	s11,s11,2
    40a8:	168cf663          	bgeu	s9,s0,4214 <.L1731>
                                ee_printf(",");
    40ac:	128c0513          	addi	a0,s8,296 # 10128 <.LC4>
    40b0:	f08fe0ef          	jal	ra,27b8 <whisperPrintf>

000040b4 <.LVL1579>:
    40b4:	15998463          	beq	s3,s9,41fc <.L1633>
    40b8:	4889                	li	a7,2
    40ba:	09198a63          	beq	s3,a7,414e <.L1702>
    40be:	478d                	li	a5,3
    40c0:	06f98b63          	beq	s3,a5,4136 <.L1703>
    40c4:	4e91                	li	t4,4
    40c6:	05d98c63          	beq	s3,t4,411e <.L1704>
    40ca:	4815                	li	a6,5
    40cc:	03098d63          	beq	s3,a6,4106 <.L1705>
    40d0:	4719                	li	a4,6
    40d2:	00e98e63          	beq	s3,a4,40ee <.L1706>
                        ee_printf("%d",A[i*N+j]);
    40d6:	000d9583          	lh	a1,0(s11)
    40da:	12ca0513          	addi	a0,s4,300
                for (j=0; j<N; j++) {
    40de:	4c89                	li	s9,2
                        ee_printf("%d",A[i*N+j]);
    40e0:	ed8fe0ef          	jal	ra,27b8 <whisperPrintf>

000040e4 <.LVL1580>:
                                ee_printf(",");
    40e4:	128c0513          	addi	a0,s8,296
                for (j=0; j<N; j++) {
    40e8:	0d89                	addi	s11,s11,2
                                ee_printf(",");
    40ea:	ecefe0ef          	jal	ra,27b8 <whisperPrintf>

000040ee <.L1706>:
                        ee_printf("%d",A[i*N+j]);
    40ee:	000d9583          	lh	a1,0(s11)
    40f2:	12ca0513          	addi	a0,s4,300
                for (j=0; j<N; j++) {
    40f6:	0c85                	addi	s9,s9,1
                        ee_printf("%d",A[i*N+j]);
    40f8:	ec0fe0ef          	jal	ra,27b8 <whisperPrintf>

000040fc <.LVL1582>:
                                ee_printf(",");
    40fc:	128c0513          	addi	a0,s8,296
                for (j=0; j<N; j++) {
    4100:	0d89                	addi	s11,s11,2
                                ee_printf(",");
    4102:	eb6fe0ef          	jal	ra,27b8 <whisperPrintf>

00004106 <.L1705>:
                        ee_printf("%d",A[i*N+j]);
    4106:	000d9583          	lh	a1,0(s11)
    410a:	12ca0513          	addi	a0,s4,300
                for (j=0; j<N; j++) {
    410e:	0c85                	addi	s9,s9,1
                        ee_printf("%d",A[i*N+j]);
    4110:	ea8fe0ef          	jal	ra,27b8 <whisperPrintf>

00004114 <.LVL1584>:
                                ee_printf(",");
    4114:	128c0513          	addi	a0,s8,296
                for (j=0; j<N; j++) {
    4118:	0d89                	addi	s11,s11,2
                                ee_printf(",");
    411a:	e9efe0ef          	jal	ra,27b8 <whisperPrintf>

0000411e <.L1704>:
                        ee_printf("%d",A[i*N+j]);
    411e:	000d9583          	lh	a1,0(s11)
    4122:	12ca0513          	addi	a0,s4,300
                for (j=0; j<N; j++) {
    4126:	0c85                	addi	s9,s9,1
                        ee_printf("%d",A[i*N+j]);
    4128:	e90fe0ef          	jal	ra,27b8 <whisperPrintf>

0000412c <.LVL1586>:
                                ee_printf(",");
    412c:	128c0513          	addi	a0,s8,296
                for (j=0; j<N; j++) {
    4130:	0d89                	addi	s11,s11,2
                                ee_printf(",");
    4132:	e86fe0ef          	jal	ra,27b8 <whisperPrintf>

00004136 <.L1703>:
                        ee_printf("%d",A[i*N+j]);
    4136:	000d9583          	lh	a1,0(s11)
    413a:	12ca0513          	addi	a0,s4,300
                for (j=0; j<N; j++) {
    413e:	0c85                	addi	s9,s9,1
                        ee_printf("%d",A[i*N+j]);
    4140:	e78fe0ef          	jal	ra,27b8 <whisperPrintf>

00004144 <.LVL1588>:
                                ee_printf(",");
    4144:	128c0513          	addi	a0,s8,296
                for (j=0; j<N; j++) {
    4148:	0d89                	addi	s11,s11,2
                                ee_printf(",");
    414a:	e6efe0ef          	jal	ra,27b8 <whisperPrintf>

0000414e <.L1702>:
                        ee_printf("%d",A[i*N+j]);
    414e:	000d9583          	lh	a1,0(s11)
    4152:	12ca0513          	addi	a0,s4,300
                for (j=0; j<N; j++) {
    4156:	0c85                	addi	s9,s9,1
                        ee_printf("%d",A[i*N+j]);
    4158:	e60fe0ef          	jal	ra,27b8 <whisperPrintf>

0000415c <.LVL1590>:
                                ee_printf(",");
    415c:	128c0513          	addi	a0,s8,296
                for (j=0; j<N; j++) {
    4160:	0d89                	addi	s11,s11,2
                                ee_printf(",");
    4162:	e56fe0ef          	jal	ra,27b8 <whisperPrintf>

00004166 <.LVL1591>:
    4166:	a859                	j	41fc <.L1633>

00004168 <.L1631>:
    4168:	e50fe0ef          	jal	ra,27b8 <whisperPrintf>

0000416c <.LVL1592>:
                        ee_printf("%d",A[i*N+j]);
    416c:	002d9583          	lh	a1,2(s11)
    4170:	12ca0513          	addi	a0,s4,300
                for (j=0; j<N; j++) {
    4174:	0dc1                	addi	s11,s11,16
                        ee_printf("%d",A[i*N+j]);
    4176:	e42fe0ef          	jal	ra,27b8 <whisperPrintf>

0000417a <.LVL1593>:
                                ee_printf(",");
    417a:	128c0513          	addi	a0,s8,296
    417e:	e3afe0ef          	jal	ra,27b8 <whisperPrintf>

00004182 <.LVL1594>:
                        ee_printf("%d",A[i*N+j]);
    4182:	ff4d9583          	lh	a1,-12(s11)
    4186:	12ca0513          	addi	a0,s4,300
                for (j=0; j<N; j++) {
    418a:	0ca1                	addi	s9,s9,8
                        ee_printf("%d",A[i*N+j]);
    418c:	e2cfe0ef          	jal	ra,27b8 <whisperPrintf>

00004190 <.LVL1595>:
                                ee_printf(",");
    4190:	128c0513          	addi	a0,s8,296
    4194:	e24fe0ef          	jal	ra,27b8 <whisperPrintf>

00004198 <.LVL1596>:
                        ee_printf("%d",A[i*N+j]);
    4198:	ff6d9583          	lh	a1,-10(s11)
    419c:	12ca0513          	addi	a0,s4,300
    41a0:	e18fe0ef          	jal	ra,27b8 <whisperPrintf>

000041a4 <.LVL1597>:
                                ee_printf(",");
    41a4:	128c0513          	addi	a0,s8,296
    41a8:	e10fe0ef          	jal	ra,27b8 <whisperPrintf>

000041ac <.LVL1598>:
                        ee_printf("%d",A[i*N+j]);
    41ac:	ff8d9583          	lh	a1,-8(s11)
    41b0:	12ca0513          	addi	a0,s4,300
    41b4:	e04fe0ef          	jal	ra,27b8 <whisperPrintf>

000041b8 <.LVL1599>:
                                ee_printf(",");
    41b8:	128c0513          	addi	a0,s8,296
    41bc:	dfcfe0ef          	jal	ra,27b8 <whisperPrintf>

000041c0 <.LVL1600>:
                        ee_printf("%d",A[i*N+j]);
    41c0:	ffad9583          	lh	a1,-6(s11)
    41c4:	12ca0513          	addi	a0,s4,300
    41c8:	df0fe0ef          	jal	ra,27b8 <whisperPrintf>

000041cc <.LVL1601>:
                                ee_printf(",");
    41cc:	128c0513          	addi	a0,s8,296
    41d0:	de8fe0ef          	jal	ra,27b8 <whisperPrintf>

000041d4 <.LVL1602>:
                        ee_printf("%d",A[i*N+j]);
    41d4:	ffcd9583          	lh	a1,-4(s11)
    41d8:	12ca0513          	addi	a0,s4,300
    41dc:	ddcfe0ef          	jal	ra,27b8 <whisperPrintf>

000041e0 <.LVL1603>:
                                ee_printf(",");
    41e0:	128c0513          	addi	a0,s8,296
    41e4:	dd4fe0ef          	jal	ra,27b8 <whisperPrintf>

000041e8 <.LVL1604>:
                        ee_printf("%d",A[i*N+j]);
    41e8:	ffed9583          	lh	a1,-2(s11)
    41ec:	12ca0513          	addi	a0,s4,300
    41f0:	dc8fe0ef          	jal	ra,27b8 <whisperPrintf>

000041f4 <.LVL1605>:
                                ee_printf(",");
    41f4:	128c0513          	addi	a0,s8,296
    41f8:	dc0fe0ef          	jal	ra,27b8 <whisperPrintf>

000041fc <.L1633>:
                        ee_printf("%d",A[i*N+j]);
    41fc:	000d9583          	lh	a1,0(s11)
    4200:	12ca0513          	addi	a0,s4,300
    4204:	db4fe0ef          	jal	ra,27b8 <whisperPrintf>

00004208 <.LVL1607>:
                for (j=0; j<N; j++) {
    4208:	001c8f13          	addi	t5,s9,1
                                ee_printf(",");
    420c:	128c0513          	addi	a0,s8,296
                for (j=0; j<N; j++) {
    4210:	f48f6ce3          	bltu	t5,s0,4168 <.L1631>

00004214 <.L1731>:
                ee_printf("\n");
    4214:	414a8513          	addi	a0,s5,1044
        for (i=0; i<N; i++) {
    4218:	0b85                	addi	s7,s7,1

0000421a <.LVL1608>:
                ee_printf("\n");
    421a:	d9efe0ef          	jal	ra,27b8 <whisperPrintf>

0000421e <.LVL1609>:
        for (i=0; i<N; i++) {
    421e:	9d22                	add	s10,s10,s0
    4220:	e68be1e3          	bltu	s7,s0,4082 <.L1634>

00004224 <.L1616>:
}
    4224:	50f2                	lw	ra,60(sp)
    4226:	8522                	mv	a0,s0
    4228:	5462                	lw	s0,56(sp)
    422a:	54d2                	lw	s1,52(sp)
    422c:	5942                	lw	s2,48(sp)
    422e:	59b2                	lw	s3,44(sp)
    4230:	5a22                	lw	s4,40(sp)
    4232:	5a92                	lw	s5,36(sp)
    4234:	5b02                	lw	s6,32(sp)
    4236:	4bf2                	lw	s7,28(sp)
    4238:	4c62                	lw	s8,24(sp)
    423a:	4cd2                	lw	s9,20(sp)
    423c:	4d42                	lw	s10,16(sp)
    423e:	4db2                	lw	s11,12(sp)
    4240:	6121                	addi	sp,sp,64
    4242:	8082                	ret

00004244 <.L1734>:
        B=A+N*N;
    4244:	00628913          	addi	s2,t0,6

00004248 <.LVL1612>:
        p->C=(MATRES *)align_mem(B+N*N);
    4248:	00828d13          	addi	s10,t0,8
    424c:	5a7d                	li	s4,-1
        N=i-1;
    424e:	547d                	li	s0,-1
    4250:	b2c5                	j	3c30 <.L1621>

00004252 <.L1735>:
        ee_printf("Matrix %s [%dx%d]:\n",name,N,N);
    4252:	69c1                	lui	s3,0x10
    4254:	6641                	lui	a2,0x10
    4256:	17860593          	addi	a1,a2,376 # 10178 <.LC11>

0000425a <.LBE873>:
        p->A=A;
    425a:	0090a223          	sw	s1,4(ra)
        p->B=B;
    425e:	0120a423          	sw	s2,8(ra)
        p->C=(MATRES *)align_mem(B+N*N);
    4262:	01a0a623          	sw	s10,12(ra)
        p->N=N;
    4266:	0000a023          	sw	zero,0(ra)

0000426a <.LBB874>:
        ee_printf("Matrix %s [%dx%d]:\n",name,N,N);
    426a:	4681                	li	a3,0
    426c:	4601                	li	a2,0
    426e:	11498513          	addi	a0,s3,276 # 10114 <.LC3>

00004272 <.LVL1616>:
    4272:	d46fe0ef          	jal	ra,27b8 <whisperPrintf>

00004276 <.LBB875>:
    4276:	64c1                	lui	s1,0x10

00004278 <.LVL1618>:
    4278:	4681                	li	a3,0
    427a:	4601                	li	a2,0
    427c:	17448593          	addi	a1,s1,372 # 10174 <.LC10>
    4280:	11498513          	addi	a0,s3,276
    4284:	d34fe0ef          	jal	ra,27b8 <whisperPrintf>

00004288 <.LVL1619>:
        for (i=0; i<N; i++) {
    4288:	bf71                	j	4224 <.L1616>

0000428a <matrix_test>:
ee_s16 matrix_test(ee_u32 N, MATRES *C, MATDAT *A, MATDAT *B, MATDAT val) {
    428a:	7159                	addi	sp,sp,-112
    428c:	c0ea                	sw	s10,64(sp)
    428e:	de6e                	sw	s11,60(sp)
        MATDAT clipval=matrix_big(val);
    4290:	77fd                	lui	a5,0xfffff
ee_s16 matrix_test(ee_u32 N, MATRES *C, MATDAT *A, MATDAT *B, MATDAT val) {
    4292:	d686                	sw	ra,108(sp)
    4294:	d4a2                	sw	s0,104(sp)
    4296:	d2a6                	sw	s1,100(sp)
    4298:	d0ca                	sw	s2,96(sp)
    429a:	cece                	sw	s3,92(sp)
    429c:	ccd2                	sw	s4,88(sp)
    429e:	cad6                	sw	s5,84(sp)
    42a0:	c8da                	sw	s6,80(sp)
    42a2:	c6de                	sw	s7,76(sp)
    42a4:	c4e2                	sw	s8,72(sp)
    42a6:	c2e6                	sw	s9,68(sp)
    42a8:	d03a                	sw	a4,32(sp)
    42aa:	c62e                	sw	a1,12(sp)
    42ac:	ca32                	sw	a2,20(sp)
    42ae:	c836                	sw	a3,16(sp)
    42b0:	8daa                	mv	s11,a0
        MATDAT clipval=matrix_big(val);
    42b2:	00f76d33          	or	s10,a4,a5

000042b6 <.LBB939>:
        for (i=0; i<N; i++) {
    42b6:	e119                	bnez	a0,42bc <.LBB939+0x6>
    42b8:	3880206f          	j	6640 <.L1737>
    42bc:	00151313          	slli	t1,a0,0x1
    42c0:	40a00bb3          	neg	s7,a0
    42c4:	00c30a33          	add	s4,t1,a2

000042c8 <.LBE939>:
        matrix_add_const(N,A,-val); /* return matrix to initial value */
    42c8:	01071393          	slli	t2,a4,0x10
    42cc:	001b9c93          	slli	s9,s7,0x1
    42d0:	841a                	mv	s0,t1
    42d2:	0103d693          	srli	a3,t2,0x10

000042d6 <.LVL1622>:
    42d6:	8652                	mv	a2,s4

000042d8 <.LBB943>:
        for (i=0; i<N; i++) {
    42d8:	4a81                	li	s5,0
    42da:	0b8a                	slli	s7,s7,0x2

000042dc <.L1738>:
                for (j=0; j<N; j++) {
    42dc:	00cc84b3          	add	s1,s9,a2
    42e0:	40960533          	sub	a0,a2,s1
    42e4:	ffe50813          	addi	a6,a0,-2
    42e8:	00185893          	srli	a7,a6,0x1
    42ec:	00188913          	addi	s2,a7,1
    42f0:	00797993          	andi	s3,s2,7

000042f4 <.LBE943>:
ee_s16 matrix_test(ee_u32 N, MATRES *C, MATDAT *A, MATDAT *B, MATDAT val) {
    42f4:	87a6                	mv	a5,s1
    42f6:	08098863          	beqz	s3,4386 <.L1739>
    42fa:	4b05                	li	s6,1
    42fc:	07698c63          	beq	s3,s6,4374 <.L2290>
    4300:	4c09                	li	s8,2
    4302:	07898263          	beq	s3,s8,4366 <.L2291>
    4306:	4e0d                	li	t3,3
    4308:	05c98863          	beq	s3,t3,4358 <.L2292>
    430c:	4e91                	li	t4,4
    430e:	03d98e63          	beq	s3,t4,434a <.L2293>
    4312:	4f15                	li	t5,5
    4314:	03e98463          	beq	s3,t5,433c <.L2294>
    4318:	4f99                	li	t6,6
    431a:	01f98a63          	beq	s3,t6,432e <.L2295>

0000431e <.LBB944>:
                        A[i*N+j] += val;
    431e:	0004d083          	lhu	ra,0(s1)
                for (j=0; j<N; j++) {
    4322:	00248793          	addi	a5,s1,2
                        A[i*N+j] += val;
    4326:	001685b3          	add	a1,a3,ra
    432a:	00b49023          	sh	a1,0(s1)

0000432e <.L2295>:
    432e:	0007d703          	lhu	a4,0(a5) # fffff000 <STACK+0xfffe6930>
                for (j=0; j<N; j++) {
    4332:	0789                	addi	a5,a5,2
                        A[i*N+j] += val;
    4334:	00e682b3          	add	t0,a3,a4
    4338:	fe579f23          	sh	t0,-2(a5)

0000433c <.L2294>:
    433c:	0007d303          	lhu	t1,0(a5)
                for (j=0; j<N; j++) {
    4340:	0789                	addi	a5,a5,2
                        A[i*N+j] += val;
    4342:	006683b3          	add	t2,a3,t1
    4346:	fe779f23          	sh	t2,-2(a5)

0000434a <.L2293>:
    434a:	0007d503          	lhu	a0,0(a5)
                for (j=0; j<N; j++) {
    434e:	0789                	addi	a5,a5,2
                        A[i*N+j] += val;
    4350:	00a68833          	add	a6,a3,a0
    4354:	ff079f23          	sh	a6,-2(a5)

00004358 <.L2292>:
    4358:	0007d883          	lhu	a7,0(a5)
                for (j=0; j<N; j++) {
    435c:	0789                	addi	a5,a5,2
                        A[i*N+j] += val;
    435e:	01168933          	add	s2,a3,a7
    4362:	ff279f23          	sh	s2,-2(a5)

00004366 <.L2291>:
    4366:	0007d983          	lhu	s3,0(a5)
                for (j=0; j<N; j++) {
    436a:	0789                	addi	a5,a5,2
                        A[i*N+j] += val;
    436c:	01368b33          	add	s6,a3,s3
    4370:	ff679f23          	sh	s6,-2(a5)

00004374 <.L2290>:
    4374:	0007dc03          	lhu	s8,0(a5)
                for (j=0; j<N; j++) {
    4378:	0789                	addi	a5,a5,2
                        A[i*N+j] += val;
    437a:	01868e33          	add	t3,a3,s8
    437e:	ffc79f23          	sh	t3,-2(a5)
                for (j=0; j<N; j++) {
    4382:	06c78563          	beq	a5,a2,43ec <.L2509>

00004386 <.L1739>:
                        A[i*N+j] += val;
    4386:	0007df03          	lhu	t5,0(a5)
    438a:	0027de83          	lhu	t4,2(a5)
    438e:	0047df83          	lhu	t6,4(a5)
    4392:	0067d083          	lhu	ra,6(a5)
    4396:	0087d583          	lhu	a1,8(a5)
    439a:	00a7d283          	lhu	t0,10(a5)
    439e:	00c7d383          	lhu	t2,12(a5)
    43a2:	00e7d703          	lhu	a4,14(a5)
    43a6:	01e68933          	add	s2,a3,t5
    43aa:	01d689b3          	add	s3,a3,t4
    43ae:	01f68b33          	add	s6,a3,t6
    43b2:	00168333          	add	t1,a3,ra
    43b6:	00b688b3          	add	a7,a3,a1
    43ba:	00568833          	add	a6,a3,t0
    43be:	00768533          	add	a0,a3,t2
    43c2:	00e68c33          	add	s8,a3,a4
    43c6:	01279023          	sh	s2,0(a5)
    43ca:	01379123          	sh	s3,2(a5)
    43ce:	01679223          	sh	s6,4(a5)
    43d2:	00679323          	sh	t1,6(a5)
    43d6:	01179423          	sh	a7,8(a5)
    43da:	01079523          	sh	a6,10(a5)
    43de:	00a79623          	sh	a0,12(a5)
    43e2:	01879723          	sh	s8,14(a5)
                for (j=0; j<N; j++) {
    43e6:	07c1                	addi	a5,a5,16
    43e8:	f8c79fe3          	bne	a5,a2,4386 <.L1739>

000043ec <.L2509>:
        for (i=0; i<N; i++) {
    43ec:	001a8993          	addi	s3,s5,1

000043f0 <.LVL1626>:
    43f0:	41748633          	sub	a2,s1,s7
    43f4:	013d8463          	beq	s11,s3,43fc <.L1740>
    43f8:	8ace                	mv	s5,s3
    43fa:	b5cd                	j	42dc <.L1738>

000043fc <.L1740>:
        ee_printf("Matrix %s [%dx%d]:\n",name,N,N);
    43fc:	64c1                	lui	s1,0x10
    43fe:	67c1                	lui	a5,0x10
    4400:	86ee                	mv	a3,s11
    4402:	11448513          	addi	a0,s1,276 # 10114 <.LC3>
    4406:	866e                	mv	a2,s11
    4408:	1d478593          	addi	a1,a5,468 # 101d4 <.LC16>
    440c:	cc26                	sw	s1,24(sp)
    440e:	baafe0ef          	jal	ra,27b8 <whisperPrintf>

00004412 <.LVL1628>:
        for (i=0; i<N; i++) {
    4412:	4e52                	lw	t3,20(sp)
    4414:	002c8f13          	addi	t5,s9,2
    4418:	ce6a                	sw	s10,28(sp)
    441a:	ffee0693          	addi	a3,t3,-2
    441e:	d24e                	sw	s3,36(sp)
    4420:	00868b33          	add	s6,a3,s0
        ee_printf("Matrix %s [%dx%d]:\n",name,N,N);
    4424:	4c01                	li	s8,0
    4426:	6941                	lui	s2,0x10
                                ee_printf(",");
    4428:	64c1                	lui	s1,0x10
    442a:	8d22                	mv	s10,s0

0000442c <.LVL1629>:
    442c:	d452                	sw	s4,40(sp)
    442e:	89fa                	mv	s3,t5

00004430 <.L1859>:
                        if (j!=0)
    4430:	41300a33          	neg	s4,s3
    4434:	001a5e93          	srli	t4,s4,0x1
    4438:	007efa13          	andi	s4,t4,7
    443c:	01698433          	add	s0,s3,s6
    4440:	140a0b63          	beqz	s4,4596 <.L1743>
                        ee_printf("%d",A[i*N+j]);
    4444:	00041583          	lh	a1,0(s0)
    4448:	12c90513          	addi	a0,s2,300 # 1012c <.LC5>
    444c:	0409                	addi	s0,s0,2
    444e:	b6afe0ef          	jal	ra,27b8 <whisperPrintf>

00004452 <.LVL1631>:
                                ee_printf(",");
    4452:	12848513          	addi	a0,s1,296 # 10128 <.LC4>
    4456:	b62fe0ef          	jal	ra,27b8 <whisperPrintf>

0000445a <.LVL1632>:
    445a:	4f85                	li	t6,1
    445c:	13fa0d63          	beq	s4,t6,4596 <.L1743>
    4460:	4089                	li	ra,2
    4462:	081a0563          	beq	s4,ra,44ec <.L2350>
    4466:	458d                	li	a1,3
    4468:	06ba0763          	beq	s4,a1,44d6 <.L2351>
    446c:	4291                	li	t0,4
    446e:	045a0963          	beq	s4,t0,44c0 <.L2352>
    4472:	4395                	li	t2,5
    4474:	027a0b63          	beq	s4,t2,44aa <.L2353>
    4478:	4719                	li	a4,6
    447a:	00ea0d63          	beq	s4,a4,4494 <.L2354>
                        ee_printf("%d",A[i*N+j]);
    447e:	00041583          	lh	a1,0(s0)
    4482:	12c90513          	addi	a0,s2,300
    4486:	0409                	addi	s0,s0,2
    4488:	b30fe0ef          	jal	ra,27b8 <whisperPrintf>

0000448c <.LVL1633>:
                                ee_printf(",");
    448c:	12848513          	addi	a0,s1,296
    4490:	b28fe0ef          	jal	ra,27b8 <whisperPrintf>

00004494 <.L2354>:
                        ee_printf("%d",A[i*N+j]);
    4494:	00041583          	lh	a1,0(s0)
    4498:	12c90513          	addi	a0,s2,300
    449c:	0409                	addi	s0,s0,2
    449e:	b1afe0ef          	jal	ra,27b8 <whisperPrintf>

000044a2 <.LVL1635>:
                                ee_printf(",");
    44a2:	12848513          	addi	a0,s1,296
    44a6:	b12fe0ef          	jal	ra,27b8 <whisperPrintf>

000044aa <.L2353>:
                        ee_printf("%d",A[i*N+j]);
    44aa:	00041583          	lh	a1,0(s0)
    44ae:	12c90513          	addi	a0,s2,300
    44b2:	0409                	addi	s0,s0,2
    44b4:	b04fe0ef          	jal	ra,27b8 <whisperPrintf>

000044b8 <.LVL1637>:
                                ee_printf(",");
    44b8:	12848513          	addi	a0,s1,296
    44bc:	afcfe0ef          	jal	ra,27b8 <whisperPrintf>

000044c0 <.L2352>:
                        ee_printf("%d",A[i*N+j]);
    44c0:	00041583          	lh	a1,0(s0)
    44c4:	12c90513          	addi	a0,s2,300
    44c8:	0409                	addi	s0,s0,2
    44ca:	aeefe0ef          	jal	ra,27b8 <whisperPrintf>

000044ce <.LVL1639>:
                                ee_printf(",");
    44ce:	12848513          	addi	a0,s1,296
    44d2:	ae6fe0ef          	jal	ra,27b8 <whisperPrintf>

000044d6 <.L2351>:
                        ee_printf("%d",A[i*N+j]);
    44d6:	00041583          	lh	a1,0(s0)
    44da:	12c90513          	addi	a0,s2,300
    44de:	0409                	addi	s0,s0,2
    44e0:	ad8fe0ef          	jal	ra,27b8 <whisperPrintf>

000044e4 <.LVL1641>:
                                ee_printf(",");
    44e4:	12848513          	addi	a0,s1,296
    44e8:	ad0fe0ef          	jal	ra,27b8 <whisperPrintf>

000044ec <.L2350>:
                        ee_printf("%d",A[i*N+j]);
    44ec:	00041583          	lh	a1,0(s0)
    44f0:	12c90513          	addi	a0,s2,300
    44f4:	0409                	addi	s0,s0,2
    44f6:	ac2fe0ef          	jal	ra,27b8 <whisperPrintf>

000044fa <.LVL1643>:
                                ee_printf(",");
    44fa:	12848513          	addi	a0,s1,296
    44fe:	abafe0ef          	jal	ra,27b8 <whisperPrintf>

00004502 <.LVL1644>:
    4502:	a851                	j	4596 <.L1743>

00004504 <.L1741>:
    4504:	ab4fe0ef          	jal	ra,27b8 <whisperPrintf>

00004508 <.LVL1645>:
                        ee_printf("%d",A[i*N+j]);
    4508:	00241583          	lh	a1,2(s0)
    450c:	12c90513          	addi	a0,s2,300
    4510:	0441                	addi	s0,s0,16
    4512:	aa6fe0ef          	jal	ra,27b8 <whisperPrintf>

00004516 <.LVL1646>:
                                ee_printf(",");
    4516:	12848513          	addi	a0,s1,296
    451a:	a9efe0ef          	jal	ra,27b8 <whisperPrintf>

0000451e <.LVL1647>:
                        ee_printf("%d",A[i*N+j]);
    451e:	ff441583          	lh	a1,-12(s0)
    4522:	12c90513          	addi	a0,s2,300
    4526:	a92fe0ef          	jal	ra,27b8 <whisperPrintf>

0000452a <.LVL1648>:
                                ee_printf(",");
    452a:	12848513          	addi	a0,s1,296
    452e:	a8afe0ef          	jal	ra,27b8 <whisperPrintf>

00004532 <.LVL1649>:
                        ee_printf("%d",A[i*N+j]);
    4532:	ff641583          	lh	a1,-10(s0)
    4536:	12c90513          	addi	a0,s2,300
    453a:	a7efe0ef          	jal	ra,27b8 <whisperPrintf>

0000453e <.LVL1650>:
                                ee_printf(",");
    453e:	12848513          	addi	a0,s1,296
    4542:	a76fe0ef          	jal	ra,27b8 <whisperPrintf>

00004546 <.LVL1651>:
                        ee_printf("%d",A[i*N+j]);
    4546:	ff841583          	lh	a1,-8(s0)
    454a:	12c90513          	addi	a0,s2,300
    454e:	a6afe0ef          	jal	ra,27b8 <whisperPrintf>

00004552 <.LVL1652>:
                                ee_printf(",");
    4552:	12848513          	addi	a0,s1,296
    4556:	a62fe0ef          	jal	ra,27b8 <whisperPrintf>

0000455a <.LVL1653>:
                        ee_printf("%d",A[i*N+j]);
    455a:	ffa41583          	lh	a1,-6(s0)
    455e:	12c90513          	addi	a0,s2,300
    4562:	a56fe0ef          	jal	ra,27b8 <whisperPrintf>

00004566 <.LVL1654>:
                                ee_printf(",");
    4566:	12848513          	addi	a0,s1,296
    456a:	a4efe0ef          	jal	ra,27b8 <whisperPrintf>

0000456e <.LVL1655>:
                        ee_printf("%d",A[i*N+j]);
    456e:	ffc41583          	lh	a1,-4(s0)
    4572:	12c90513          	addi	a0,s2,300
    4576:	a42fe0ef          	jal	ra,27b8 <whisperPrintf>

0000457a <.LVL1656>:
                                ee_printf(",");
    457a:	12848513          	addi	a0,s1,296
    457e:	a3afe0ef          	jal	ra,27b8 <whisperPrintf>

00004582 <.LVL1657>:
                        ee_printf("%d",A[i*N+j]);
    4582:	ffe41583          	lh	a1,-2(s0)
    4586:	12c90513          	addi	a0,s2,300
    458a:	a2efe0ef          	jal	ra,27b8 <whisperPrintf>

0000458e <.LVL1658>:
                                ee_printf(",");
    458e:	12848513          	addi	a0,s1,296
    4592:	a26fe0ef          	jal	ra,27b8 <whisperPrintf>

00004596 <.L1743>:
                        ee_printf("%d",A[i*N+j]);
    4596:	00041583          	lh	a1,0(s0)
    459a:	12c90513          	addi	a0,s2,300
    459e:	a1afe0ef          	jal	ra,27b8 <whisperPrintf>

000045a2 <.LVL1660>:
                                ee_printf(",");
    45a2:	12848513          	addi	a0,s1,296
                for (j=0; j<N; j++) {
    45a6:	f48b1fe3          	bne	s6,s0,4504 <.L1741>
                ee_printf("\n");
    45aa:	6341                	lui	t1,0x10
    45ac:	41430513          	addi	a0,t1,1044 # 10414 <.LC1>
    45b0:	a08fe0ef          	jal	ra,27b8 <whisperPrintf>

000045b4 <.LVL1661>:
        for (i=0; i<N; i++) {
    45b4:	9b6a                	add	s6,s6,s10
    45b6:	001c0893          	addi	a7,s8,1

000045ba <.LVL1662>:
    45ba:	018a8463          	beq	s5,s8,45c2 <.L1742>
    45be:	8c46                	mv	s8,a7
    45c0:	bd85                	j	4430 <.L1859>

000045c2 <.L1742>:
                        C[i*N+j]=(MATRES)A[i*N+j] * (MATRES)val;
    45c2:	4d72                	lw	s10,28(sp)
    45c4:	5992                	lw	s3,36(sp)
    45c6:	5a22                	lw	s4,40(sp)
    45c8:	4eb2                	lw	t4,12(sp)
    45ca:	5602                	lw	a2,32(sp)
    45cc:	4501                	li	a0,0
    45ce:	4801                	li	a6,0

000045d0 <.L1745>:
                for (j=0; j<N; j++) {
    45d0:	014c8b33          	add	s6,s9,s4
    45d4:	416a07b3          	sub	a5,s4,s6
    45d8:	ffe78e13          	addi	t3,a5,-2
    45dc:	001e5693          	srli	a3,t3,0x1
    45e0:	00168c13          	addi	s8,a3,1
    45e4:	00251913          	slli	s2,a0,0x2
    45e8:	007c7f13          	andi	t5,s8,7
    45ec:	01d907b3          	add	a5,s2,t4

000045f0 <.LBB954>:
    45f0:	875a                	mv	a4,s6
    45f2:	080f0f63          	beqz	t5,4690 <.L1744>
    45f6:	4485                	li	s1,1
    45f8:	089f0263          	beq	t5,s1,467c <.L2296>
    45fc:	4f89                	li	t6,2
    45fe:	07ff0763          	beq	t5,t6,466c <.L2297>
    4602:	408d                	li	ra,3
    4604:	041f0c63          	beq	t5,ra,465c <.L2298>
    4608:	4591                	li	a1,4
    460a:	04bf0163          	beq	t5,a1,464c <.L2299>
    460e:	4295                	li	t0,5
    4610:	025f0663          	beq	t5,t0,463c <.L2300>
    4614:	4399                	li	t2,6
    4616:	007f0b63          	beq	t5,t2,462c <.L2301>

0000461a <.LBB955>:
                        C[i*N+j]=(MATRES)A[i*N+j] * (MATRES)val;
    461a:	000b1403          	lh	s0,0(s6)
                for (j=0; j<N; j++) {
    461e:	002b0713          	addi	a4,s6,2
    4622:	0791                	addi	a5,a5,4
                        C[i*N+j]=(MATRES)A[i*N+j] * (MATRES)val;
    4624:	02c40333          	mul	t1,s0,a2
    4628:	fe67ae23          	sw	t1,-4(a5)

0000462c <.L2301>:
    462c:	00071883          	lh	a7,0(a4)
                for (j=0; j<N; j++) {
    4630:	0791                	addi	a5,a5,4
    4632:	0709                	addi	a4,a4,2
                        C[i*N+j]=(MATRES)A[i*N+j] * (MATRES)val;
    4634:	02c88e33          	mul	t3,a7,a2
    4638:	ffc7ae23          	sw	t3,-4(a5)

0000463c <.L2300>:
    463c:	00071683          	lh	a3,0(a4)
                for (j=0; j<N; j++) {
    4640:	0791                	addi	a5,a5,4
    4642:	0709                	addi	a4,a4,2
                        C[i*N+j]=(MATRES)A[i*N+j] * (MATRES)val;
    4644:	02c68c33          	mul	s8,a3,a2
    4648:	ff87ae23          	sw	s8,-4(a5)

0000464c <.L2299>:
    464c:	00071903          	lh	s2,0(a4)
                for (j=0; j<N; j++) {
    4650:	0791                	addi	a5,a5,4
    4652:	0709                	addi	a4,a4,2
                        C[i*N+j]=(MATRES)A[i*N+j] * (MATRES)val;
    4654:	02c90f33          	mul	t5,s2,a2
    4658:	ffe7ae23          	sw	t5,-4(a5)

0000465c <.L2298>:
    465c:	00071483          	lh	s1,0(a4)
                for (j=0; j<N; j++) {
    4660:	0791                	addi	a5,a5,4
    4662:	0709                	addi	a4,a4,2
                        C[i*N+j]=(MATRES)A[i*N+j] * (MATRES)val;
    4664:	02c48fb3          	mul	t6,s1,a2
    4668:	fff7ae23          	sw	t6,-4(a5)

0000466c <.L2297>:
    466c:	00071083          	lh	ra,0(a4)
                for (j=0; j<N; j++) {
    4670:	0791                	addi	a5,a5,4
    4672:	0709                	addi	a4,a4,2
                        C[i*N+j]=(MATRES)A[i*N+j] * (MATRES)val;
    4674:	02c085b3          	mul	a1,ra,a2
    4678:	feb7ae23          	sw	a1,-4(a5)

0000467c <.L2296>:
    467c:	00071283          	lh	t0,0(a4)
                for (j=0; j<N; j++) {
    4680:	0791                	addi	a5,a5,4
    4682:	0709                	addi	a4,a4,2
                        C[i*N+j]=(MATRES)A[i*N+j] * (MATRES)val;
    4684:	02c283b3          	mul	t2,t0,a2
    4688:	fe77ae23          	sw	t2,-4(a5)
                for (j=0; j<N; j++) {
    468c:	06ea0763          	beq	s4,a4,46fa <.L2508>

00004690 <.L1744>:
                        C[i*N+j]=(MATRES)A[i*N+j] * (MATRES)val;
    4690:	00071403          	lh	s0,0(a4)
    4694:	00271c03          	lh	s8,2(a4)
    4698:	00471903          	lh	s2,4(a4)
    469c:	00671f03          	lh	t5,6(a4)
    46a0:	00871e03          	lh	t3,8(a4)
    46a4:	00a71303          	lh	t1,10(a4)
    46a8:	00c71883          	lh	a7,12(a4)
    46ac:	00e71683          	lh	a3,14(a4)
    46b0:	02c404b3          	mul	s1,s0,a2
                for (j=0; j<N; j++) {
    46b4:	0741                	addi	a4,a4,16
    46b6:	02078793          	addi	a5,a5,32
                        C[i*N+j]=(MATRES)A[i*N+j] * (MATRES)val;
    46ba:	02cc00b3          	mul	ra,s8,a2
    46be:	fe97a023          	sw	s1,-32(a5)
    46c2:	02c90fb3          	mul	t6,s2,a2
    46c6:	fe17a223          	sw	ra,-28(a5)
    46ca:	02cf05b3          	mul	a1,t5,a2
    46ce:	fff7a423          	sw	t6,-24(a5)
    46d2:	02ce02b3          	mul	t0,t3,a2
    46d6:	feb7a623          	sw	a1,-20(a5)
    46da:	02c303b3          	mul	t2,t1,a2
    46de:	fe57a823          	sw	t0,-16(a5)
    46e2:	02c88433          	mul	s0,a7,a2
    46e6:	fe77aa23          	sw	t2,-12(a5)
    46ea:	02c68c33          	mul	s8,a3,a2
    46ee:	fe87ac23          	sw	s0,-8(a5)
    46f2:	ff87ae23          	sw	s8,-4(a5)
                for (j=0; j<N; j++) {
    46f6:	f8ea1de3          	bne	s4,a4,4690 <.L1744>

000046fa <.L2508>:
        for (i=0; i<N; i++) {
    46fa:	00180713          	addi	a4,a6,1

000046fe <.LVL1665>:
    46fe:	954e                	add	a0,a0,s3
    4700:	417b0a33          	sub	s4,s6,s7
    4704:	010a8463          	beq	s5,a6,470c <.L2518>
    4708:	883a                	mv	a6,a4
    470a:	b5d9                	j	45d0 <.L1745>

0000470c <.L2518>:
    470c:	4b32                	lw	s6,12(sp)
    470e:	00299c93          	slli	s9,s3,0x2
    4712:	41300833          	neg	a6,s3
    4716:	019b0733          	add	a4,s6,s9

0000471a <.LBB956>:
                        if (tmp>clipval) {
    471a:	4501                	li	a0,0
    471c:	4301                	li	t1,0
    471e:	4c01                	li	s8,0
    4720:	4601                	li	a2,0

00004722 <.LBB962>:
        for (i=0; i<N; i++) {
    4722:	00381593          	slli	a1,a6,0x3

00004726 <.L1746>:
                for (j=0; j<N; j++) {
    4726:	00eb89b3          	add	s3,s7,a4
    472a:	41370eb3          	sub	t4,a4,s3
    472e:	ffce8913          	addi	s2,t4,-4
    4732:	00295f13          	srli	t5,s2,0x2
    4736:	001f0e13          	addi	t3,t5,1
    473a:	003e7893          	andi	a7,t3,3
        for (i=0; i<N; i++) {
    473e:	884e                	mv	a6,s3
    4740:	10088e63          	beqz	a7,485c <.L1749>
    4744:	4685                	li	a3,1
    4746:	04d88963          	beq	a7,a3,4798 <.L2302>
    474a:	4489                	li	s1,2
    474c:	02988463          	beq	a7,s1,4774 <.L2303>

00004750 <.LVL1668>:
                        cur=C[i*N+j];
    4750:	809a                	mv	ra,t1

00004752 <.LVL1669>:
    4752:	0009a303          	lw	t1,0(s3)

00004756 <.LVL1670>:
                                ret+=10;
    4756:	01051793          	slli	a5,a0,0x10
    475a:	0107df93          	srli	t6,a5,0x10
                        tmp+=cur;
    475e:	9c1a                	add	s8,s8,t1

00004760 <.LVL1671>:
                        if (tmp>clipval) {
    4760:	1d8d5163          	bge	s10,s8,4922 <.L2496>
                                ret+=10;
    4764:	00af8c13          	addi	s8,t6,10

00004768 <.LVL1672>:
    4768:	010c1513          	slli	a0,s8,0x10
    476c:	8541                	srai	a0,a0,0x10

0000476e <.LVL1673>:
                                tmp=0;
    476e:	4c01                	li	s8,0

00004770 <.L2497>:
                for (j=0; j<N; j++) {
    4770:	00498813          	addi	a6,s3,4

00004774 <.L2303>:
                        cur=C[i*N+j];
    4774:	8a1a                	mv	s4,t1

00004776 <.LVL1676>:
    4776:	00082303          	lw	t1,0(a6)

0000477a <.LVL1677>:
                                ret+=10;
    477a:	01051c93          	slli	s9,a0,0x10
    477e:	010cdb13          	srli	s6,s9,0x10
                        tmp+=cur;
    4782:	9c1a                	add	s8,s8,t1

00004784 <.LVL1678>:
                        if (tmp>clipval) {
    4784:	198d5663          	bge	s10,s8,4910 <.L2498>
                                ret+=10;
    4788:	00ab0e13          	addi	t3,s6,10

0000478c <.LVL1679>:
    478c:	010e1893          	slli	a7,t3,0x10
    4790:	4108d513          	srai	a0,a7,0x10

00004794 <.LVL1680>:
                                tmp=0;
    4794:	4c01                	li	s8,0

00004796 <.L2499>:
                for (j=0; j<N; j++) {
    4796:	0811                	addi	a6,a6,4

00004798 <.L2302>:
                        cur=C[i*N+j];
    4798:	869a                	mv	a3,t1

0000479a <.LVL1683>:
    479a:	00082303          	lw	t1,0(a6)

0000479e <.LVL1684>:
                                ret+=10;
    479e:	01051493          	slli	s1,a0,0x10
    47a2:	0104d093          	srli	ra,s1,0x10
                        tmp+=cur;
    47a6:	9c1a                	add	s8,s8,t1

000047a8 <.LVL1685>:
                        if (tmp>clipval) {
    47a8:	158d5763          	bge	s10,s8,48f6 <.L2500>
                                ret+=10;
    47ac:	00a08413          	addi	s0,ra,10
    47b0:	01041c13          	slli	s8,s0,0x10
    47b4:	01041513          	slli	a0,s0,0x10
    47b8:	010c5a13          	srli	s4,s8,0x10

000047bc <.LVL1686>:
    47bc:	8541                	srai	a0,a0,0x10

000047be <.LVL1687>:
                                tmp=0;
    47be:	4c01                	li	s8,0

000047c0 <.L2501>:
                for (j=0; j<N; j++) {
    47c0:	0811                	addi	a6,a6,4

000047c2 <.LVL1689>:
    47c2:	09071d63          	bne	a4,a6,485c <.L1749>

000047c6 <.L2502>:
        for (i=0; i<N; i++) {
    47c6:	00160913          	addi	s2,a2,1

000047ca <.LVL1690>:
    47ca:	40b98733          	sub	a4,s3,a1
    47ce:	16ca8363          	beq	s5,a2,4934 <.L2519>
    47d2:	864a                	mv	a2,s2
    47d4:	bf89                	j	4726 <.L1746>

000047d6 <.L2521>:
                                ret += (cur>prev) ? 1 : 0;
    47d6:	01432333          	slt	t1,t1,s4
                        cur=C[i*N+j];
    47da:	00482483          	lw	s1,4(a6)
                                ret += (cur>prev) ? 1 : 0;
    47de:	006b0eb3          	add	t4,s6,t1
    47e2:	010e9913          	slli	s2,t4,0x10
    47e6:	41095893          	srai	a7,s2,0x10
                                ret+=10;
    47ea:	01089093          	slli	ra,a7,0x10
                        tmp+=cur;
    47ee:	00968fb3          	add	t6,a3,s1
                for (j=0; j<N; j++) {
    47f2:	0811                	addi	a6,a6,4
                                ret+=10;
    47f4:	0100d793          	srli	a5,ra,0x10
                        if (tmp>clipval) {
    47f8:	09fd5e63          	bge	s10,t6,4894 <.L2520>

000047fc <.L2221>:
                        cur=C[i*N+j];
    47fc:	00482c83          	lw	s9,4(a6)
                                ret+=10;
    4800:	00a78513          	addi	a0,a5,10
    4804:	01051a13          	slli	s4,a0,0x10
    4808:	410a5c13          	srai	s8,s4,0x10

0000480c <.LVL1692>:
                                tmp=0;
    480c:	4f81                	li	t6,0

0000480e <.LVL1693>:
                                ret+=10;
    480e:	010c1b13          	slli	s6,s8,0x10
                        tmp+=cur;
    4812:	019f8933          	add	s2,t6,s9
                                ret+=10;
    4816:	010b5e93          	srli	t4,s6,0x10
                        if (tmp>clipval) {
    481a:	092d5f63          	bge	s10,s2,48b8 <.L2504>

0000481e <.L2522>:
                        cur=C[i*N+j];
    481e:	00882303          	lw	t1,8(a6)
                                ret+=10;
    4822:	00ae8693          	addi	a3,t4,10
    4826:	01069493          	slli	s1,a3,0x10
    482a:	4104d893          	srai	a7,s1,0x10

0000482e <.LVL1694>:
                                tmp=0;
    482e:	4901                	li	s2,0

00004830 <.LVL1695>:
                                ret+=10;
    4830:	01089093          	slli	ra,a7,0x10
                        tmp+=cur;
    4834:	00690c33          	add	s8,s2,t1
                                ret+=10;
    4838:	0100d793          	srli	a5,ra,0x10
                        if (tmp>clipval) {
    483c:	0b8d5063          	bge	s10,s8,48dc <.L2506>

00004840 <.L2523>:
                                ret+=10;
    4840:	00a78c93          	addi	s9,a5,10
    4844:	010c9b13          	slli	s6,s9,0x10
    4848:	010c9e93          	slli	t4,s9,0x10
    484c:	010b5a13          	srli	s4,s6,0x10
    4850:	410ed513          	srai	a0,t4,0x10

00004854 <.LVL1697>:
                                tmp=0;
    4854:	4c01                	li	s8,0

00004856 <.L2507>:
                for (j=0; j<N; j++) {
    4856:	0831                	addi	a6,a6,12
    4858:	f70707e3          	beq	a4,a6,47c6 <.L2502>

0000485c <.L1749>:
                        cur=C[i*N+j];
    485c:	00082a03          	lw	s4,0(a6)
                                ret+=10;
    4860:	01051c93          	slli	s9,a0,0x10
    4864:	010cdb13          	srli	s6,s9,0x10
                        tmp+=cur;
    4868:	014c06b3          	add	a3,s8,s4
                        if (tmp>clipval) {
    486c:	f6dd55e3          	bge	s10,a3,47d6 <.L2521>
                        cur=C[i*N+j];
    4870:	00482483          	lw	s1,4(a6)
                                ret+=10;
    4874:	00ab0f13          	addi	t5,s6,10
    4878:	010f1e13          	slli	t3,t5,0x10
    487c:	410e5893          	srai	a7,t3,0x10

00004880 <.LVL1700>:
                                tmp=0;
    4880:	4681                	li	a3,0

00004882 <.LVL1701>:
                                ret+=10;
    4882:	01089093          	slli	ra,a7,0x10
                        tmp+=cur;
    4886:	00968fb3          	add	t6,a3,s1
                for (j=0; j<N; j++) {
    488a:	0811                	addi	a6,a6,4
                                ret+=10;
    488c:	0100d793          	srli	a5,ra,0x10
                        if (tmp>clipval) {
    4890:	f7fd46e3          	blt	s10,t6,47fc <.L2221>

00004894 <.L2520>:
                                ret += (cur>prev) ? 1 : 0;
    4894:	009a22b3          	slt	t0,s4,s1
                        cur=C[i*N+j];
    4898:	00482c83          	lw	s9,4(a6)
                                ret += (cur>prev) ? 1 : 0;
    489c:	005783b3          	add	t2,a5,t0
    48a0:	01039413          	slli	s0,t2,0x10
    48a4:	41045c13          	srai	s8,s0,0x10
                                ret+=10;
    48a8:	010c1b13          	slli	s6,s8,0x10
                        tmp+=cur;
    48ac:	019f8933          	add	s2,t6,s9
                                ret+=10;
    48b0:	010b5e93          	srli	t4,s6,0x10
                        if (tmp>clipval) {
    48b4:	f72d45e3          	blt	s10,s2,481e <.L2522>

000048b8 <.L2504>:
                                ret += (cur>prev) ? 1 : 0;
    48b8:	0194a333          	slt	t1,s1,s9
    48bc:	006e8f33          	add	t5,t4,t1
                        cur=C[i*N+j];
    48c0:	00882303          	lw	t1,8(a6)
                                ret += (cur>prev) ? 1 : 0;
    48c4:	010f1e13          	slli	t3,t5,0x10
    48c8:	410e5893          	srai	a7,t3,0x10

000048cc <.LVL1702>:
                                ret+=10;
    48cc:	01089093          	slli	ra,a7,0x10
                        tmp+=cur;
    48d0:	00690c33          	add	s8,s2,t1
                                ret+=10;
    48d4:	0100d793          	srli	a5,ra,0x10
                        if (tmp>clipval) {
    48d8:	f78d44e3          	blt	s10,s8,4840 <.L2523>

000048dc <.L2506>:
                                ret += (cur>prev) ? 1 : 0;
    48dc:	006cafb3          	slt	t6,s9,t1
    48e0:	01f782b3          	add	t0,a5,t6
    48e4:	01029393          	slli	t2,t0,0x10
    48e8:	01029413          	slli	s0,t0,0x10
    48ec:	0103da13          	srli	s4,t2,0x10
    48f0:	41045513          	srai	a0,s0,0x10
    48f4:	b78d                	j	4856 <.L2507>

000048f6 <.L2500>:
    48f6:	0066a7b3          	slt	a5,a3,t1
    48fa:	00f08fb3          	add	t6,ra,a5
    48fe:	010f9293          	slli	t0,t6,0x10
    4902:	010f9393          	slli	t2,t6,0x10
    4906:	0102da13          	srli	s4,t0,0x10

0000490a <.LVL1704>:
    490a:	4103d513          	srai	a0,t2,0x10
    490e:	bd4d                	j	47c0 <.L2501>

00004910 <.L2498>:
    4910:	006a2eb3          	slt	t4,s4,t1
    4914:	01db0933          	add	s2,s6,t4

00004918 <.LVL1706>:
    4918:	01091f13          	slli	t5,s2,0x10
    491c:	410f5513          	srai	a0,t5,0x10
    4920:	bd9d                	j	4796 <.L2499>

00004922 <.L2496>:
    4922:	0060a2b3          	slt	t0,ra,t1
    4926:	005f83b3          	add	t2,t6,t0

0000492a <.LVL1708>:
    492a:	01039413          	slli	s0,t2,0x10
    492e:	41045513          	srai	a0,s0,0x10
    4932:	bd3d                	j	4770 <.L2497>

00004934 <.L2519>:
        crc=crcu8( (ee_u8) (newval)                             ,crc);
    4934:	0ff57a93          	andi	s5,a0,255

00004938 <.LBB969>:
                crc >>= 1;
    4938:	001afb93          	andi	s7,s5,1
    493c:	69a9                	lui	s3,0xa
    493e:	41700633          	neg	a2,s7
    4942:	00198f13          	addi	t5,s3,1 # a001 <.LLST442+0x3e>
    4946:	00cf7e33          	and	t3,t5,a2
                data >>= 1;
    494a:	001ad893          	srli	a7,s5,0x1
                x16 = (ee_u8)((data & 1) ^ ((ee_u8)crc & 1));
    494e:	011e46b3          	xor	a3,t3,a7
                if (x16 == 1)
    4952:	0016f493          	andi	s1,a3,1

00004956 <.LBE969>:
        crc=crcu8( (ee_u8) ((newval)>>8)        ,crc);
    4956:	008a5713          	srli	a4,s4,0x8

0000495a <.LBB974>:
                data >>= 1;
    495a:	002ad693          	srli	a3,s5,0x2

0000495e <.LVL1711>:
                crc >>= 1;
    495e:	001e5293          	srli	t0,t3,0x1
                if (x16 == 1)
    4962:	c891                	beqz	s1,4976 <.L1751>

00004964 <.LVL1712>:
                   crc |= 0x8000;
    4964:	7369                	lui	t1,0xffffa
    4966:	00130093          	addi	ra,t1,1 # ffffa001 <STACK+0xfffe1931>
    496a:	0012c7b3          	xor	a5,t0,ra

0000496e <.LVL1713>:
    496e:	01079c13          	slli	s8,a5,0x10
    4972:	010c5293          	srli	t0,s8,0x10

00004976 <.L1751>:
                x16 = (ee_u8)((data & 1) ^ ((ee_u8)crc & 1));
    4976:	00d2cfb3          	xor	t6,t0,a3
                if (x16 == 1)
    497a:	001ff393          	andi	t2,t6,1
                data >>= 1;
    497e:	0016da13          	srli	s4,a3,0x1

00004982 <.LVL1715>:
                crc >>= 1;
    4982:	0012db13          	srli	s6,t0,0x1
                if (x16 == 1)
    4986:	00038b63          	beqz	t2,499c <.L1752>

0000498a <.LVL1716>:
                   crc |= 0x8000;
    498a:	72e9                	lui	t0,0xffffa
    498c:	00128413          	addi	s0,t0,1 # ffffa001 <STACK+0xfffe1931>
    4990:	008b4533          	xor	a0,s6,s0

00004994 <.LVL1717>:
    4994:	01051c93          	slli	s9,a0,0x10
    4998:	010cdb13          	srli	s6,s9,0x10

0000499c <.L1752>:
                x16 = (ee_u8)((data & 1) ^ ((ee_u8)crc & 1));
    499c:	016a4eb3          	xor	t4,s4,s6
                if (x16 == 1)
    49a0:	001ef813          	andi	a6,t4,1
                data >>= 1;
    49a4:	0026d593          	srli	a1,a3,0x2

000049a8 <.LVL1719>:
                crc >>= 1;
    49a8:	001b5993          	srli	s3,s6,0x1
                if (x16 == 1)
    49ac:	00080b63          	beqz	a6,49c2 <.L1753>

000049b0 <.LVL1720>:
                   crc |= 0x8000;
    49b0:	7969                	lui	s2,0xffffa
    49b2:	00190a93          	addi	s5,s2,1 # ffffa001 <STACK+0xfffe1931>
    49b6:	0159cbb3          	xor	s7,s3,s5

000049ba <.LVL1721>:
    49ba:	010b9613          	slli	a2,s7,0x10
    49be:	01065993          	srli	s3,a2,0x10

000049c2 <.L1753>:
                x16 = (ee_u8)((data & 1) ^ ((ee_u8)crc & 1));
    49c2:	0135cf33          	xor	t5,a1,s3
                if (x16 == 1)
    49c6:	001f7e13          	andi	t3,t5,1
                data >>= 1;
    49ca:	0036d893          	srli	a7,a3,0x3

000049ce <.LVL1723>:
                crc >>= 1;
    49ce:	0019dc13          	srli	s8,s3,0x1
                if (x16 == 1)
    49d2:	000e0b63          	beqz	t3,49e8 <.L1754>

000049d6 <.LVL1724>:
                   crc |= 0x8000;
    49d6:	74e9                	lui	s1,0xffffa
    49d8:	00148313          	addi	t1,s1,1 # ffffa001 <STACK+0xfffe1931>
    49dc:	006c40b3          	xor	ra,s8,t1

000049e0 <.LVL1725>:
    49e0:	01009793          	slli	a5,ra,0x10
    49e4:	0107dc13          	srli	s8,a5,0x10

000049e8 <.L1754>:
                x16 = (ee_u8)((data & 1) ^ ((ee_u8)crc & 1));
    49e8:	0188cfb3          	xor	t6,a7,s8
                if (x16 == 1)
    49ec:	001ff393          	andi	t2,t6,1
                data >>= 1;
    49f0:	0046da13          	srli	s4,a3,0x4

000049f4 <.LVL1727>:
                crc >>= 1;
    49f4:	001c5b13          	srli	s6,s8,0x1
                if (x16 == 1)
    49f8:	00038b63          	beqz	t2,4a0e <.L1755>

000049fc <.LVL1728>:
                   crc |= 0x8000;
    49fc:	72e9                	lui	t0,0xffffa
    49fe:	00128413          	addi	s0,t0,1 # ffffa001 <STACK+0xfffe1931>
    4a02:	008b4533          	xor	a0,s6,s0

00004a06 <.LVL1729>:
    4a06:	01051c93          	slli	s9,a0,0x10
    4a0a:	010cdb13          	srli	s6,s9,0x10

00004a0e <.L1755>:
                x16 = (ee_u8)((data & 1) ^ ((ee_u8)crc & 1));
    4a0e:	016a4eb3          	xor	t4,s4,s6
                if (x16 == 1)
    4a12:	001ef813          	andi	a6,t4,1
                data >>= 1;
    4a16:	8295                	srli	a3,a3,0x5

00004a18 <.LVL1731>:
                crc >>= 1;
    4a18:	001b5613          	srli	a2,s6,0x1
                if (x16 == 1)
    4a1c:	00080b63          	beqz	a6,4a32 <.L1756>

00004a20 <.LVL1732>:
                   crc |= 0x8000;
    4a20:	75e9                	lui	a1,0xffffa
    4a22:	00158913          	addi	s2,a1,1 # ffffa001 <STACK+0xfffe1931>
    4a26:	01264ab3          	xor	s5,a2,s2

00004a2a <.LVL1733>:
    4a2a:	010a9b93          	slli	s7,s5,0x10
    4a2e:	010bd613          	srli	a2,s7,0x10

00004a32 <.L1756>:
                if (x16 == 1)
    4a32:	00167993          	andi	s3,a2,1
                crc >>= 1;
    4a36:	00165313          	srli	t1,a2,0x1
                if (x16 == 1)
    4a3a:	00d98b63          	beq	s3,a3,4a50 <.L1757>

00004a3e <.LVL1735>:
                   crc |= 0x8000;
    4a3e:	7f69                	lui	t5,0xffffa
    4a40:	001f0e13          	addi	t3,t5,1 # ffffa001 <STACK+0xfffe1931>
    4a44:	01c348b3          	xor	a7,t1,t3

00004a48 <.LVL1736>:
    4a48:	01089493          	slli	s1,a7,0x10
    4a4c:	0104d313          	srli	t1,s1,0x10

00004a50 <.L1757>:
                x16 = (ee_u8)((data & 1) ^ ((ee_u8)crc & 1));
    4a50:	006740b3          	xor	ra,a4,t1
                if (x16 == 1)
    4a54:	0010f793          	andi	a5,ra,1
                data >>= 1;
    4a58:	00175c13          	srli	s8,a4,0x1

00004a5c <.LVL1738>:
                if (x16 == 1)
    4a5c:	00135413          	srli	s0,t1,0x1
    4a60:	cb91                	beqz	a5,4a74 <.L1758>

00004a62 <.LVL1739>:
                   crc |= 0x8000;
    4a62:	7fe9                	lui	t6,0xffffa
    4a64:	001f8393          	addi	t2,t6,1 # ffffa001 <STACK+0xfffe1931>
    4a68:	00744a33          	xor	s4,s0,t2

00004a6c <.LVL1740>:
    4a6c:	010a1293          	slli	t0,s4,0x10
    4a70:	0102d413          	srli	s0,t0,0x10

00004a74 <.L1758>:
                x16 = (ee_u8)((data & 1) ^ ((ee_u8)crc & 1));
    4a74:	008c4533          	xor	a0,s8,s0
                if (x16 == 1)
    4a78:	00157b13          	andi	s6,a0,1
                data >>= 1;
    4a7c:	00275e93          	srli	t4,a4,0x2

00004a80 <.LVL1742>:
                if (x16 == 1)
    4a80:	00145913          	srli	s2,s0,0x1
    4a84:	000b0b63          	beqz	s6,4a9a <.L1759>

00004a88 <.LVL1743>:
                   crc |= 0x8000;
    4a88:	7869                	lui	a6,0xffffa
    4a8a:	00180693          	addi	a3,a6,1 # ffffa001 <STACK+0xfffe1931>
    4a8e:	00d94cb3          	xor	s9,s2,a3

00004a92 <.LVL1744>:
    4a92:	010c9593          	slli	a1,s9,0x10
    4a96:	0105d913          	srli	s2,a1,0x10

00004a9a <.L1759>:
                x16 = (ee_u8)((data & 1) ^ ((ee_u8)crc & 1));
    4a9a:	012ecab3          	xor	s5,t4,s2
                if (x16 == 1)
    4a9e:	001afb93          	andi	s7,s5,1
                data >>= 1;
    4aa2:	00375613          	srli	a2,a4,0x3

00004aa6 <.LVL1746>:
                if (x16 == 1)
    4aa6:	00195493          	srli	s1,s2,0x1
    4aaa:	000b8b63          	beqz	s7,4ac0 <.L1760>

00004aae <.LVL1747>:
                   crc |= 0x8000;
    4aae:	79e9                	lui	s3,0xffffa
    4ab0:	00198f13          	addi	t5,s3,1 # ffffa001 <STACK+0xfffe1931>
    4ab4:	01e4ce33          	xor	t3,s1,t5

00004ab8 <.LVL1748>:
    4ab8:	010e1893          	slli	a7,t3,0x10
    4abc:	0108d493          	srli	s1,a7,0x10

00004ac0 <.L1760>:
                x16 = (ee_u8)((data & 1) ^ ((ee_u8)crc & 1));
    4ac0:	00964333          	xor	t1,a2,s1
                if (x16 == 1)
    4ac4:	00137093          	andi	ra,t1,1
                data >>= 1;
    4ac8:	00475793          	srli	a5,a4,0x4

00004acc <.LVL1750>:
                if (x16 == 1)
    4acc:	0014d293          	srli	t0,s1,0x1
    4ad0:	00008b63          	beqz	ra,4ae6 <.L1761>

00004ad4 <.LVL1751>:
                   crc |= 0x8000;
    4ad4:	7c69                	lui	s8,0xffffa
    4ad6:	001c0f93          	addi	t6,s8,1 # ffffa001 <STACK+0xfffe1931>
    4ada:	01f2c3b3          	xor	t2,t0,t6

00004ade <.LVL1752>:
    4ade:	01039a13          	slli	s4,t2,0x10
    4ae2:	010a5293          	srli	t0,s4,0x10

00004ae6 <.L1761>:
                x16 = (ee_u8)((data & 1) ^ ((ee_u8)crc & 1));
    4ae6:	0057c433          	xor	s0,a5,t0
                if (x16 == 1)
    4aea:	00147513          	andi	a0,s0,1
                data >>= 1;
    4aee:	00575b13          	srli	s6,a4,0x5

00004af2 <.LVL1754>:
                if (x16 == 1)
    4af2:	0012d593          	srli	a1,t0,0x1
    4af6:	c911                	beqz	a0,4b0a <.L1762>

00004af8 <.LVL1755>:
                   crc |= 0x8000;
    4af8:	7ee9                	lui	t4,0xffffa
    4afa:	001e8813          	addi	a6,t4,1 # ffffa001 <STACK+0xfffe1931>
    4afe:	0105c6b3          	xor	a3,a1,a6

00004b02 <.LVL1756>:
    4b02:	01069c93          	slli	s9,a3,0x10
    4b06:	010cd593          	srli	a1,s9,0x10

00004b0a <.L1762>:
                x16 = (ee_u8)((data & 1) ^ ((ee_u8)crc & 1));
    4b0a:	00bb4933          	xor	s2,s6,a1
                if (x16 == 1)
    4b0e:	00197a93          	andi	s5,s2,1
                data >>= 1;
    4b12:	00675b93          	srli	s7,a4,0x6

00004b16 <.LVL1758>:
                if (x16 == 1)
    4b16:	0015d893          	srli	a7,a1,0x1
    4b1a:	000a8b63          	beqz	s5,4b30 <.L1763>

00004b1e <.LVL1759>:
                   crc |= 0x8000;
    4b1e:	7669                	lui	a2,0xffffa
    4b20:	00160993          	addi	s3,a2,1 # ffffa001 <STACK+0xfffe1931>
    4b24:	0138cf33          	xor	t5,a7,s3

00004b28 <.LVL1760>:
    4b28:	010f1e13          	slli	t3,t5,0x10
    4b2c:	010e5893          	srli	a7,t3,0x10

00004b30 <.L1763>:
                x16 = (ee_u8)((data & 1) ^ ((ee_u8)crc & 1));
    4b30:	011bc4b3          	xor	s1,s7,a7
                if (x16 == 1)
    4b34:	0014f313          	andi	t1,s1,1
                data >>= 1;
    4b38:	831d                	srli	a4,a4,0x7

00004b3a <.LVL1762>:
                if (x16 == 1)
    4b3a:	0018d393          	srli	t2,a7,0x1
    4b3e:	00030b63          	beqz	t1,4b54 <.L1764>

00004b42 <.LVL1763>:
                   crc |= 0x8000;
    4b42:	70e9                	lui	ra,0xffffa
    4b44:	00108793          	addi	a5,ra,1 # ffffa001 <STACK+0xfffe1931>
    4b48:	00f3cc33          	xor	s8,t2,a5

00004b4c <.LVL1764>:
    4b4c:	010c1f93          	slli	t6,s8,0x10
    4b50:	010fd393          	srli	t2,t6,0x10

00004b54 <.L1764>:
                if (x16 == 1)
    4b54:	0013fa13          	andi	s4,t2,1
    4b58:	0013dc93          	srli	s9,t2,0x1
    4b5c:	00ea0b63          	beq	s4,a4,4b72 <.L1765>

00004b60 <.LVL1766>:
                   crc |= 0x8000;
    4b60:	72e9                	lui	t0,0xffffa
    4b62:	00128413          	addi	s0,t0,1 # ffffa001 <STACK+0xfffe1931>
    4b66:	008cc533          	xor	a0,s9,s0

00004b6a <.LVL1767>:
    4b6a:	01051b13          	slli	s6,a0,0x10
    4b6e:	010b5c93          	srli	s9,s6,0x10

00004b72 <.L1765>:
        ee_printf("Matrix %s [%dx%d]:\n",name,N,N);
    4b72:	4862                	lw	a6,24(sp)
    4b74:	6ec1                	lui	t4,0x10
    4b76:	86ee                	mv	a3,s11
    4b78:	866e                	mv	a2,s11
    4b7a:	17ce8593          	addi	a1,t4,380 # 1017c <.LC12>
    4b7e:	11480513          	addi	a0,a6,276
    4b82:	c37fd0ef          	jal	ra,27b8 <whisperPrintf>

00004b86 <.LVL1769>:
        for (i=0; i<N; i++) {
    4b86:	4b01                	li	s6,0
    4b88:	4381                	li	t2,0
    4b8a:	1a0d8863          	beqz	s11,4d3a <.L1767>
                                ee_printf(",");
    4b8e:	4932                	lw	s2,12(sp)
        for (i=0; i<N; i++) {
    4b90:	4a81                	li	s5,0
    4b92:	4b01                	li	s6,0
    4b94:	6a41                	lui	s4,0x10
    4b96:	6bc1                	lui	s7,0x10
                                ee_printf(",");
    4b98:	64c1                	lui	s1,0x10
    4b9a:	ce66                	sw	s9,28(sp)

00004b9c <.L1766>:
                        if (j!=0)
    4b9c:	fffd8693          	addi	a3,s11,-1
    4ba0:	002a9c93          	slli	s9,s5,0x2
    4ba4:	0076f993          	andi	s3,a3,7
    4ba8:	012c8433          	add	s0,s9,s2
    4bac:	8c4a                	mv	s8,s2
                for (j=0; j<N; j++) {
    4bae:	4c81                	li	s9,0
    4bb0:	14098b63          	beqz	s3,4d06 <.L1770>
                        ee_printf("%d",C[i*N+j]);
    4bb4:	400c                	lw	a1,0(s0)
    4bb6:	12ca0513          	addi	a0,s4,300 # 1012c <.LC5>
                                ee_printf(",");
    4bba:	4c85                	li	s9,1
                        ee_printf("%d",C[i*N+j]);
    4bbc:	bfdfd0ef          	jal	ra,27b8 <whisperPrintf>

00004bc0 <.LVL1771>:
                                ee_printf(",");
    4bc0:	12848513          	addi	a0,s1,296 # 10128 <.LC4>
                for (j=0; j<N; j++) {
    4bc4:	0411                	addi	s0,s0,4
                                ee_printf(",");
    4bc6:	bf3fd0ef          	jal	ra,27b8 <whisperPrintf>

00004bca <.LVL1772>:
    4bca:	13998e63          	beq	s3,s9,4d06 <.L1770>
    4bce:	4589                	li	a1,2
    4bd0:	08b98563          	beq	s3,a1,4c5a <.L2345>
    4bd4:	460d                	li	a2,3
    4bd6:	06c98763          	beq	s3,a2,4c44 <.L2346>
    4bda:	4f11                	li	t5,4
    4bdc:	05e98963          	beq	s3,t5,4c2e <.L2347>
    4be0:	4e15                	li	t3,5
    4be2:	03c98b63          	beq	s3,t3,4c18 <.L2348>
    4be6:	4899                	li	a7,6
    4be8:	01198d63          	beq	s3,a7,4c02 <.L2349>
                        ee_printf("%d",C[i*N+j]);
    4bec:	400c                	lw	a1,0(s0)
    4bee:	12ca0513          	addi	a0,s4,300
                for (j=0; j<N; j++) {
    4bf2:	0411                	addi	s0,s0,4
                        ee_printf("%d",C[i*N+j]);
    4bf4:	bc5fd0ef          	jal	ra,27b8 <whisperPrintf>

00004bf8 <.LVL1773>:
                                ee_printf(",");
    4bf8:	12848513          	addi	a0,s1,296
    4bfc:	bbdfd0ef          	jal	ra,27b8 <whisperPrintf>

00004c00 <.LVL1774>:
    4c00:	4c89                	li	s9,2

00004c02 <.L2349>:
                        ee_printf("%d",C[i*N+j]);
    4c02:	400c                	lw	a1,0(s0)
    4c04:	12ca0513          	addi	a0,s4,300
                for (j=0; j<N; j++) {
    4c08:	0c85                	addi	s9,s9,1
                        ee_printf("%d",C[i*N+j]);
    4c0a:	baffd0ef          	jal	ra,27b8 <whisperPrintf>

00004c0e <.LVL1775>:
                                ee_printf(",");
    4c0e:	12848513          	addi	a0,s1,296
                for (j=0; j<N; j++) {
    4c12:	0411                	addi	s0,s0,4
                                ee_printf(",");
    4c14:	ba5fd0ef          	jal	ra,27b8 <whisperPrintf>

00004c18 <.L2348>:
                        ee_printf("%d",C[i*N+j]);
    4c18:	400c                	lw	a1,0(s0)
    4c1a:	12ca0513          	addi	a0,s4,300
                for (j=0; j<N; j++) {
    4c1e:	0c85                	addi	s9,s9,1
                        ee_printf("%d",C[i*N+j]);
    4c20:	b99fd0ef          	jal	ra,27b8 <whisperPrintf>

00004c24 <.LVL1777>:
                                ee_printf(",");
    4c24:	12848513          	addi	a0,s1,296
                for (j=0; j<N; j++) {
    4c28:	0411                	addi	s0,s0,4
                                ee_printf(",");
    4c2a:	b8ffd0ef          	jal	ra,27b8 <whisperPrintf>

00004c2e <.L2347>:
                        ee_printf("%d",C[i*N+j]);
    4c2e:	400c                	lw	a1,0(s0)
    4c30:	12ca0513          	addi	a0,s4,300
                for (j=0; j<N; j++) {
    4c34:	0c85                	addi	s9,s9,1
                        ee_printf("%d",C[i*N+j]);
    4c36:	b83fd0ef          	jal	ra,27b8 <whisperPrintf>

00004c3a <.LVL1779>:
                                ee_printf(",");
    4c3a:	12848513          	addi	a0,s1,296
                for (j=0; j<N; j++) {
    4c3e:	0411                	addi	s0,s0,4
                                ee_printf(",");
    4c40:	b79fd0ef          	jal	ra,27b8 <whisperPrintf>

00004c44 <.L2346>:
                        ee_printf("%d",C[i*N+j]);
    4c44:	400c                	lw	a1,0(s0)
    4c46:	12ca0513          	addi	a0,s4,300
                for (j=0; j<N; j++) {
    4c4a:	0c85                	addi	s9,s9,1
                        ee_printf("%d",C[i*N+j]);
    4c4c:	b6dfd0ef          	jal	ra,27b8 <whisperPrintf>

00004c50 <.LVL1781>:
                                ee_printf(",");
    4c50:	12848513          	addi	a0,s1,296
                for (j=0; j<N; j++) {
    4c54:	0411                	addi	s0,s0,4
                                ee_printf(",");
    4c56:	b63fd0ef          	jal	ra,27b8 <whisperPrintf>

00004c5a <.L2345>:
                        ee_printf("%d",C[i*N+j]);
    4c5a:	400c                	lw	a1,0(s0)
    4c5c:	12ca0513          	addi	a0,s4,300
                for (j=0; j<N; j++) {
    4c60:	0c85                	addi	s9,s9,1
                        ee_printf("%d",C[i*N+j]);
    4c62:	b57fd0ef          	jal	ra,27b8 <whisperPrintf>

00004c66 <.LVL1783>:
                                ee_printf(",");
    4c66:	12848513          	addi	a0,s1,296
                for (j=0; j<N; j++) {
    4c6a:	0411                	addi	s0,s0,4
                                ee_printf(",");
    4c6c:	b4dfd0ef          	jal	ra,27b8 <whisperPrintf>

00004c70 <.LVL1784>:
    4c70:	a859                	j	4d06 <.L1770>

00004c72 <.L1768>:
    4c72:	b47fd0ef          	jal	ra,27b8 <whisperPrintf>

00004c76 <.LVL1786>:
                        ee_printf("%d",C[i*N+j]);
    4c76:	404c                	lw	a1,4(s0)
    4c78:	12ca0513          	addi	a0,s4,300
                for (j=0; j<N; j++) {
    4c7c:	02040413          	addi	s0,s0,32
                        ee_printf("%d",C[i*N+j]);
    4c80:	b39fd0ef          	jal	ra,27b8 <whisperPrintf>

00004c84 <.LVL1787>:
                                ee_printf(",");
    4c84:	12848513          	addi	a0,s1,296
    4c88:	b31fd0ef          	jal	ra,27b8 <whisperPrintf>

00004c8c <.LVL1788>:
                        ee_printf("%d",C[i*N+j]);
    4c8c:	fe842583          	lw	a1,-24(s0)
    4c90:	12ca0513          	addi	a0,s4,300
                                ee_printf(",");
    4c94:	0ca1                	addi	s9,s9,8
                        ee_printf("%d",C[i*N+j]);
    4c96:	b23fd0ef          	jal	ra,27b8 <whisperPrintf>

00004c9a <.LVL1789>:
                                ee_printf(",");
    4c9a:	12848513          	addi	a0,s1,296
    4c9e:	b1bfd0ef          	jal	ra,27b8 <whisperPrintf>

00004ca2 <.LVL1790>:
                        ee_printf("%d",C[i*N+j]);
    4ca2:	fec42583          	lw	a1,-20(s0)
    4ca6:	12ca0513          	addi	a0,s4,300
    4caa:	b0ffd0ef          	jal	ra,27b8 <whisperPrintf>

00004cae <.LVL1791>:
                                ee_printf(",");
    4cae:	12848513          	addi	a0,s1,296
    4cb2:	b07fd0ef          	jal	ra,27b8 <whisperPrintf>

00004cb6 <.LVL1792>:
                        ee_printf("%d",C[i*N+j]);
    4cb6:	ff042583          	lw	a1,-16(s0)
    4cba:	12ca0513          	addi	a0,s4,300
    4cbe:	afbfd0ef          	jal	ra,27b8 <whisperPrintf>

00004cc2 <.LVL1793>:
                                ee_printf(",");
    4cc2:	12848513          	addi	a0,s1,296
    4cc6:	af3fd0ef          	jal	ra,27b8 <whisperPrintf>

00004cca <.LVL1794>:
                        ee_printf("%d",C[i*N+j]);
    4cca:	ff442583          	lw	a1,-12(s0)
    4cce:	12ca0513          	addi	a0,s4,300
    4cd2:	ae7fd0ef          	jal	ra,27b8 <whisperPrintf>

00004cd6 <.LVL1795>:
                                ee_printf(",");
    4cd6:	12848513          	addi	a0,s1,296
    4cda:	adffd0ef          	jal	ra,27b8 <whisperPrintf>

00004cde <.LVL1796>:
                        ee_printf("%d",C[i*N+j]);
    4cde:	ff842583          	lw	a1,-8(s0)
    4ce2:	12ca0513          	addi	a0,s4,300
    4ce6:	ad3fd0ef          	jal	ra,27b8 <whisperPrintf>

00004cea <.LVL1797>:
                                ee_printf(",");
    4cea:	12848513          	addi	a0,s1,296
    4cee:	acbfd0ef          	jal	ra,27b8 <whisperPrintf>

00004cf2 <.LVL1798>:
                        ee_printf("%d",C[i*N+j]);
    4cf2:	ffc42583          	lw	a1,-4(s0)
    4cf6:	12ca0513          	addi	a0,s4,300
    4cfa:	abffd0ef          	jal	ra,27b8 <whisperPrintf>

00004cfe <.LVL1799>:
                                ee_printf(",");
    4cfe:	12848513          	addi	a0,s1,296
    4d02:	ab7fd0ef          	jal	ra,27b8 <whisperPrintf>

00004d06 <.L1770>:
                        ee_printf("%d",C[i*N+j]);
    4d06:	400c                	lw	a1,0(s0)
    4d08:	12ca0513          	addi	a0,s4,300
                for (j=0; j<N; j++) {
    4d0c:	001c8993          	addi	s3,s9,1
                        ee_printf("%d",C[i*N+j]);
    4d10:	aa9fd0ef          	jal	ra,27b8 <whisperPrintf>

00004d14 <.LVL1801>:
                                ee_printf(",");
    4d14:	12848513          	addi	a0,s1,296
                for (j=0; j<N; j++) {
    4d18:	f53d9de3          	bne	s11,s3,4c72 <.L1768>
                ee_printf("\n");
    4d1c:	414b8513          	addi	a0,s7,1044 # 10414 <.LC1>
    4d20:	a99fd0ef          	jal	ra,27b8 <whisperPrintf>

00004d24 <.LVL1802>:
        for (i=0; i<N; i++) {
    4d24:	9aee                	add	s5,s5,s11
    4d26:	001b0313          	addi	t1,s6,1

00004d2a <.LVL1803>:
    4d2a:	476c82e3          	beq	s9,s6,598e <.L1769>
    4d2e:	8b1a                	mv	s6,t1
    4d30:	b5b5                	j	4b9c <.L1766>

00004d32 <.L2524>:
        crc=crcu8( (ee_u8) (newval)                             ,crc);
    4d32:	0ff7f393          	andi	t2,a5,255
        crc=crcu8( (ee_u8) ((newval)>>8)        ,crc);
    4d36:	0082db13          	srli	s6,t0,0x8

00004d3a <.L1767>:
                x16 = (ee_u8)((data & 1) ^ ((ee_u8)crc & 1));
    4d3a:	0193c0b3          	xor	ra,t2,s9
                if (x16 == 1)
    4d3e:	0010fe93          	andi	t4,ra,1
                data >>= 1;
    4d42:	0013da93          	srli	s5,t2,0x1

00004d46 <.LVL1806>:
                if (x16 == 1)
    4d46:	001cd313          	srli	t1,s9,0x1
    4d4a:	000e8b63          	beqz	t4,4d60 <.L1778>

00004d4e <.LVL1807>:
                   crc |= 0x8000;
    4d4e:	7e69                	lui	t3,0xffffa
    4d50:	001e0493          	addi	s1,t3,1 # ffffa001 <STACK+0xfffe1931>
    4d54:	00934433          	xor	s0,t1,s1

00004d58 <.LVL1808>:
    4d58:	01041813          	slli	a6,s0,0x10
    4d5c:	01085313          	srli	t1,a6,0x10

00004d60 <.L1778>:
                x16 = (ee_u8)((data & 1) ^ ((ee_u8)crc & 1));
    4d60:	006acf33          	xor	t5,s5,t1
                if (x16 == 1)
    4d64:	001f7913          	andi	s2,t5,1
                data >>= 1;
    4d68:	0023d293          	srli	t0,t2,0x2

00004d6c <.LVL1810>:
                if (x16 == 1)
    4d6c:	00135b93          	srli	s7,t1,0x1
    4d70:	00090b63          	beqz	s2,4d86 <.L1779>

00004d74 <.LVL1811>:
                   crc |= 0x8000;
    4d74:	79e9                	lui	s3,0xffffa
    4d76:	00198f93          	addi	t6,s3,1 # ffffa001 <STACK+0xfffe1931>
    4d7a:	01fbc7b3          	xor	a5,s7,t6

00004d7e <.LVL1812>:
    4d7e:	01079693          	slli	a3,a5,0x10
    4d82:	0106db93          	srli	s7,a3,0x10

00004d86 <.L1779>:
                x16 = (ee_u8)((data & 1) ^ ((ee_u8)crc & 1));
    4d86:	0172c8b3          	xor	a7,t0,s7
                if (x16 == 1)
    4d8a:	0018f513          	andi	a0,a7,1
                data >>= 1;
    4d8e:	0033d713          	srli	a4,t2,0x3

00004d92 <.LVL1814>:
                if (x16 == 1)
    4d92:	001bd093          	srli	ra,s7,0x1
    4d96:	c911                	beqz	a0,4daa <.L1780>

00004d98 <.LVL1815>:
                   crc |= 0x8000;
    4d98:	7c69                	lui	s8,0xffffa
    4d9a:	001c0c93          	addi	s9,s8,1 # ffffa001 <STACK+0xfffe1931>
    4d9e:	0190ca33          	xor	s4,ra,s9

00004da2 <.LVL1816>:
    4da2:	010a1593          	slli	a1,s4,0x10
    4da6:	0105d093          	srli	ra,a1,0x10

00004daa <.L1780>:
                x16 = (ee_u8)((data & 1) ^ ((ee_u8)crc & 1));
    4daa:	00174633          	xor	a2,a4,ra
                if (x16 == 1)
    4dae:	00167e93          	andi	t4,a2,1
                data >>= 1;
    4db2:	0043da93          	srli	s5,t2,0x4

00004db6 <.LVL1818>:
                if (x16 == 1)
    4db6:	0010d313          	srli	t1,ra,0x1
    4dba:	000e8b63          	beqz	t4,4dd0 <.L1781>

00004dbe <.LVL1819>:
                   crc |= 0x8000;
    4dbe:	7e69                	lui	t3,0xffffa
    4dc0:	001e0493          	addi	s1,t3,1 # ffffa001 <STACK+0xfffe1931>
    4dc4:	00934433          	xor	s0,t1,s1

00004dc8 <.LVL1820>:
    4dc8:	01041813          	slli	a6,s0,0x10
    4dcc:	01085313          	srli	t1,a6,0x10

00004dd0 <.L1781>:
                x16 = (ee_u8)((data & 1) ^ ((ee_u8)crc & 1));
    4dd0:	006acf33          	xor	t5,s5,t1
                if (x16 == 1)
    4dd4:	001f7913          	andi	s2,t5,1
                data >>= 1;
    4dd8:	0053d293          	srli	t0,t2,0x5

00004ddc <.LVL1822>:
                if (x16 == 1)
    4ddc:	00135b93          	srli	s7,t1,0x1
    4de0:	00090b63          	beqz	s2,4df6 <.L1782>

00004de4 <.LVL1823>:
                   crc |= 0x8000;
    4de4:	79e9                	lui	s3,0xffffa
    4de6:	00198f93          	addi	t6,s3,1 # ffffa001 <STACK+0xfffe1931>
    4dea:	01fbc7b3          	xor	a5,s7,t6

00004dee <.LVL1824>:
    4dee:	01079693          	slli	a3,a5,0x10
    4df2:	0106db93          	srli	s7,a3,0x10

00004df6 <.L1782>:
                x16 = (ee_u8)((data & 1) ^ ((ee_u8)crc & 1));
    4df6:	0172c8b3          	xor	a7,t0,s7
                if (x16 == 1)
    4dfa:	0018f513          	andi	a0,a7,1
                data >>= 1;
    4dfe:	0063d713          	srli	a4,t2,0x6

00004e02 <.LVL1826>:
                if (x16 == 1)
    4e02:	001bd093          	srli	ra,s7,0x1
    4e06:	c911                	beqz	a0,4e1a <.L1783>

00004e08 <.LVL1827>:
                   crc |= 0x8000;
    4e08:	7c69                	lui	s8,0xffffa
    4e0a:	001c0c93          	addi	s9,s8,1 # ffffa001 <STACK+0xfffe1931>
    4e0e:	0190ca33          	xor	s4,ra,s9

00004e12 <.LVL1828>:
    4e12:	010a1593          	slli	a1,s4,0x10
    4e16:	0105d093          	srli	ra,a1,0x10

00004e1a <.L1783>:
                x16 = (ee_u8)((data & 1) ^ ((ee_u8)crc & 1));
    4e1a:	00174633          	xor	a2,a4,ra
                if (x16 == 1)
    4e1e:	00167e93          	andi	t4,a2,1
                data >>= 1;
    4e22:	0073d393          	srli	t2,t2,0x7

00004e26 <.LVL1830>:
                if (x16 == 1)
    4e26:	0010d813          	srli	a6,ra,0x1
    4e2a:	000e8b63          	beqz	t4,4e40 <.L1784>

00004e2e <.LVL1831>:
                   crc |= 0x8000;
    4e2e:	7ae9                	lui	s5,0xffffa
    4e30:	001a8e13          	addi	t3,s5,1 # ffffa001 <STACK+0xfffe1931>
    4e34:	01c844b3          	xor	s1,a6,t3

00004e38 <.LVL1832>:
    4e38:	01049413          	slli	s0,s1,0x10
    4e3c:	01045813          	srli	a6,s0,0x10

00004e40 <.L1784>:
                if (x16 == 1)
    4e40:	00187313          	andi	t1,a6,1
    4e44:	00185f93          	srli	t6,a6,0x1
    4e48:	00730b63          	beq	t1,t2,4e5e <.L1785>

00004e4c <.LVL1834>:
                   crc |= 0x8000;
    4e4c:	7f69                	lui	t5,0xffffa
    4e4e:	001f0913          	addi	s2,t5,1 # ffffa001 <STACK+0xfffe1931>
    4e52:	012fc2b3          	xor	t0,t6,s2

00004e56 <.LVL1835>:
    4e56:	01029993          	slli	s3,t0,0x10
    4e5a:	0109df93          	srli	t6,s3,0x10

00004e5e <.L1785>:
                x16 = (ee_u8)((data & 1) ^ ((ee_u8)crc & 1));
    4e5e:	016fc7b3          	xor	a5,t6,s6
                if (x16 == 1)
    4e62:	0017f693          	andi	a3,a5,1
                data >>= 1;
    4e66:	001b5b93          	srli	s7,s6,0x1

00004e6a <.LVL1837>:
                if (x16 == 1)
    4e6a:	001fdc93          	srli	s9,t6,0x1
    4e6e:	ca91                	beqz	a3,4e82 <.L1786>

00004e70 <.LVL1838>:
                   crc |= 0x8000;
    4e70:	78e9                	lui	a7,0xffffa
    4e72:	00188513          	addi	a0,a7,1 # ffffa001 <STACK+0xfffe1931>
    4e76:	00acc733          	xor	a4,s9,a0

00004e7a <.LVL1839>:
    4e7a:	01071c13          	slli	s8,a4,0x10
    4e7e:	010c5c93          	srli	s9,s8,0x10

00004e82 <.L1786>:
                x16 = (ee_u8)((data & 1) ^ ((ee_u8)crc & 1));
    4e82:	017cca33          	xor	s4,s9,s7
                if (x16 == 1)
    4e86:	001a7593          	andi	a1,s4,1
                data >>= 1;
    4e8a:	002b5093          	srli	ra,s6,0x2

00004e8e <.LVL1841>:
                if (x16 == 1)
    4e8e:	001cde13          	srli	t3,s9,0x1
    4e92:	c991                	beqz	a1,4ea6 <.L1787>

00004e94 <.LVL1842>:
                   crc |= 0x8000;
    4e94:	7669                	lui	a2,0xffffa
    4e96:	00160e93          	addi	t4,a2,1 # ffffa001 <STACK+0xfffe1931>
    4e9a:	01de43b3          	xor	t2,t3,t4

00004e9e <.LVL1843>:
    4e9e:	01039a93          	slli	s5,t2,0x10
    4ea2:	010ade13          	srli	t3,s5,0x10

00004ea6 <.L1787>:
                x16 = (ee_u8)((data & 1) ^ ((ee_u8)crc & 1));
    4ea6:	001e44b3          	xor	s1,t3,ra
                if (x16 == 1)
    4eaa:	0014f413          	andi	s0,s1,1
                data >>= 1;
    4eae:	003b5813          	srli	a6,s6,0x3

00004eb2 <.LVL1845>:
                if (x16 == 1)
    4eb2:	001e5993          	srli	s3,t3,0x1
    4eb6:	c811                	beqz	s0,4eca <.L1788>

00004eb8 <.LVL1846>:
                   crc |= 0x8000;
    4eb8:	7369                	lui	t1,0xffffa
    4eba:	00130f13          	addi	t5,t1,1 # ffffa001 <STACK+0xfffe1931>
    4ebe:	01e9c933          	xor	s2,s3,t5

00004ec2 <.LVL1847>:
    4ec2:	01091293          	slli	t0,s2,0x10
    4ec6:	0102d993          	srli	s3,t0,0x10

00004eca <.L1788>:
                x16 = (ee_u8)((data & 1) ^ ((ee_u8)crc & 1));
    4eca:	0109cfb3          	xor	t6,s3,a6
                if (x16 == 1)
    4ece:	001ffb93          	andi	s7,t6,1
                data >>= 1;
    4ed2:	004b5693          	srli	a3,s6,0x4

00004ed6 <.LVL1849>:
                if (x16 == 1)
    4ed6:	0019dc13          	srli	s8,s3,0x1
    4eda:	000b8b63          	beqz	s7,4ef0 <.L1789>

00004ede <.LVL1850>:
                   crc |= 0x8000;
    4ede:	78e9                	lui	a7,0xffffa
    4ee0:	00188513          	addi	a0,a7,1 # ffffa001 <STACK+0xfffe1931>
    4ee4:	00ac47b3          	xor	a5,s8,a0

00004ee8 <.LVL1851>:
    4ee8:	01079713          	slli	a4,a5,0x10
    4eec:	01075c13          	srli	s8,a4,0x10

00004ef0 <.L1789>:
                x16 = (ee_u8)((data & 1) ^ ((ee_u8)crc & 1));
    4ef0:	00dc4cb3          	xor	s9,s8,a3
                if (x16 == 1)
    4ef4:	001cfa13          	andi	s4,s9,1
                data >>= 1;
    4ef8:	005b5593          	srli	a1,s6,0x5

00004efc <.LVL1853>:
                if (x16 == 1)
    4efc:	001c5a93          	srli	s5,s8,0x1
    4f00:	000a0b63          	beqz	s4,4f16 <.L1790>

00004f04 <.LVL1854>:
                   crc |= 0x8000;
    4f04:	70e9                	lui	ra,0xffffa
    4f06:	00108613          	addi	a2,ra,1 # ffffa001 <STACK+0xfffe1931>
    4f0a:	00caceb3          	xor	t4,s5,a2

00004f0e <.LVL1855>:
    4f0e:	010e9393          	slli	t2,t4,0x10
    4f12:	0103da93          	srli	s5,t2,0x10

00004f16 <.L1790>:
                x16 = (ee_u8)((data & 1) ^ ((ee_u8)crc & 1));
    4f16:	0155ce33          	xor	t3,a1,s5
                if (x16 == 1)
    4f1a:	001e7493          	andi	s1,t3,1
                data >>= 1;
    4f1e:	006b5413          	srli	s0,s6,0x6

00004f22 <.LVL1857>:
                if (x16 == 1)
    4f22:	001ad293          	srli	t0,s5,0x1
    4f26:	c891                	beqz	s1,4f3a <.L1791>

00004f28 <.LVL1858>:
                   crc |= 0x8000;
    4f28:	7869                	lui	a6,0xffffa
    4f2a:	00180313          	addi	t1,a6,1 # ffffa001 <STACK+0xfffe1931>
    4f2e:	0062cf33          	xor	t5,t0,t1

00004f32 <.LVL1859>:
    4f32:	010f1913          	slli	s2,t5,0x10
    4f36:	01095293          	srli	t0,s2,0x10

00004f3a <.L1791>:
                x16 = (ee_u8)((data & 1) ^ ((ee_u8)crc & 1));
    4f3a:	005449b3          	xor	s3,s0,t0
                if (x16 == 1)
    4f3e:	0019ff93          	andi	t6,s3,1
                data >>= 1;
    4f42:	007b5b13          	srli	s6,s6,0x7

00004f46 <.LVL1861>:
                if (x16 == 1)
    4f46:	0012d793          	srli	a5,t0,0x1
    4f4a:	000f8b63          	beqz	t6,4f60 <.L1792>

00004f4e <.LVL1862>:
                   crc |= 0x8000;
    4f4e:	7be9                	lui	s7,0xffffa
    4f50:	001b8693          	addi	a3,s7,1 # ffffa001 <STACK+0xfffe1931>
    4f54:	00d7c8b3          	xor	a7,a5,a3

00004f58 <.LVL1863>:
    4f58:	01089513          	slli	a0,a7,0x10
    4f5c:	01055793          	srli	a5,a0,0x10

00004f60 <.L1792>:
                if (x16 == 1)
    4f60:	0017dc13          	srli	s8,a5,0x1
    4f64:	0017f713          	andi	a4,a5,1
    4f68:	ce62                	sw	s8,28(sp)
    4f6a:	01670c63          	beq	a4,s6,4f82 <.L1793>

00004f6e <.LVL1865>:
                   crc |= 0x8000;
    4f6e:	7ce9                	lui	s9,0xffffa
    4f70:	001c8a13          	addi	s4,s9,1 # ffffa001 <STACK+0xfffe1931>
    4f74:	014c45b3          	xor	a1,s8,s4

00004f78 <.LVL1866>:
    4f78:	01059093          	slli	ra,a1,0x10
    4f7c:	0100d613          	srli	a2,ra,0x10
    4f80:	ce32                	sw	a2,28(sp)

00004f82 <.L1793>:
        ee_printf("Matrix %s [%dx%d]:\n",name,N,N);
    4f82:	43e2                	lw	t2,24(sp)
    4f84:	6ec1                	lui	t4,0x10
    4f86:	86ee                	mv	a3,s11
    4f88:	866e                	mv	a2,s11
    4f8a:	190e8593          	addi	a1,t4,400 # 10190 <.LC13>
    4f8e:	11438513          	addi	a0,t2,276
    4f92:	827fd0ef          	jal	ra,27b8 <whisperPrintf>

00004f96 <.LVL1868>:
        for (i=0; i<N; i++) {
    4f96:	4401                	li	s0,0
    4f98:	4481                	li	s1,0
    4f9a:	1a0d8663          	beqz	s11,5146 <.L1795>
                                ee_printf(",");
    4f9e:	4bb2                	lw	s7,12(sp)
        for (i=0; i<N; i++) {
    4fa0:	4a01                	li	s4,0
    4fa2:	4a81                	li	s5,0
    4fa4:	69c1                	lui	s3,0x10
    4fa6:	6b41                	lui	s6,0x10
                                ee_printf(",");
    4fa8:	6941                	lui	s2,0x10

00004faa <.L1794>:
                        if (j!=0)
    4faa:	fffd8e13          	addi	t3,s11,-1
    4fae:	002a1493          	slli	s1,s4,0x2
    4fb2:	007e7c13          	andi	s8,t3,7
    4fb6:	01748433          	add	s0,s1,s7
                for (j=0; j<N; j++) {
    4fba:	4481                	li	s1,0
    4fbc:	140c0b63          	beqz	s8,5112 <.L1798>
                        ee_printf("%d",C[i*N+j]);
    4fc0:	400c                	lw	a1,0(s0)
    4fc2:	12c98513          	addi	a0,s3,300 # 1012c <.LC5>
                                ee_printf(",");
    4fc6:	4485                	li	s1,1
                        ee_printf("%d",C[i*N+j]);
    4fc8:	ff0fd0ef          	jal	ra,27b8 <whisperPrintf>

00004fcc <.LVL1870>:
                                ee_printf(",");
    4fcc:	12890513          	addi	a0,s2,296 # 10128 <.LC4>
                for (j=0; j<N; j++) {
    4fd0:	0411                	addi	s0,s0,4
                                ee_printf(",");
    4fd2:	fe6fd0ef          	jal	ra,27b8 <whisperPrintf>

00004fd6 <.LVL1871>:
    4fd6:	129c0e63          	beq	s8,s1,5112 <.L1798>
    4fda:	4809                	li	a6,2
    4fdc:	090c0563          	beq	s8,a6,5066 <.L2340>
    4fe0:	430d                	li	t1,3
    4fe2:	066c0763          	beq	s8,t1,5050 <.L2341>
    4fe6:	4f11                	li	t5,4
    4fe8:	05ec0963          	beq	s8,t5,503a <.L2342>
    4fec:	4295                	li	t0,5
    4fee:	025c0b63          	beq	s8,t0,5024 <.L2343>
    4ff2:	4f99                	li	t6,6
    4ff4:	01fc0d63          	beq	s8,t6,500e <.L2344>
                        ee_printf("%d",C[i*N+j]);
    4ff8:	400c                	lw	a1,0(s0)
    4ffa:	12c98513          	addi	a0,s3,300
                for (j=0; j<N; j++) {
    4ffe:	0411                	addi	s0,s0,4
                        ee_printf("%d",C[i*N+j]);
    5000:	fb8fd0ef          	jal	ra,27b8 <whisperPrintf>

00005004 <.LVL1872>:
                                ee_printf(",");
    5004:	12890513          	addi	a0,s2,296
    5008:	fb0fd0ef          	jal	ra,27b8 <whisperPrintf>

0000500c <.LVL1873>:
    500c:	4489                	li	s1,2

0000500e <.L2344>:
                        ee_printf("%d",C[i*N+j]);
    500e:	400c                	lw	a1,0(s0)
    5010:	12c98513          	addi	a0,s3,300
                for (j=0; j<N; j++) {
    5014:	0485                	addi	s1,s1,1
                        ee_printf("%d",C[i*N+j]);
    5016:	fa2fd0ef          	jal	ra,27b8 <whisperPrintf>

0000501a <.LVL1874>:
                                ee_printf(",");
    501a:	12890513          	addi	a0,s2,296
                for (j=0; j<N; j++) {
    501e:	0411                	addi	s0,s0,4
                                ee_printf(",");
    5020:	f98fd0ef          	jal	ra,27b8 <whisperPrintf>

00005024 <.L2343>:
                        ee_printf("%d",C[i*N+j]);
    5024:	400c                	lw	a1,0(s0)
    5026:	12c98513          	addi	a0,s3,300
                for (j=0; j<N; j++) {
    502a:	0485                	addi	s1,s1,1
                        ee_printf("%d",C[i*N+j]);
    502c:	f8cfd0ef          	jal	ra,27b8 <whisperPrintf>

00005030 <.LVL1876>:
                                ee_printf(",");
    5030:	12890513          	addi	a0,s2,296
                for (j=0; j<N; j++) {
    5034:	0411                	addi	s0,s0,4
                                ee_printf(",");
    5036:	f82fd0ef          	jal	ra,27b8 <whisperPrintf>

0000503a <.L2342>:
                        ee_printf("%d",C[i*N+j]);
    503a:	400c                	lw	a1,0(s0)
    503c:	12c98513          	addi	a0,s3,300
                for (j=0; j<N; j++) {
    5040:	0485                	addi	s1,s1,1
                        ee_printf("%d",C[i*N+j]);
    5042:	f76fd0ef          	jal	ra,27b8 <whisperPrintf>

00005046 <.LVL1878>:
                                ee_printf(",");
    5046:	12890513          	addi	a0,s2,296
                for (j=0; j<N; j++) {
    504a:	0411                	addi	s0,s0,4
                                ee_printf(",");
    504c:	f6cfd0ef          	jal	ra,27b8 <whisperPrintf>

00005050 <.L2341>:
                        ee_printf("%d",C[i*N+j]);
    5050:	400c                	lw	a1,0(s0)
    5052:	12c98513          	addi	a0,s3,300
                for (j=0; j<N; j++) {
    5056:	0485                	addi	s1,s1,1
                        ee_printf("%d",C[i*N+j]);
    5058:	f60fd0ef          	jal	ra,27b8 <whisperPrintf>

0000505c <.LVL1880>:
                                ee_printf(",");
    505c:	12890513          	addi	a0,s2,296
                for (j=0; j<N; j++) {
    5060:	0411                	addi	s0,s0,4
                                ee_printf(",");
    5062:	f56fd0ef          	jal	ra,27b8 <whisperPrintf>

00005066 <.L2340>:
                        ee_printf("%d",C[i*N+j]);
    5066:	400c                	lw	a1,0(s0)
    5068:	12c98513          	addi	a0,s3,300
                for (j=0; j<N; j++) {
    506c:	0485                	addi	s1,s1,1
                        ee_printf("%d",C[i*N+j]);
    506e:	f4afd0ef          	jal	ra,27b8 <whisperPrintf>

00005072 <.LVL1882>:
                                ee_printf(",");
    5072:	12890513          	addi	a0,s2,296
                for (j=0; j<N; j++) {
    5076:	0411                	addi	s0,s0,4
                                ee_printf(",");
    5078:	f40fd0ef          	jal	ra,27b8 <whisperPrintf>

0000507c <.LVL1883>:
    507c:	a859                	j	5112 <.L1798>

0000507e <.L1796>:
    507e:	f3afd0ef          	jal	ra,27b8 <whisperPrintf>

00005082 <.LVL1885>:
                        ee_printf("%d",C[i*N+j]);
    5082:	404c                	lw	a1,4(s0)
    5084:	12c98513          	addi	a0,s3,300
                for (j=0; j<N; j++) {
    5088:	02040413          	addi	s0,s0,32
                        ee_printf("%d",C[i*N+j]);
    508c:	f2cfd0ef          	jal	ra,27b8 <whisperPrintf>

00005090 <.LVL1886>:
                                ee_printf(",");
    5090:	12890513          	addi	a0,s2,296
    5094:	f24fd0ef          	jal	ra,27b8 <whisperPrintf>

00005098 <.LVL1887>:
                        ee_printf("%d",C[i*N+j]);
    5098:	fe842583          	lw	a1,-24(s0)
    509c:	12c98513          	addi	a0,s3,300
                                ee_printf(",");
    50a0:	04a1                	addi	s1,s1,8
                        ee_printf("%d",C[i*N+j]);
    50a2:	f16fd0ef          	jal	ra,27b8 <whisperPrintf>

000050a6 <.LVL1888>:
                                ee_printf(",");
    50a6:	12890513          	addi	a0,s2,296
    50aa:	f0efd0ef          	jal	ra,27b8 <whisperPrintf>

000050ae <.LVL1889>:
                        ee_printf("%d",C[i*N+j]);
    50ae:	fec42583          	lw	a1,-20(s0)
    50b2:	12c98513          	addi	a0,s3,300
    50b6:	f02fd0ef          	jal	ra,27b8 <whisperPrintf>

000050ba <.LVL1890>:
                                ee_printf(",");
    50ba:	12890513          	addi	a0,s2,296
    50be:	efafd0ef          	jal	ra,27b8 <whisperPrintf>

000050c2 <.LVL1891>:
                        ee_printf("%d",C[i*N+j]);
    50c2:	ff042583          	lw	a1,-16(s0)
    50c6:	12c98513          	addi	a0,s3,300
    50ca:	eeefd0ef          	jal	ra,27b8 <whisperPrintf>

000050ce <.LVL1892>:
                                ee_printf(",");
    50ce:	12890513          	addi	a0,s2,296
    50d2:	ee6fd0ef          	jal	ra,27b8 <whisperPrintf>

000050d6 <.LVL1893>:
                        ee_printf("%d",C[i*N+j]);
    50d6:	ff442583          	lw	a1,-12(s0)
    50da:	12c98513          	addi	a0,s3,300
    50de:	edafd0ef          	jal	ra,27b8 <whisperPrintf>

000050e2 <.LVL1894>:
                                ee_printf(",");
    50e2:	12890513          	addi	a0,s2,296
    50e6:	ed2fd0ef          	jal	ra,27b8 <whisperPrintf>

000050ea <.LVL1895>:
                        ee_printf("%d",C[i*N+j]);
    50ea:	ff842583          	lw	a1,-8(s0)
    50ee:	12c98513          	addi	a0,s3,300
    50f2:	ec6fd0ef          	jal	ra,27b8 <whisperPrintf>

000050f6 <.LVL1896>:
                                ee_printf(",");
    50f6:	12890513          	addi	a0,s2,296
    50fa:	ebefd0ef          	jal	ra,27b8 <whisperPrintf>

000050fe <.LVL1897>:
                        ee_printf("%d",C[i*N+j]);
    50fe:	ffc42583          	lw	a1,-4(s0)
    5102:	12c98513          	addi	a0,s3,300
    5106:	eb2fd0ef          	jal	ra,27b8 <whisperPrintf>

0000510a <.LVL1898>:
                                ee_printf(",");
    510a:	12890513          	addi	a0,s2,296
    510e:	eaafd0ef          	jal	ra,27b8 <whisperPrintf>

00005112 <.L1798>:
                        ee_printf("%d",C[i*N+j]);
    5112:	400c                	lw	a1,0(s0)
    5114:	12c98513          	addi	a0,s3,300
                for (j=0; j<N; j++) {
    5118:	00148c93          	addi	s9,s1,1
                        ee_printf("%d",C[i*N+j]);
    511c:	e9cfd0ef          	jal	ra,27b8 <whisperPrintf>

00005120 <.LVL1900>:
                                ee_printf(",");
    5120:	12890513          	addi	a0,s2,296
                for (j=0; j<N; j++) {
    5124:	f59d9de3          	bne	s11,s9,507e <.L1796>
                ee_printf("\n");
    5128:	414b0513          	addi	a0,s6,1044 # 10414 <.LC1>
    512c:	e8cfd0ef          	jal	ra,27b8 <whisperPrintf>

00005130 <.LVL1901>:
        for (i=0; i<N; i++) {
    5130:	9a6e                	add	s4,s4,s11
    5132:	001a8693          	addi	a3,s5,1

00005136 <.LVL1902>:
    5136:	409a84e3          	beq	s5,s1,5d3e <.L1797>
    513a:	8ab6                	mv	s5,a3
    513c:	b5bd                	j	4faa <.L1794>

0000513e <.L2533>:
        crc=crcu8( (ee_u8) (newval)                             ,crc);
    513e:	0ffaf493          	andi	s1,s5,255
        crc=crcu8( (ee_u8) ((newval)>>8)        ,crc);
    5142:	00895413          	srli	s0,s2,0x8

00005146 <.L1795>:
                x16 = (ee_u8)((data & 1) ^ ((ee_u8)crc & 1));
    5146:	4ff2                	lw	t6,28(sp)
                data >>= 1;
    5148:	0014d093          	srli	ra,s1,0x1

0000514c <.LVL1905>:
                x16 = (ee_u8)((data & 1) ^ ((ee_u8)crc & 1));
    514c:	009fc6b3          	xor	a3,t6,s1
                if (x16 == 1)
    5150:	0016f313          	andi	t1,a3,1
    5154:	001fd813          	srli	a6,t6,0x1
    5158:	00030b63          	beqz	t1,516e <.L1807>

0000515c <.LVL1906>:
                   crc |= 0x8000;
    515c:	72e9                	lui	t0,0xffffa
    515e:	00128e13          	addi	t3,t0,1 # ffffa001 <STACK+0xfffe1931>
    5162:	01c84c33          	xor	s8,a6,t3

00005166 <.LVL1907>:
    5166:	010c1793          	slli	a5,s8,0x10
    516a:	0107d813          	srli	a6,a5,0x10

0000516e <.L1807>:
                x16 = (ee_u8)((data & 1) ^ ((ee_u8)crc & 1));
    516e:	00184bb3          	xor	s7,a6,ra
                if (x16 == 1)
    5172:	001bf393          	andi	t2,s7,1
                data >>= 1;
    5176:	0024df13          	srli	t5,s1,0x2

0000517a <.LVL1909>:
                if (x16 == 1)
    517a:	00185513          	srli	a0,a6,0x1
    517e:	00038b63          	beqz	t2,5194 <.L1808>

00005182 <.LVL1910>:
                   crc |= 0x8000;
    5182:	7969                	lui	s2,0xffffa
    5184:	00190993          	addi	s3,s2,1 # ffffa001 <STACK+0xfffe1931>
    5188:	01354ab3          	xor	s5,a0,s3

0000518c <.LVL1911>:
    518c:	010a9893          	slli	a7,s5,0x10
    5190:	0108d513          	srli	a0,a7,0x10

00005194 <.L1808>:
                x16 = (ee_u8)((data & 1) ^ ((ee_u8)crc & 1));
    5194:	00af45b3          	xor	a1,t5,a0
                if (x16 == 1)
    5198:	0015fe93          	andi	t4,a1,1
                data >>= 1;
    519c:	0034d713          	srli	a4,s1,0x3

000051a0 <.LVL1913>:
                if (x16 == 1)
    51a0:	00155f93          	srli	t6,a0,0x1
    51a4:	000e8b63          	beqz	t4,51ba <.L1809>

000051a8 <.LVL1914>:
                   crc |= 0x8000;
    51a8:	7669                	lui	a2,0xffffa
    51aa:	00160b13          	addi	s6,a2,1 # ffffa001 <STACK+0xfffe1931>
    51ae:	016fca33          	xor	s4,t6,s6

000051b2 <.LVL1915>:
    51b2:	010a1c93          	slli	s9,s4,0x10
    51b6:	010cdf93          	srli	t6,s9,0x10

000051ba <.L1809>:
                x16 = (ee_u8)((data & 1) ^ ((ee_u8)crc & 1));
    51ba:	00efc6b3          	xor	a3,t6,a4
                if (x16 == 1)
    51be:	0016f313          	andi	t1,a3,1
                data >>= 1;
    51c2:	0044d093          	srli	ra,s1,0x4

000051c6 <.LVL1917>:
                if (x16 == 1)
    51c6:	001fd813          	srli	a6,t6,0x1
    51ca:	00030b63          	beqz	t1,51e0 <.L1810>

000051ce <.LVL1918>:
                   crc |= 0x8000;
    51ce:	72e9                	lui	t0,0xffffa
    51d0:	00128e13          	addi	t3,t0,1 # ffffa001 <STACK+0xfffe1931>
    51d4:	01c84c33          	xor	s8,a6,t3

000051d8 <.LVL1919>:
    51d8:	010c1793          	slli	a5,s8,0x10
    51dc:	0107d813          	srli	a6,a5,0x10

000051e0 <.L1810>:
                x16 = (ee_u8)((data & 1) ^ ((ee_u8)crc & 1));
    51e0:	00184bb3          	xor	s7,a6,ra
                if (x16 == 1)
    51e4:	001bf393          	andi	t2,s7,1
                data >>= 1;
    51e8:	0054df13          	srli	t5,s1,0x5

000051ec <.LVL1921>:
                if (x16 == 1)
    51ec:	00185513          	srli	a0,a6,0x1
    51f0:	00038b63          	beqz	t2,5206 <.L1811>

000051f4 <.LVL1922>:
                   crc |= 0x8000;
    51f4:	7969                	lui	s2,0xffffa
    51f6:	00190993          	addi	s3,s2,1 # ffffa001 <STACK+0xfffe1931>
    51fa:	01354ab3          	xor	s5,a0,s3

000051fe <.LVL1923>:
    51fe:	010a9893          	slli	a7,s5,0x10
    5202:	0108d513          	srli	a0,a7,0x10

00005206 <.L1811>:
                x16 = (ee_u8)((data & 1) ^ ((ee_u8)crc & 1));
    5206:	00af45b3          	xor	a1,t5,a0
                if (x16 == 1)
    520a:	0015fe93          	andi	t4,a1,1
                data >>= 1;
    520e:	0064d713          	srli	a4,s1,0x6

00005212 <.LVL1925>:
                if (x16 == 1)
    5212:	00155f93          	srli	t6,a0,0x1
    5216:	000e8b63          	beqz	t4,522c <.L1812>

0000521a <.LVL1926>:
                   crc |= 0x8000;
    521a:	7669                	lui	a2,0xffffa
    521c:	00160b13          	addi	s6,a2,1 # ffffa001 <STACK+0xfffe1931>
    5220:	016fca33          	xor	s4,t6,s6

00005224 <.LVL1927>:
    5224:	010a1c93          	slli	s9,s4,0x10
    5228:	010cdf93          	srli	t6,s9,0x10

0000522c <.L1812>:
                x16 = (ee_u8)((data & 1) ^ ((ee_u8)crc & 1));
    522c:	00efc6b3          	xor	a3,t6,a4
                if (x16 == 1)
    5230:	0016f313          	andi	t1,a3,1
                data >>= 1;
    5234:	809d                	srli	s1,s1,0x7

00005236 <.LVL1929>:
                if (x16 == 1)
    5236:	001fd793          	srli	a5,t6,0x1
    523a:	00030b63          	beqz	t1,5250 <.L1813>

0000523e <.LVL1930>:
                   crc |= 0x8000;
    523e:	70e9                	lui	ra,0xffffa
    5240:	00108293          	addi	t0,ra,1 # ffffa001 <STACK+0xfffe1931>
    5244:	0057ce33          	xor	t3,a5,t0

00005248 <.LVL1931>:
    5248:	010e1c13          	slli	s8,t3,0x10
    524c:	010c5793          	srli	a5,s8,0x10

00005250 <.L1813>:
                if (x16 == 1)
    5250:	0017f813          	andi	a6,a5,1
    5254:	0017d993          	srli	s3,a5,0x1
    5258:	00980b63          	beq	a6,s1,526e <.L1814>

0000525c <.LVL1933>:
                   crc |= 0x8000;
    525c:	7be9                	lui	s7,0xffffa
    525e:	001b8393          	addi	t2,s7,1 # ffffa001 <STACK+0xfffe1931>
    5262:	0079cf33          	xor	t5,s3,t2

00005266 <.LVL1934>:
    5266:	010f1913          	slli	s2,t5,0x10
    526a:	01095993          	srli	s3,s2,0x10

0000526e <.L1814>:
                x16 = (ee_u8)((data & 1) ^ ((ee_u8)crc & 1));
    526e:	0089cab3          	xor	s5,s3,s0
                if (x16 == 1)
    5272:	001af893          	andi	a7,s5,1
                data >>= 1;
    5276:	00145513          	srli	a0,s0,0x1

0000527a <.LVL1936>:
                if (x16 == 1)
    527a:	0019db13          	srli	s6,s3,0x1
    527e:	00088b63          	beqz	a7,5294 <.L1815>

00005282 <.LVL1937>:
                   crc |= 0x8000;
    5282:	75e9                	lui	a1,0xffffa
    5284:	00158e93          	addi	t4,a1,1 # ffffa001 <STACK+0xfffe1931>
    5288:	01db4733          	xor	a4,s6,t4

0000528c <.LVL1938>:
    528c:	01071613          	slli	a2,a4,0x10
    5290:	01065b13          	srli	s6,a2,0x10

00005294 <.L1815>:
                x16 = (ee_u8)((data & 1) ^ ((ee_u8)crc & 1));
    5294:	00ab4a33          	xor	s4,s6,a0
                if (x16 == 1)
    5298:	001a7c93          	andi	s9,s4,1
                data >>= 1;
    529c:	00245f93          	srli	t6,s0,0x2

000052a0 <.LVL1940>:
                if (x16 == 1)
    52a0:	001b5293          	srli	t0,s6,0x1
    52a4:	000c8b63          	beqz	s9,52ba <.L1816>

000052a8 <.LVL1941>:
                   crc |= 0x8000;
    52a8:	76e9                	lui	a3,0xffffa
    52aa:	00168313          	addi	t1,a3,1 # ffffa001 <STACK+0xfffe1931>
    52ae:	0062c4b3          	xor	s1,t0,t1

000052b2 <.LVL1942>:
    52b2:	01049093          	slli	ra,s1,0x10
    52b6:	0100d293          	srli	t0,ra,0x10

000052ba <.L1816>:
                x16 = (ee_u8)((data & 1) ^ ((ee_u8)crc & 1));
    52ba:	01f2ce33          	xor	t3,t0,t6
                if (x16 == 1)
    52be:	001e7793          	andi	a5,t3,1
                data >>= 1;
    52c2:	00345813          	srli	a6,s0,0x3

000052c6 <.LVL1944>:
                if (x16 == 1)
    52c6:	0012d913          	srli	s2,t0,0x1
    52ca:	cb91                	beqz	a5,52de <.L1817>

000052cc <.LVL1945>:
                   crc |= 0x8000;
    52cc:	7be9                	lui	s7,0xffffa
    52ce:	001b8393          	addi	t2,s7,1 # ffffa001 <STACK+0xfffe1931>
    52d2:	00794c33          	xor	s8,s2,t2

000052d6 <.LVL1946>:
    52d6:	010c1f13          	slli	t5,s8,0x10
    52da:	010f5913          	srli	s2,t5,0x10

000052de <.L1817>:
                x16 = (ee_u8)((data & 1) ^ ((ee_u8)crc & 1));
    52de:	010949b3          	xor	s3,s2,a6
                if (x16 == 1)
    52e2:	0019fa93          	andi	s5,s3,1
                data >>= 1;
    52e6:	00445893          	srli	a7,s0,0x4

000052ea <.LVL1948>:
                if (x16 == 1)
    52ea:	00195613          	srli	a2,s2,0x1
    52ee:	000a8b63          	beqz	s5,5304 <.L1818>

000052f2 <.LVL1949>:
                   crc |= 0x8000;
    52f2:	7569                	lui	a0,0xffffa
    52f4:	00150593          	addi	a1,a0,1 # ffffa001 <STACK+0xfffe1931>
    52f8:	00b64eb3          	xor	t4,a2,a1

000052fc <.LVL1950>:
    52fc:	010e9713          	slli	a4,t4,0x10
    5300:	01075613          	srli	a2,a4,0x10

00005304 <.L1818>:
                x16 = (ee_u8)((data & 1) ^ ((ee_u8)crc & 1));
    5304:	01164b33          	xor	s6,a2,a7
                if (x16 == 1)
    5308:	001b7a13          	andi	s4,s6,1
                data >>= 1;
    530c:	00545c93          	srli	s9,s0,0x5

00005310 <.LVL1952>:
                if (x16 == 1)
    5310:	00165093          	srli	ra,a2,0x1
    5314:	000a0b63          	beqz	s4,532a <.L1819>

00005318 <.LVL1953>:
                   crc |= 0x8000;
    5318:	7fe9                	lui	t6,0xffffa
    531a:	001f8693          	addi	a3,t6,1 # ffffa001 <STACK+0xfffe1931>
    531e:	00d0c333          	xor	t1,ra,a3

00005322 <.LVL1954>:
    5322:	01031493          	slli	s1,t1,0x10
    5326:	0104d093          	srli	ra,s1,0x10

0000532a <.L1819>:
                x16 = (ee_u8)((data & 1) ^ ((ee_u8)crc & 1));
    532a:	001cc2b3          	xor	t0,s9,ra
                if (x16 == 1)
    532e:	0012fe13          	andi	t3,t0,1
                data >>= 1;
    5332:	00645793          	srli	a5,s0,0x6

00005336 <.LVL1956>:
                if (x16 == 1)
    5336:	0010df13          	srli	t5,ra,0x1
    533a:	000e0b63          	beqz	t3,5350 <.L1820>

0000533e <.LVL1957>:
                   crc |= 0x8000;
    533e:	7869                	lui	a6,0xffffa
    5340:	00180b93          	addi	s7,a6,1 # ffffa001 <STACK+0xfffe1931>
    5344:	017f43b3          	xor	t2,t5,s7

00005348 <.LVL1958>:
    5348:	01039c13          	slli	s8,t2,0x10
    534c:	010c5f13          	srli	t5,s8,0x10

00005350 <.L1820>:
                x16 = (ee_u8)((data & 1) ^ ((ee_u8)crc & 1));
    5350:	00ff4933          	xor	s2,t5,a5
                if (x16 == 1)
    5354:	00197993          	andi	s3,s2,1
                data >>= 1;
    5358:	801d                	srli	s0,s0,0x7

0000535a <.LVL1960>:
                if (x16 == 1)
    535a:	001f5e93          	srli	t4,t5,0x1
    535e:	00098b63          	beqz	s3,5374 <.L1821>

00005362 <.LVL1961>:
                   crc |= 0x8000;
    5362:	7ae9                	lui	s5,0xffffa
    5364:	001a8893          	addi	a7,s5,1 # ffffa001 <STACK+0xfffe1931>
    5368:	011ec533          	xor	a0,t4,a7

0000536c <.LVL1962>:
    536c:	01051593          	slli	a1,a0,0x10
    5370:	0105de93          	srli	t4,a1,0x10

00005374 <.L1821>:
                if (x16 == 1)
    5374:	001ef713          	andi	a4,t4,1
    5378:	001edc13          	srli	s8,t4,0x1
    537c:	00870b63          	beq	a4,s0,5392 <.L1822>

00005380 <.LVL1964>:
                   crc |= 0x8000;
    5380:	7669                	lui	a2,0xffffa
    5382:	00160b13          	addi	s6,a2,1 # ffffa001 <STACK+0xfffe1931>
    5386:	016c4a33          	xor	s4,s8,s6

0000538a <.LVL1965>:
    538a:	010a1c93          	slli	s9,s4,0x10
    538e:	010cdc13          	srli	s8,s9,0x10

00005392 <.L1822>:
        ee_printf("Matrix %s [%dx%d]:\n",name,N,N);
    5392:	4362                	lw	t1,24(sp)
    5394:	6fc1                	lui	t6,0x10
    5396:	86ee                	mv	a3,s11
    5398:	866e                	mv	a2,s11
    539a:	1a0f8593          	addi	a1,t6,416 # 101a0 <.LC14>
    539e:	11430513          	addi	a0,t1,276
    53a2:	c16fd0ef          	jal	ra,27b8 <whisperPrintf>

000053a6 <.LVL1967>:
        for (i=0; i<N; i++) {
    53a6:	4981                	li	s3,0
    53a8:	4b81                	li	s7,0
    53aa:	1a0d8663          	beqz	s11,5556 <.L1824>
                                ee_printf(",");
    53ae:	4cb2                	lw	s9,12(sp)
        for (i=0; i<N; i++) {
    53b0:	4a01                	li	s4,0
    53b2:	4a81                	li	s5,0
    53b4:	6941                	lui	s2,0x10
    53b6:	6b41                	lui	s6,0x10
                                ee_printf(",");
    53b8:	64c1                	lui	s1,0x10

000053ba <.L1823>:
                        if (j!=0)
    53ba:	fffd8693          	addi	a3,s11,-1
    53be:	002a1093          	slli	ra,s4,0x2
    53c2:	0076f993          	andi	s3,a3,7
    53c6:	01908433          	add	s0,ra,s9
                for (j=0; j<N; j++) {
    53ca:	4b81                	li	s7,0
    53cc:	14098b63          	beqz	s3,5522 <.L1827>
                        ee_printf("%d",C[i*N+j]);
    53d0:	400c                	lw	a1,0(s0)
    53d2:	12c90513          	addi	a0,s2,300 # 1012c <.LC5>
                                ee_printf(",");
    53d6:	4b85                	li	s7,1
                        ee_printf("%d",C[i*N+j]);
    53d8:	be0fd0ef          	jal	ra,27b8 <whisperPrintf>

000053dc <.LVL1969>:
                                ee_printf(",");
    53dc:	12848513          	addi	a0,s1,296 # 10128 <.LC4>
                for (j=0; j<N; j++) {
    53e0:	0411                	addi	s0,s0,4
                                ee_printf(",");
    53e2:	bd6fd0ef          	jal	ra,27b8 <whisperPrintf>

000053e6 <.LVL1970>:
    53e6:	13798e63          	beq	s3,s7,5522 <.L1827>
    53ea:	4289                	li	t0,2
    53ec:	08598563          	beq	s3,t0,5476 <.L2335>
    53f0:	4e0d                	li	t3,3
    53f2:	07c98763          	beq	s3,t3,5460 <.L2336>
    53f6:	4791                	li	a5,4
    53f8:	04f98963          	beq	s3,a5,544a <.L2337>
    53fc:	4815                	li	a6,5
    53fe:	03098b63          	beq	s3,a6,5434 <.L2338>
    5402:	4399                	li	t2,6
    5404:	00798d63          	beq	s3,t2,541e <.L2339>
                        ee_printf("%d",C[i*N+j]);
    5408:	400c                	lw	a1,0(s0)
    540a:	12c90513          	addi	a0,s2,300
                for (j=0; j<N; j++) {
    540e:	0411                	addi	s0,s0,4
                        ee_printf("%d",C[i*N+j]);
    5410:	ba8fd0ef          	jal	ra,27b8 <whisperPrintf>

00005414 <.LVL1971>:
                                ee_printf(",");
    5414:	12848513          	addi	a0,s1,296
    5418:	ba0fd0ef          	jal	ra,27b8 <whisperPrintf>

0000541c <.LVL1972>:
    541c:	4b89                	li	s7,2

0000541e <.L2339>:
                        ee_printf("%d",C[i*N+j]);
    541e:	400c                	lw	a1,0(s0)
    5420:	12c90513          	addi	a0,s2,300
                for (j=0; j<N; j++) {
    5424:	0b85                	addi	s7,s7,1
                        ee_printf("%d",C[i*N+j]);
    5426:	b92fd0ef          	jal	ra,27b8 <whisperPrintf>

0000542a <.LVL1973>:
                                ee_printf(",");
    542a:	12848513          	addi	a0,s1,296
                for (j=0; j<N; j++) {
    542e:	0411                	addi	s0,s0,4
                                ee_printf(",");
    5430:	b88fd0ef          	jal	ra,27b8 <whisperPrintf>

00005434 <.L2338>:
                        ee_printf("%d",C[i*N+j]);
    5434:	400c                	lw	a1,0(s0)
    5436:	12c90513          	addi	a0,s2,300
                for (j=0; j<N; j++) {
    543a:	0b85                	addi	s7,s7,1
                        ee_printf("%d",C[i*N+j]);
    543c:	b7cfd0ef          	jal	ra,27b8 <whisperPrintf>

00005440 <.LVL1975>:
                                ee_printf(",");
    5440:	12848513          	addi	a0,s1,296
                for (j=0; j<N; j++) {
    5444:	0411                	addi	s0,s0,4
                                ee_printf(",");
    5446:	b72fd0ef          	jal	ra,27b8 <whisperPrintf>

0000544a <.L2337>:
                        ee_printf("%d",C[i*N+j]);
    544a:	400c                	lw	a1,0(s0)
    544c:	12c90513          	addi	a0,s2,300
                for (j=0; j<N; j++) {
    5450:	0b85                	addi	s7,s7,1
                        ee_printf("%d",C[i*N+j]);
    5452:	b66fd0ef          	jal	ra,27b8 <whisperPrintf>

00005456 <.LVL1977>:
                                ee_printf(",");
    5456:	12848513          	addi	a0,s1,296
                for (j=0; j<N; j++) {
    545a:	0411                	addi	s0,s0,4
                                ee_printf(",");
    545c:	b5cfd0ef          	jal	ra,27b8 <whisperPrintf>

00005460 <.L2336>:
                        ee_printf("%d",C[i*N+j]);
    5460:	400c                	lw	a1,0(s0)
    5462:	12c90513          	addi	a0,s2,300
                for (j=0; j<N; j++) {
    5466:	0b85                	addi	s7,s7,1
                        ee_printf("%d",C[i*N+j]);
    5468:	b50fd0ef          	jal	ra,27b8 <whisperPrintf>

0000546c <.LVL1979>:
                                ee_printf(",");
    546c:	12848513          	addi	a0,s1,296
                for (j=0; j<N; j++) {
    5470:	0411                	addi	s0,s0,4
                                ee_printf(",");
    5472:	b46fd0ef          	jal	ra,27b8 <whisperPrintf>

00005476 <.L2335>:
                        ee_printf("%d",C[i*N+j]);
    5476:	400c                	lw	a1,0(s0)
    5478:	12c90513          	addi	a0,s2,300
                for (j=0; j<N; j++) {
    547c:	0b85                	addi	s7,s7,1
                        ee_printf("%d",C[i*N+j]);
    547e:	b3afd0ef          	jal	ra,27b8 <whisperPrintf>

00005482 <.LVL1981>:
                                ee_printf(",");
    5482:	12848513          	addi	a0,s1,296
                for (j=0; j<N; j++) {
    5486:	0411                	addi	s0,s0,4
                                ee_printf(",");
    5488:	b30fd0ef          	jal	ra,27b8 <whisperPrintf>

0000548c <.LVL1982>:
    548c:	a859                	j	5522 <.L1827>

0000548e <.L1825>:
    548e:	b2afd0ef          	jal	ra,27b8 <whisperPrintf>

00005492 <.LVL1984>:
                        ee_printf("%d",C[i*N+j]);
    5492:	404c                	lw	a1,4(s0)
    5494:	12c90513          	addi	a0,s2,300
                for (j=0; j<N; j++) {
    5498:	02040413          	addi	s0,s0,32
                        ee_printf("%d",C[i*N+j]);
    549c:	b1cfd0ef          	jal	ra,27b8 <whisperPrintf>

000054a0 <.LVL1985>:
                                ee_printf(",");
    54a0:	12848513          	addi	a0,s1,296
    54a4:	b14fd0ef          	jal	ra,27b8 <whisperPrintf>

000054a8 <.LVL1986>:
                        ee_printf("%d",C[i*N+j]);
    54a8:	fe842583          	lw	a1,-24(s0)
    54ac:	12c90513          	addi	a0,s2,300
                                ee_printf(",");
    54b0:	0ba1                	addi	s7,s7,8
                        ee_printf("%d",C[i*N+j]);
    54b2:	b06fd0ef          	jal	ra,27b8 <whisperPrintf>

000054b6 <.LVL1987>:
                                ee_printf(",");
    54b6:	12848513          	addi	a0,s1,296
    54ba:	afefd0ef          	jal	ra,27b8 <whisperPrintf>

000054be <.LVL1988>:
                        ee_printf("%d",C[i*N+j]);
    54be:	fec42583          	lw	a1,-20(s0)
    54c2:	12c90513          	addi	a0,s2,300
    54c6:	af2fd0ef          	jal	ra,27b8 <whisperPrintf>

000054ca <.LVL1989>:
                                ee_printf(",");
    54ca:	12848513          	addi	a0,s1,296
    54ce:	aeafd0ef          	jal	ra,27b8 <whisperPrintf>

000054d2 <.LVL1990>:
                        ee_printf("%d",C[i*N+j]);
    54d2:	ff042583          	lw	a1,-16(s0)
    54d6:	12c90513          	addi	a0,s2,300
    54da:	adefd0ef          	jal	ra,27b8 <whisperPrintf>

000054de <.LVL1991>:
                                ee_printf(",");
    54de:	12848513          	addi	a0,s1,296
    54e2:	ad6fd0ef          	jal	ra,27b8 <whisperPrintf>

000054e6 <.LVL1992>:
                        ee_printf("%d",C[i*N+j]);
    54e6:	ff442583          	lw	a1,-12(s0)
    54ea:	12c90513          	addi	a0,s2,300
    54ee:	acafd0ef          	jal	ra,27b8 <whisperPrintf>

000054f2 <.LVL1993>:
                                ee_printf(",");
    54f2:	12848513          	addi	a0,s1,296
    54f6:	ac2fd0ef          	jal	ra,27b8 <whisperPrintf>

000054fa <.LVL1994>:
                        ee_printf("%d",C[i*N+j]);
    54fa:	ff842583          	lw	a1,-8(s0)
    54fe:	12c90513          	addi	a0,s2,300
    5502:	ab6fd0ef          	jal	ra,27b8 <whisperPrintf>

00005506 <.LVL1995>:
                                ee_printf(",");
    5506:	12848513          	addi	a0,s1,296
    550a:	aaefd0ef          	jal	ra,27b8 <whisperPrintf>

0000550e <.LVL1996>:
                        ee_printf("%d",C[i*N+j]);
    550e:	ffc42583          	lw	a1,-4(s0)
    5512:	12c90513          	addi	a0,s2,300
    5516:	aa2fd0ef          	jal	ra,27b8 <whisperPrintf>

0000551a <.LVL1997>:
                                ee_printf(",");
    551a:	12848513          	addi	a0,s1,296
    551e:	a9afd0ef          	jal	ra,27b8 <whisperPrintf>

00005522 <.L1827>:
                        ee_printf("%d",C[i*N+j]);
    5522:	400c                	lw	a1,0(s0)
    5524:	12c90513          	addi	a0,s2,300
                for (j=0; j<N; j++) {
    5528:	001b8993          	addi	s3,s7,1
                        ee_printf("%d",C[i*N+j]);
    552c:	a8cfd0ef          	jal	ra,27b8 <whisperPrintf>

00005530 <.LVL1999>:
                                ee_printf(",");
    5530:	12848513          	addi	a0,s1,296
                for (j=0; j<N; j++) {
    5534:	f53d9de3          	bne	s11,s3,548e <.L1825>
                ee_printf("\n");
    5538:	414b0513          	addi	a0,s6,1044 # 10414 <.LC1>
    553c:	a7cfd0ef          	jal	ra,27b8 <whisperPrintf>

00005540 <.LVL2000>:
        for (i=0; i<N; i++) {
    5540:	9a6e                	add	s4,s4,s11
    5542:	001a8f13          	addi	t5,s5,1

00005546 <.LVL2001>:
    5546:	1b5b8de3          	beq	s7,s5,5f00 <.L1826>
    554a:	8afa                	mv	s5,t5
    554c:	b5bd                	j	53ba <.L1823>

0000554e <.L2538>:
        crc=crcu8( (ee_u8) (newval)                             ,crc);
    554e:	0fff7b93          	andi	s7,t5,255
        crc=crcu8( (ee_u8) ((newval)>>8)        ,crc);
    5552:	00895993          	srli	s3,s2,0x8

00005556 <.L1824>:
                x16 = (ee_u8)((data & 1) ^ ((ee_u8)crc & 1));
    5556:	017c4d33          	xor	s10,s8,s7
                if (x16 == 1)
    555a:	001d7e93          	andi	t4,s10,1
                data >>= 1;
    555e:	001bd293          	srli	t0,s7,0x1

00005562 <.LVL2004>:
                if (x16 == 1)
    5562:	001c5b13          	srli	s6,s8,0x1
    5566:	000e8b63          	beqz	t4,557c <.L1836>

0000556a <.LVL2005>:
                   crc |= 0x8000;
    556a:	70e9                	lui	ra,0xffffa
    556c:	00108793          	addi	a5,ra,1 # ffffa001 <STACK+0xfffe1931>
    5570:	00fb4333          	xor	t1,s6,a5

00005574 <.LVL2006>:
    5574:	01031a93          	slli	s5,t1,0x10
    5578:	010adb13          	srli	s6,s5,0x10

0000557c <.L1836>:
                x16 = (ee_u8)((data & 1) ^ ((ee_u8)crc & 1));
    557c:	0162c533          	xor	a0,t0,s6
                if (x16 == 1)
    5580:	00157893          	andi	a7,a0,1
                data >>= 1;
    5584:	002bda13          	srli	s4,s7,0x2

00005588 <.LVL2008>:
                if (x16 == 1)
    5588:	001b5813          	srli	a6,s6,0x1
    558c:	00088b63          	beqz	a7,55a2 <.L1837>

00005590 <.LVL2009>:
                   crc |= 0x8000;
    5590:	7f69                	lui	t5,0xffffa
    5592:	001f0e13          	addi	t3,t5,1 # ffffa001 <STACK+0xfffe1931>
    5596:	01c843b3          	xor	t2,a6,t3

0000559a <.LVL2010>:
    559a:	01039713          	slli	a4,t2,0x10
    559e:	01075813          	srli	a6,a4,0x10

000055a2 <.L1837>:
                x16 = (ee_u8)((data & 1) ^ ((ee_u8)crc & 1));
    55a2:	014845b3          	xor	a1,a6,s4
                if (x16 == 1)
    55a6:	0015ff93          	andi	t6,a1,1
                data >>= 1;
    55aa:	003bd613          	srli	a2,s7,0x3

000055ae <.LVL2012>:
                if (x16 == 1)
    55ae:	00185913          	srli	s2,a6,0x1
    55b2:	000f8b63          	beqz	t6,55c8 <.L1838>

000055b6 <.LVL2013>:
                   crc |= 0x8000;
    55b6:	76e9                	lui	a3,0xffffa
    55b8:	00168c13          	addi	s8,a3,1 # ffffa001 <STACK+0xfffe1931>
    55bc:	01894433          	xor	s0,s2,s8

000055c0 <.LVL2014>:
    55c0:	01041493          	slli	s1,s0,0x10
    55c4:	0104d913          	srli	s2,s1,0x10

000055c8 <.L1838>:
                x16 = (ee_u8)((data & 1) ^ ((ee_u8)crc & 1));
    55c8:	00c94cb3          	xor	s9,s2,a2
                if (x16 == 1)
    55cc:	001cfd13          	andi	s10,s9,1
                data >>= 1;
    55d0:	004bde93          	srli	t4,s7,0x4

000055d4 <.LVL2016>:
                if (x16 == 1)
    55d4:	00195a93          	srli	s5,s2,0x1
    55d8:	000d0b63          	beqz	s10,55ee <.L1839>

000055dc <.LVL2017>:
                   crc |= 0x8000;
    55dc:	72e9                	lui	t0,0xffffa
    55de:	00128093          	addi	ra,t0,1 # ffffa001 <STACK+0xfffe1931>
    55e2:	001ac7b3          	xor	a5,s5,ra

000055e6 <.LVL2018>:
    55e6:	01079313          	slli	t1,a5,0x10
    55ea:	01035a93          	srli	s5,t1,0x10

000055ee <.L1839>:
                x16 = (ee_u8)((data & 1) ^ ((ee_u8)crc & 1));
    55ee:	01dacb33          	xor	s6,s5,t4
                if (x16 == 1)
    55f2:	001b7513          	andi	a0,s6,1
                data >>= 1;
    55f6:	005bd893          	srli	a7,s7,0x5

000055fa <.LVL2020>:
                if (x16 == 1)
    55fa:	001ad713          	srli	a4,s5,0x1
    55fe:	c911                	beqz	a0,5612 <.L1840>

00005600 <.LVL2021>:
                   crc |= 0x8000;
    5600:	7a69                	lui	s4,0xffffa
    5602:	001a0f13          	addi	t5,s4,1 # ffffa001 <STACK+0xfffe1931>
    5606:	01e74e33          	xor	t3,a4,t5

0000560a <.LVL2022>:
    560a:	010e1393          	slli	t2,t3,0x10
    560e:	0103d713          	srli	a4,t2,0x10

00005612 <.L1840>:
                x16 = (ee_u8)((data & 1) ^ ((ee_u8)crc & 1));
    5612:	01174833          	xor	a6,a4,a7
                if (x16 == 1)
    5616:	00187593          	andi	a1,a6,1
                data >>= 1;
    561a:	006bdf93          	srli	t6,s7,0x6

0000561e <.LVL2024>:
                if (x16 == 1)
    561e:	00175493          	srli	s1,a4,0x1
    5622:	c991                	beqz	a1,5636 <.L1841>

00005624 <.LVL2025>:
                   crc |= 0x8000;
    5624:	7669                	lui	a2,0xffffa
    5626:	00160693          	addi	a3,a2,1 # ffffa001 <STACK+0xfffe1931>
    562a:	00d4cc33          	xor	s8,s1,a3

0000562e <.LVL2026>:
    562e:	010c1413          	slli	s0,s8,0x10
    5632:	01045493          	srli	s1,s0,0x10

00005636 <.L1841>:
                x16 = (ee_u8)((data & 1) ^ ((ee_u8)crc & 1));
    5636:	009fc933          	xor	s2,t6,s1
                if (x16 == 1)
    563a:	00197c93          	andi	s9,s2,1
                data >>= 1;
    563e:	007bdb93          	srli	s7,s7,0x7

00005642 <.LVL2028>:
                if (x16 == 1)
    5642:	0014d793          	srli	a5,s1,0x1
    5646:	000c8b63          	beqz	s9,565c <.L1842>

0000564a <.LVL2029>:
                   crc |= 0x8000;
    564a:	7d69                	lui	s10,0xffffa
    564c:	001d0e93          	addi	t4,s10,1 # ffffa001 <STACK+0xfffe1931>
    5650:	01d7c2b3          	xor	t0,a5,t4

00005654 <.LVL2030>:
    5654:	01029093          	slli	ra,t0,0x10
    5658:	0100d793          	srli	a5,ra,0x10

0000565c <.L1842>:
                if (x16 == 1)
    565c:	0017f313          	andi	t1,a5,1
    5660:	0017da13          	srli	s4,a5,0x1
    5664:	01730b63          	beq	t1,s7,567a <.L1843>

00005668 <.LVL2032>:
                   crc |= 0x8000;
    5668:	7ae9                	lui	s5,0xffffa
    566a:	001a8b13          	addi	s6,s5,1 # ffffa001 <STACK+0xfffe1931>
    566e:	016a4533          	xor	a0,s4,s6

00005672 <.LVL2033>:
    5672:	01051893          	slli	a7,a0,0x10
    5676:	0108da13          	srli	s4,a7,0x10

0000567a <.L1843>:
                x16 = (ee_u8)((data & 1) ^ ((ee_u8)crc & 1));
    567a:	0149cf33          	xor	t5,s3,s4
                if (x16 == 1)
    567e:	001f7e13          	andi	t3,t5,1
                data >>= 1;
    5682:	0019d393          	srli	t2,s3,0x1

00005686 <.LVL2035>:
                if (x16 == 1)
    5686:	001a5613          	srli	a2,s4,0x1
    568a:	000e0b63          	beqz	t3,56a0 <.L1844>

0000568e <.LVL2036>:
                   crc |= 0x8000;
    568e:	7769                	lui	a4,0xffffa
    5690:	00170813          	addi	a6,a4,1 # ffffa001 <STACK+0xfffe1931>
    5694:	010645b3          	xor	a1,a2,a6

00005698 <.LVL2037>:
    5698:	01059f93          	slli	t6,a1,0x10
    569c:	010fd613          	srli	a2,t6,0x10

000056a0 <.L1844>:
                x16 = (ee_u8)((data & 1) ^ ((ee_u8)crc & 1));
    56a0:	007646b3          	xor	a3,a2,t2
                if (x16 == 1)
    56a4:	0016fc13          	andi	s8,a3,1
                data >>= 1;
    56a8:	0029d413          	srli	s0,s3,0x2

000056ac <.LVL2039>:
                if (x16 == 1)
    56ac:	00165d13          	srli	s10,a2,0x1
    56b0:	000c0b63          	beqz	s8,56c6 <.L1845>

000056b4 <.LVL2040>:
                   crc |= 0x8000;
    56b4:	7969                	lui	s2,0xffffa
    56b6:	00190c93          	addi	s9,s2,1 # ffffa001 <STACK+0xfffe1931>
    56ba:	019d44b3          	xor	s1,s10,s9

000056be <.LVL2041>:
    56be:	01049b93          	slli	s7,s1,0x10
    56c2:	010bdd13          	srli	s10,s7,0x10

000056c6 <.L1845>:
                x16 = (ee_u8)((data & 1) ^ ((ee_u8)crc & 1));
    56c6:	01a44eb3          	xor	t4,s0,s10
                if (x16 == 1)
    56ca:	001ef293          	andi	t0,t4,1
                data >>= 1;
    56ce:	0039d093          	srli	ra,s3,0x3

000056d2 <.LVL2043>:
                if (x16 == 1)
    56d2:	001d5513          	srli	a0,s10,0x1
    56d6:	00028b63          	beqz	t0,56ec <.L1846>

000056da <.LVL2044>:
                   crc |= 0x8000;
    56da:	77e9                	lui	a5,0xffffa
    56dc:	00178313          	addi	t1,a5,1 # ffffa001 <STACK+0xfffe1931>
    56e0:	00654ab3          	xor	s5,a0,t1

000056e4 <.LVL2045>:
    56e4:	010a9b13          	slli	s6,s5,0x10
    56e8:	010b5513          	srli	a0,s6,0x10

000056ec <.L1846>:
                x16 = (ee_u8)((data & 1) ^ ((ee_u8)crc & 1));
    56ec:	00a0c8b3          	xor	a7,ra,a0
                if (x16 == 1)
    56f0:	0018fa13          	andi	s4,a7,1
                data >>= 1;
    56f4:	0049df13          	srli	t5,s3,0x4

000056f8 <.LVL2047>:
                if (x16 == 1)
    56f8:	00155593          	srli	a1,a0,0x1
    56fc:	000a0b63          	beqz	s4,5712 <.L1847>

00005700 <.LVL2048>:
                   crc |= 0x8000;
    5700:	7e69                	lui	t3,0xffffa
    5702:	001e0393          	addi	t2,t3,1 # ffffa001 <STACK+0xfffe1931>
    5706:	0075c733          	xor	a4,a1,t2

0000570a <.LVL2049>:
    570a:	01071813          	slli	a6,a4,0x10
    570e:	01085593          	srli	a1,a6,0x10

00005712 <.L1847>:
                x16 = (ee_u8)((data & 1) ^ ((ee_u8)crc & 1));
    5712:	00bf4fb3          	xor	t6,t5,a1
                if (x16 == 1)
    5716:	001ff613          	andi	a2,t6,1
                data >>= 1;
    571a:	0059d693          	srli	a3,s3,0x5

0000571e <.LVL2051>:
                if (x16 == 1)
    571e:	0015d493          	srli	s1,a1,0x1
    5722:	ca11                	beqz	a2,5736 <.L1848>

00005724 <.LVL2052>:
                   crc |= 0x8000;
    5724:	7c69                	lui	s8,0xffffa
    5726:	001c0413          	addi	s0,s8,1 # ffffa001 <STACK+0xfffe1931>
    572a:	0084c933          	xor	s2,s1,s0

0000572e <.LVL2053>:
    572e:	01091c93          	slli	s9,s2,0x10
    5732:	010cd493          	srli	s1,s9,0x10

00005736 <.L1848>:
                x16 = (ee_u8)((data & 1) ^ ((ee_u8)crc & 1));
    5736:	0096cbb3          	xor	s7,a3,s1
                if (x16 == 1)
    573a:	001bfd13          	andi	s10,s7,1
                data >>= 1;
    573e:	0069de93          	srli	t4,s3,0x6

00005742 <.LVL2055>:
                if (x16 == 1)
    5742:	0014da93          	srli	s5,s1,0x1
    5746:	000d0b63          	beqz	s10,575c <.L1849>

0000574a <.LVL2056>:
                   crc |= 0x8000;
    574a:	72e9                	lui	t0,0xffffa
    574c:	00128093          	addi	ra,t0,1 # ffffa001 <STACK+0xfffe1931>
    5750:	001ac7b3          	xor	a5,s5,ra

00005754 <.LVL2057>:
    5754:	01079313          	slli	t1,a5,0x10
    5758:	01035a93          	srli	s5,t1,0x10

0000575c <.L1849>:
                x16 = (ee_u8)((data & 1) ^ ((ee_u8)crc & 1));
    575c:	015ecb33          	xor	s6,t4,s5
                if (x16 == 1)
    5760:	001b7513          	andi	a0,s6,1
                data >>= 1;
    5764:	0079d993          	srli	s3,s3,0x7

00005768 <.LVL2059>:
                if (x16 == 1)
    5768:	001ad393          	srli	t2,s5,0x1
    576c:	c911                	beqz	a0,5780 <.L1850>

0000576e <.LVL2060>:
                   crc |= 0x8000;
    576e:	78e9                	lui	a7,0xffffa
    5770:	00188a13          	addi	s4,a7,1 # ffffa001 <STACK+0xfffe1931>
    5774:	0143cf33          	xor	t5,t2,s4

00005778 <.LVL2061>:
    5778:	010f1e13          	slli	t3,t5,0x10
    577c:	010e5393          	srli	t2,t3,0x10

00005780 <.L1850>:
                if (x16 == 1)
    5780:	0013f713          	andi	a4,t2,1
    5784:	0013d493          	srli	s1,t2,0x1
    5788:	01370b63          	beq	a4,s3,579e <.L1851>

0000578c <.LVL2063>:
                   crc |= 0x8000;
    578c:	7869                	lui	a6,0xffffa
    578e:	00180593          	addi	a1,a6,1 # ffffa001 <STACK+0xfffe1931>
    5792:	00b4cfb3          	xor	t6,s1,a1
    5796:	010f9613          	slli	a2,t6,0x10
    579a:	01065493          	srli	s1,a2,0x10

0000579e <.L1851>:
        ee_printf("Matrix %s [%dx%d]:\n",name,N,N);
    579e:	4462                	lw	s0,24(sp)
    57a0:	6c41                	lui	s8,0x10
    57a2:	86ee                	mv	a3,s11
    57a4:	866e                	mv	a2,s11
    57a6:	1b4c0593          	addi	a1,s8,436 # 101b4 <.LC15>
    57aa:	11440513          	addi	a0,s0,276
    57ae:	80afd0ef          	jal	ra,27b8 <whisperPrintf>

000057b2 <.LVL2065>:
        for (i=0; i<N; i++) {
    57b2:	1a0d8b63          	beqz	s11,5968 <.L1853>
                                ee_printf(",");
    57b6:	4bb2                	lw	s7,12(sp)
        for (i=0; i<N; i++) {
    57b8:	4d01                	li	s10,0
    57ba:	4a81                	li	s5,0
    57bc:	6941                	lui	s2,0x10
    57be:	6b41                	lui	s6,0x10
                                ee_printf(",");
    57c0:	6a41                	lui	s4,0x10

000057c2 <.L1852>:
                        if (j!=0)
    57c2:	fffd8693          	addi	a3,s11,-1
    57c6:	002d1e93          	slli	t4,s10,0x2
    57ca:	0076fc93          	andi	s9,a3,7
    57ce:	01db89b3          	add	s3,s7,t4
                for (j=0; j<N; j++) {
    57d2:	4c01                	li	s8,0
    57d4:	160c8363          	beqz	s9,593a <.L1856>
                        ee_printf("%d",C[i*N+j]);
    57d8:	0009a583          	lw	a1,0(s3)
    57dc:	12c90513          	addi	a0,s2,300 # 1012c <.LC5>
                                ee_printf(",");
    57e0:	4c05                	li	s8,1
                        ee_printf("%d",C[i*N+j]);
    57e2:	fd7fc0ef          	jal	ra,27b8 <whisperPrintf>

000057e6 <.LVL2067>:
                                ee_printf(",");
    57e6:	128a0513          	addi	a0,s4,296 # 10128 <.LC4>
                for (j=0; j<N; j++) {
    57ea:	0991                	addi	s3,s3,4
                                ee_printf(",");
    57ec:	fcdfc0ef          	jal	ra,27b8 <whisperPrintf>

000057f0 <.LVL2068>:
    57f0:	158c8563          	beq	s9,s8,593a <.L1856>
    57f4:	4289                	li	t0,2
    57f6:	085c8a63          	beq	s9,t0,588a <.L2330>
    57fa:	408d                	li	ra,3
    57fc:	061c8b63          	beq	s9,ra,5872 <.L2331>
    5800:	4791                	li	a5,4
    5802:	04fc8c63          	beq	s9,a5,585a <.L2332>
    5806:	4315                	li	t1,5
    5808:	026c8d63          	beq	s9,t1,5842 <.L2333>
    580c:	4519                	li	a0,6
    580e:	00ac8e63          	beq	s9,a0,582a <.L2334>
                        ee_printf("%d",C[i*N+j]);
    5812:	0009a583          	lw	a1,0(s3)
    5816:	12c90513          	addi	a0,s2,300
                for (j=0; j<N; j++) {
    581a:	0991                	addi	s3,s3,4
                        ee_printf("%d",C[i*N+j]);
    581c:	f9dfc0ef          	jal	ra,27b8 <whisperPrintf>

00005820 <.LVL2069>:
                                ee_printf(",");
    5820:	128a0513          	addi	a0,s4,296
    5824:	f95fc0ef          	jal	ra,27b8 <whisperPrintf>

00005828 <.LVL2070>:
    5828:	4c09                	li	s8,2

0000582a <.L2334>:
                        ee_printf("%d",C[i*N+j]);
    582a:	0009a583          	lw	a1,0(s3)
    582e:	12c90513          	addi	a0,s2,300
                for (j=0; j<N; j++) {
    5832:	0c05                	addi	s8,s8,1
                        ee_printf("%d",C[i*N+j]);
    5834:	f85fc0ef          	jal	ra,27b8 <whisperPrintf>

00005838 <.LVL2071>:
                                ee_printf(",");
    5838:	128a0513          	addi	a0,s4,296
                for (j=0; j<N; j++) {
    583c:	0991                	addi	s3,s3,4
                                ee_printf(",");
    583e:	f7bfc0ef          	jal	ra,27b8 <whisperPrintf>

00005842 <.L2333>:
                        ee_printf("%d",C[i*N+j]);
    5842:	0009a583          	lw	a1,0(s3)
    5846:	12c90513          	addi	a0,s2,300
                for (j=0; j<N; j++) {
    584a:	0c05                	addi	s8,s8,1
                        ee_printf("%d",C[i*N+j]);
    584c:	f6dfc0ef          	jal	ra,27b8 <whisperPrintf>

00005850 <.LVL2073>:
                                ee_printf(",");
    5850:	128a0513          	addi	a0,s4,296
                for (j=0; j<N; j++) {
    5854:	0991                	addi	s3,s3,4
                                ee_printf(",");
    5856:	f63fc0ef          	jal	ra,27b8 <whisperPrintf>

0000585a <.L2332>:
                        ee_printf("%d",C[i*N+j]);
    585a:	0009a583          	lw	a1,0(s3)
    585e:	12c90513          	addi	a0,s2,300
                for (j=0; j<N; j++) {
    5862:	0c05                	addi	s8,s8,1
                        ee_printf("%d",C[i*N+j]);
    5864:	f55fc0ef          	jal	ra,27b8 <whisperPrintf>

00005868 <.LVL2075>:
                                ee_printf(",");
    5868:	128a0513          	addi	a0,s4,296
                for (j=0; j<N; j++) {
    586c:	0991                	addi	s3,s3,4
                                ee_printf(",");
    586e:	f4bfc0ef          	jal	ra,27b8 <whisperPrintf>

00005872 <.L2331>:
                        ee_printf("%d",C[i*N+j]);
    5872:	0009a583          	lw	a1,0(s3)
    5876:	12c90513          	addi	a0,s2,300
                for (j=0; j<N; j++) {
    587a:	0c05                	addi	s8,s8,1
                        ee_printf("%d",C[i*N+j]);
    587c:	f3dfc0ef          	jal	ra,27b8 <whisperPrintf>

00005880 <.LVL2077>:
                                ee_printf(",");
    5880:	128a0513          	addi	a0,s4,296
                for (j=0; j<N; j++) {
    5884:	0991                	addi	s3,s3,4
                                ee_printf(",");
    5886:	f33fc0ef          	jal	ra,27b8 <whisperPrintf>

0000588a <.L2330>:
                        ee_printf("%d",C[i*N+j]);
    588a:	0009a583          	lw	a1,0(s3)
    588e:	12c90513          	addi	a0,s2,300
                for (j=0; j<N; j++) {
    5892:	0c05                	addi	s8,s8,1
                        ee_printf("%d",C[i*N+j]);
    5894:	f25fc0ef          	jal	ra,27b8 <whisperPrintf>

00005898 <.LVL2079>:
                                ee_printf(",");
    5898:	128a0513          	addi	a0,s4,296
                for (j=0; j<N; j++) {
    589c:	0991                	addi	s3,s3,4
                                ee_printf(",");
    589e:	f1bfc0ef          	jal	ra,27b8 <whisperPrintf>

000058a2 <.LVL2080>:
    58a2:	a861                	j	593a <.L1856>

000058a4 <.L1854>:
    58a4:	f15fc0ef          	jal	ra,27b8 <whisperPrintf>

000058a8 <.LVL2082>:
                        ee_printf("%d",C[i*N+j]);
    58a8:	0049a583          	lw	a1,4(s3)
    58ac:	12c90513          	addi	a0,s2,300
                for (j=0; j<N; j++) {
    58b0:	02098993          	addi	s3,s3,32
                        ee_printf("%d",C[i*N+j]);
    58b4:	f05fc0ef          	jal	ra,27b8 <whisperPrintf>

000058b8 <.LVL2083>:
                                ee_printf(",");
    58b8:	128a0513          	addi	a0,s4,296
    58bc:	efdfc0ef          	jal	ra,27b8 <whisperPrintf>

000058c0 <.LVL2084>:
                        ee_printf("%d",C[i*N+j]);
    58c0:	fe89a583          	lw	a1,-24(s3)
    58c4:	12c90513          	addi	a0,s2,300
                                ee_printf(",");
    58c8:	0c21                	addi	s8,s8,8

000058ca <.LVL2085>:
                        ee_printf("%d",C[i*N+j]);
    58ca:	eeffc0ef          	jal	ra,27b8 <whisperPrintf>

000058ce <.LVL2086>:
                                ee_printf(",");
    58ce:	128a0513          	addi	a0,s4,296
    58d2:	ee7fc0ef          	jal	ra,27b8 <whisperPrintf>

000058d6 <.LVL2087>:
                        ee_printf("%d",C[i*N+j]);
    58d6:	fec9a583          	lw	a1,-20(s3)
    58da:	12c90513          	addi	a0,s2,300
    58de:	edbfc0ef          	jal	ra,27b8 <whisperPrintf>

000058e2 <.LVL2088>:
                                ee_printf(",");
    58e2:	128a0513          	addi	a0,s4,296
    58e6:	ed3fc0ef          	jal	ra,27b8 <whisperPrintf>

000058ea <.LVL2089>:
                        ee_printf("%d",C[i*N+j]);
    58ea:	ff09a583          	lw	a1,-16(s3)
    58ee:	12c90513          	addi	a0,s2,300
    58f2:	ec7fc0ef          	jal	ra,27b8 <whisperPrintf>

000058f6 <.LVL2090>:
                                ee_printf(",");
    58f6:	128a0513          	addi	a0,s4,296
    58fa:	ebffc0ef          	jal	ra,27b8 <whisperPrintf>

000058fe <.LVL2091>:
                        ee_printf("%d",C[i*N+j]);
    58fe:	ff49a583          	lw	a1,-12(s3)
    5902:	12c90513          	addi	a0,s2,300
    5906:	eb3fc0ef          	jal	ra,27b8 <whisperPrintf>

0000590a <.LVL2092>:
                                ee_printf(",");
    590a:	128a0513          	addi	a0,s4,296
    590e:	eabfc0ef          	jal	ra,27b8 <whisperPrintf>

00005912 <.LVL2093>:
                        ee_printf("%d",C[i*N+j]);
    5912:	ff89a583          	lw	a1,-8(s3)
    5916:	12c90513          	addi	a0,s2,300
    591a:	e9ffc0ef          	jal	ra,27b8 <whisperPrintf>

0000591e <.LVL2094>:
                                ee_printf(",");
    591e:	128a0513          	addi	a0,s4,296
    5922:	e97fc0ef          	jal	ra,27b8 <whisperPrintf>

00005926 <.LVL2095>:
                        ee_printf("%d",C[i*N+j]);
    5926:	ffc9a583          	lw	a1,-4(s3)
    592a:	12c90513          	addi	a0,s2,300
    592e:	e8bfc0ef          	jal	ra,27b8 <whisperPrintf>

00005932 <.LVL2096>:
                                ee_printf(",");
    5932:	128a0513          	addi	a0,s4,296
    5936:	e83fc0ef          	jal	ra,27b8 <whisperPrintf>

0000593a <.L1856>:
                        ee_printf("%d",C[i*N+j]);
    593a:	0009a583          	lw	a1,0(s3)
    593e:	12c90513          	addi	a0,s2,300
    5942:	e77fc0ef          	jal	ra,27b8 <whisperPrintf>

00005946 <.LVL2098>:
                for (j=0; j<N; j++) {
    5946:	001c0893          	addi	a7,s8,1

0000594a <.LVL2099>:
                                ee_printf(",");
    594a:	128a0513          	addi	a0,s4,296
                for (j=0; j<N; j++) {
    594e:	f51d9be3          	bne	s11,a7,58a4 <.L1854>
                ee_printf("\n");
    5952:	414b0513          	addi	a0,s6,1044 # 10414 <.LC1>
    5956:	e63fc0ef          	jal	ra,27b8 <whisperPrintf>

0000595a <.LVL2100>:
        for (i=0; i<N; i++) {
    595a:	9d6e                	add	s10,s10,s11
    595c:	001a8f13          	addi	t5,s5,1

00005960 <.LVL2101>:
    5960:	735c0f63          	beq	s8,s5,609e <.L1855>
    5964:	8afa                	mv	s5,t5
    5966:	bdb1                	j	57c2 <.L1852>

00005968 <.L1853>:
}
    5968:	50b6                	lw	ra,108(sp)
    596a:	5426                	lw	s0,104(sp)
        return crc;
    596c:	01049c13          	slli	s8,s1,0x10
}
    5970:	5906                	lw	s2,96(sp)
    5972:	5496                	lw	s1,100(sp)

00005974 <.LVL2103>:
    5974:	49f6                	lw	s3,92(sp)
    5976:	4a66                	lw	s4,88(sp)
    5978:	4ad6                	lw	s5,84(sp)
    597a:	4b46                	lw	s6,80(sp)
    597c:	4bb6                	lw	s7,76(sp)
    597e:	4c96                	lw	s9,68(sp)
    5980:	4d06                	lw	s10,64(sp)
    5982:	5df2                	lw	s11,60(sp)
        return crc;
    5984:	410c5513          	srai	a0,s8,0x10
}
    5988:	4c26                	lw	s8,72(sp)
    598a:	6165                	addi	sp,sp,112

0000598c <.LVL2104>:
    598c:	8082                	ret

0000598e <.L1769>:
                C[i]=0;
    598e:	4b32                	lw	s6,12(sp)
    5990:	002d9a93          	slli	s5,s11,0x2
    5994:	4581                	li	a1,0
    5996:	8656                	mv	a2,s5
    5998:	855a                	mv	a0,s6
    599a:	8962                	mv	s2,s8
    599c:	8c66                	mv	s8,s9
    599e:	4cf2                	lw	s9,28(sp)
    59a0:	548020ef          	jal	ra,7ee8 <memset>

000059a4 <.LVL2106>:
    59a4:	43c2                	lw	t2,16(sp)
    59a6:	ce6a                	sw	s10,28(sp)
    59a8:	4d52                	lw	s10,20(sp)
    59aa:	001d9793          	slli	a5,s11,0x1
    59ae:	015b05b3          	add	a1,s6,s5
    59b2:	00778fb3          	add	t6,a5,t2
    59b6:	4281                	li	t0,0

000059b8 <.L1772>:
                for (j=0; j<N; j++) {
    59b8:	407f80b3          	sub	ra,t6,t2
    59bc:	ffe08513          	addi	a0,ra,-2
    59c0:	00155e93          	srli	t4,a0,0x1
    59c4:	001e8813          	addi	a6,t4,1
    59c8:	00129a13          	slli	s4,t0,0x1
    59cc:	00787b93          	andi	s7,a6,7
    59d0:	014d06b3          	add	a3,s10,s4
                C[i]=0;
    59d4:	861e                	mv	a2,t2
    59d6:	4781                	li	a5,0
    59d8:	0a0b8563          	beqz	s7,5a82 <.L1771>
    59dc:	4485                	li	s1,1
    59de:	089b8763          	beq	s7,s1,5a6c <.L2304>
    59e2:	4f09                	li	t5,2
    59e4:	07eb8b63          	beq	s7,t5,5a5a <.L2305>
    59e8:	4e0d                	li	t3,3
    59ea:	05cb8f63          	beq	s7,t3,5a48 <.L2306>
    59ee:	4891                	li	a7,4
    59f0:	051b8363          	beq	s7,a7,5a36 <.L2307>
    59f4:	4415                	li	s0,5
    59f6:	028b8763          	beq	s7,s0,5a24 <.L2308>
    59fa:	4319                	li	t1,6
    59fc:	006b8b63          	beq	s7,t1,5a12 <.L2309>

00005a00 <.LVL2108>:
                        C[i]+=(MATRES)A[i*N+j] * (MATRES)B[j];
    5a00:	00069a83          	lh	s5,0(a3)
    5a04:	00039b03          	lh	s6,0(t2)
                for (j=0; j<N; j++) {
    5a08:	0689                	addi	a3,a3,2
    5a0a:	00238613          	addi	a2,t2,2
                        C[i]+=(MATRES)A[i*N+j] * (MATRES)B[j];
    5a0e:	036a87b3          	mul	a5,s5,s6

00005a12 <.L2309>:
    5a12:	00069703          	lh	a4,0(a3)
    5a16:	00061083          	lh	ra,0(a2)
                for (j=0; j<N; j++) {
    5a1a:	0689                	addi	a3,a3,2
    5a1c:	0609                	addi	a2,a2,2
                        C[i]+=(MATRES)A[i*N+j] * (MATRES)B[j];
    5a1e:	02170533          	mul	a0,a4,ra
    5a22:	97aa                	add	a5,a5,a0

00005a24 <.L2308>:
    5a24:	00069e83          	lh	t4,0(a3)
    5a28:	00061803          	lh	a6,0(a2)
                for (j=0; j<N; j++) {
    5a2c:	0689                	addi	a3,a3,2
    5a2e:	0609                	addi	a2,a2,2
                        C[i]+=(MATRES)A[i*N+j] * (MATRES)B[j];
    5a30:	030e8a33          	mul	s4,t4,a6
    5a34:	97d2                	add	a5,a5,s4

00005a36 <.L2307>:
    5a36:	00069b83          	lh	s7,0(a3)
    5a3a:	00061483          	lh	s1,0(a2)
                for (j=0; j<N; j++) {
    5a3e:	0689                	addi	a3,a3,2
    5a40:	0609                	addi	a2,a2,2
                        C[i]+=(MATRES)A[i*N+j] * (MATRES)B[j];
    5a42:	029b8f33          	mul	t5,s7,s1
    5a46:	97fa                	add	a5,a5,t5

00005a48 <.L2306>:
    5a48:	00069e03          	lh	t3,0(a3)
    5a4c:	00061883          	lh	a7,0(a2)
                for (j=0; j<N; j++) {
    5a50:	0689                	addi	a3,a3,2
    5a52:	0609                	addi	a2,a2,2
                        C[i]+=(MATRES)A[i*N+j] * (MATRES)B[j];
    5a54:	031e0433          	mul	s0,t3,a7
    5a58:	97a2                	add	a5,a5,s0

00005a5a <.L2305>:
    5a5a:	00069303          	lh	t1,0(a3)
    5a5e:	00061a83          	lh	s5,0(a2)
                for (j=0; j<N; j++) {
    5a62:	0689                	addi	a3,a3,2
    5a64:	0609                	addi	a2,a2,2
                        C[i]+=(MATRES)A[i*N+j] * (MATRES)B[j];
    5a66:	03530b33          	mul	s6,t1,s5
    5a6a:	97da                	add	a5,a5,s6

00005a6c <.L2304>:
    5a6c:	00069703          	lh	a4,0(a3)
    5a70:	00061083          	lh	ra,0(a2)
                for (j=0; j<N; j++) {
    5a74:	0609                	addi	a2,a2,2
    5a76:	0689                	addi	a3,a3,2
                        C[i]+=(MATRES)A[i*N+j] * (MATRES)B[j];
    5a78:	02170533          	mul	a0,a4,ra
    5a7c:	97aa                	add	a5,a5,a0
                for (j=0; j<N; j++) {
    5a7e:	08cf8563          	beq	t6,a2,5b08 <.L2495>

00005a82 <.L1771>:
                        C[i]+=(MATRES)A[i*N+j] * (MATRES)B[j];
    5a82:	00069803          	lh	a6,0(a3)
    5a86:	00061483          	lh	s1,0(a2)
    5a8a:	00261a03          	lh	s4,2(a2)
    5a8e:	00269b83          	lh	s7,2(a3)
    5a92:	02980733          	mul	a4,a6,s1
    5a96:	00469083          	lh	ra,4(a3)
    5a9a:	00461b03          	lh	s6,4(a2)
    5a9e:	00669e83          	lh	t4,6(a3)
    5aa2:	00661a83          	lh	s5,6(a2)
    5aa6:	00869303          	lh	t1,8(a3)
    5aaa:	00861483          	lh	s1,8(a2)
    5aae:	00a69883          	lh	a7,10(a3)
    5ab2:	00a61403          	lh	s0,10(a2)
    5ab6:	00c69803          	lh	a6,12(a3)
    5aba:	034b8bb3          	mul	s7,s7,s4
    5abe:	00c61f03          	lh	t5,12(a2)
    5ac2:	00e69503          	lh	a0,14(a3)
    5ac6:	00e61e03          	lh	t3,14(a2)
    5aca:	97ba                	add	a5,a5,a4
                for (j=0; j<N; j++) {
    5acc:	0641                	addi	a2,a2,16
    5ace:	06c1                	addi	a3,a3,16
                        C[i]+=(MATRES)A[i*N+j] * (MATRES)B[j];
    5ad0:	03608a33          	mul	s4,ra,s6
    5ad4:	017780b3          	add	ra,a5,s7
    5ad8:	035e8b33          	mul	s6,t4,s5
    5adc:	01408eb3          	add	t4,ra,s4
    5ae0:	02930ab3          	mul	s5,t1,s1
    5ae4:	016e8333          	add	t1,t4,s6
    5ae8:	02888733          	mul	a4,a7,s0
    5aec:	015304b3          	add	s1,t1,s5
    5af0:	03e808b3          	mul	a7,a6,t5
    5af4:	00e48433          	add	s0,s1,a4
    5af8:	03c50833          	mul	a6,a0,t3
    5afc:	01140f33          	add	t5,s0,a7
    5b00:	010f07b3          	add	a5,t5,a6
                for (j=0; j<N; j++) {
    5b04:	f6cf9fe3          	bne	t6,a2,5a82 <.L1771>

00005b08 <.L2495>:
    5b08:	00f92023          	sw	a5,0(s2)
        for (i=0; i<N; i++) {
    5b0c:	0911                	addi	s2,s2,4
    5b0e:	92ce                	add	t0,t0,s3
    5b10:	eb2594e3          	bne	a1,s2,59b8 <.L1772>
    5b14:	4d72                	lw	s10,28(sp)
    5b16:	413009b3          	neg	s3,s3
    5b1a:	00299513          	slli	a0,s3,0x2

00005b1e <.LBB1035>:
                        if (tmp>clipval) {
    5b1e:	4781                	li	a5,0
    5b20:	4e01                	li	t3,0
    5b22:	4801                	li	a6,0
    5b24:	4601                	li	a2,0

00005b26 <.LBB1036>:
        for (i=0; i<N; i++) {
    5b26:	00399713          	slli	a4,s3,0x3

00005b2a <.L1773>:
                for (j=0; j<N; j++) {
    5b2a:	00a583b3          	add	t2,a1,a0
    5b2e:	40758fb3          	sub	t6,a1,t2
    5b32:	ffcf8693          	addi	a3,t6,-4
    5b36:	0026db93          	srli	s7,a3,0x2
    5b3a:	001b8a13          	addi	s4,s7,1
    5b3e:	003a7093          	andi	ra,s4,3
        for (i=0; i<N; i++) {
    5b42:	889e                	mv	a7,t2
    5b44:	12008163          	beqz	ra,5c66 <.L1776>
    5b48:	4b05                	li	s6,1
    5b4a:	05608963          	beq	ra,s6,5b9c <.L2310>
    5b4e:	4e89                	li	t4,2
    5b50:	03d08463          	beq	ra,t4,5b78 <.L2311>

00005b54 <.LVL2110>:
                        cur=C[i*N+j];
    5b54:	8af2                	mv	s5,t3

00005b56 <.LVL2111>:
    5b56:	0003ae03          	lw	t3,0(t2)

00005b5a <.LVL2112>:
                                ret+=10;
    5b5a:	07c2                	slli	a5,a5,0x10
    5b5c:	0107d313          	srli	t1,a5,0x10
                        tmp+=cur;
    5b60:	9872                	add	a6,a6,t3

00005b62 <.LVL2113>:
                        if (tmp>clipval) {
    5b62:	1d0d5563          	bge	s10,a6,5d2c <.L2483>
                                ret+=10;
    5b66:	00a30813          	addi	a6,t1,10

00005b6a <.LVL2114>:
    5b6a:	01081f13          	slli	t5,a6,0x10
    5b6e:	410f5793          	srai	a5,t5,0x10

00005b72 <.LVL2115>:
                                tmp=0;
    5b72:	4801                	li	a6,0

00005b74 <.L2484>:
                for (j=0; j<N; j++) {
    5b74:	00438893          	addi	a7,t2,4

00005b78 <.L2311>:
                        cur=C[i*N+j];
    5b78:	8972                	mv	s2,t3

00005b7a <.LVL2118>:
    5b7a:	0008ae03          	lw	t3,0(a7)

00005b7e <.LVL2119>:
                                ret+=10;
    5b7e:	01079293          	slli	t0,a5,0x10
    5b82:	0102d993          	srli	s3,t0,0x10
                        tmp+=cur;
    5b86:	9872                	add	a6,a6,t3

00005b88 <.LVL2120>:
                        if (tmp>clipval) {
    5b88:	190d5963          	bge	s10,a6,5d1a <.L2485>
                                ret+=10;
    5b8c:	00a98a13          	addi	s4,s3,10

00005b90 <.LVL2121>:
    5b90:	010a1093          	slli	ra,s4,0x10
    5b94:	4100d793          	srai	a5,ra,0x10

00005b98 <.LVL2122>:
                                tmp=0;
    5b98:	4801                	li	a6,0

00005b9a <.L2486>:
                for (j=0; j<N; j++) {
    5b9a:	0891                	addi	a7,a7,4

00005b9c <.L2310>:
                        cur=C[i*N+j];
    5b9c:	8b72                	mv	s6,t3

00005b9e <.LVL2125>:
    5b9e:	0008ae03          	lw	t3,0(a7)

00005ba2 <.LVL2126>:
                                ret+=10;
    5ba2:	01079e93          	slli	t4,a5,0x10
    5ba6:	010eda93          	srli	s5,t4,0x10
                        tmp+=cur;
    5baa:	9872                	add	a6,a6,t3

00005bac <.LVL2127>:
                        if (tmp>clipval) {
    5bac:	150d5a63          	bge	s10,a6,5d00 <.L2487>
                                ret+=10;
    5bb0:	00aa8813          	addi	a6,s5,10
    5bb4:	01081f13          	slli	t5,a6,0x10
    5bb8:	01081913          	slli	s2,a6,0x10
    5bbc:	010f5293          	srli	t0,t5,0x10

00005bc0 <.LVL2128>:
    5bc0:	41095793          	srai	a5,s2,0x10

00005bc4 <.LVL2129>:
                                tmp=0;
    5bc4:	4801                	li	a6,0

00005bc6 <.L2488>:
                for (j=0; j<N; j++) {
    5bc6:	0891                	addi	a7,a7,4

00005bc8 <.LVL2131>:
    5bc8:	09159f63          	bne	a1,a7,5c66 <.L1776>

00005bcc <.L2489>:
        for (i=0; i<N; i++) {
    5bcc:	00160a13          	addi	s4,a2,1

00005bd0 <.LVL2132>:
    5bd0:	40e385b3          	sub	a1,t2,a4
    5bd4:	00cc1463          	bne	s8,a2,5bdc <.LVL2132+0xc>
    5bd8:	95aff06f          	j	4d32 <.L2524>
    5bdc:	8652                	mv	a2,s4
    5bde:	b7b1                	j	5b2a <.L1773>

00005be0 <.L2526>:
                                ret += (cur>prev) ? 1 : 0;
    5be0:	005e2e33          	slt	t3,t3,t0
                        cur=C[i*N+j];
    5be4:	0048aa83          	lw	s5,4(a7)
                                ret += (cur>prev) ? 1 : 0;
    5be8:	01cf86b3          	add	a3,t6,t3
    5bec:	01069b93          	slli	s7,a3,0x10
    5bf0:	410bdb13          	srai	s6,s7,0x10
                                ret+=10;
    5bf4:	010b1793          	slli	a5,s6,0x10
                        tmp+=cur;
    5bf8:	015e8433          	add	s0,t4,s5
                for (j=0; j<N; j++) {
    5bfc:	0891                	addi	a7,a7,4
                                ret+=10;
    5bfe:	0107d493          	srli	s1,a5,0x10
                        if (tmp>clipval) {
    5c02:	088d5e63          	bge	s10,s0,5c9e <.L2525>

00005c06 <.L2164>:
                        cur=C[i*N+j];
    5c06:	0048af83          	lw	t6,4(a7)
                                ret+=10;
    5c0a:	00a48293          	addi	t0,s1,10
    5c0e:	01029993          	slli	s3,t0,0x10
    5c12:	4109d913          	srai	s2,s3,0x10

00005c16 <.LVL2134>:
                                tmp=0;
    5c16:	4401                	li	s0,0

00005c18 <.LVL2135>:
                                ret+=10;
    5c18:	01091e13          	slli	t3,s2,0x10
                        tmp+=cur;
    5c1c:	01f40bb3          	add	s7,s0,t6
                                ret+=10;
    5c20:	010e5693          	srli	a3,t3,0x10
                        if (tmp>clipval) {
    5c24:	097d5f63          	bge	s10,s7,5cc2 <.L2491>

00005c28 <.L2527>:
                        cur=C[i*N+j];
    5c28:	0088ae03          	lw	t3,8(a7)
                                ret+=10;
    5c2c:	00a68a93          	addi	s5,a3,10
    5c30:	010a9793          	slli	a5,s5,0x10
    5c34:	4107de93          	srai	t4,a5,0x10

00005c38 <.LVL2136>:
                                tmp=0;
    5c38:	4b81                	li	s7,0

00005c3a <.LVL2137>:
                                ret+=10;
    5c3a:	010e9493          	slli	s1,t4,0x10
                        tmp+=cur;
    5c3e:	01cb8833          	add	a6,s7,t3
                                ret+=10;
    5c42:	0104d413          	srli	s0,s1,0x10
                        if (tmp>clipval) {
    5c46:	0b0d5063          	bge	s10,a6,5ce6 <.L2493>

00005c4a <.L2528>:
                                ret+=10;
    5c4a:	00a40f93          	addi	t6,s0,10
    5c4e:	010f9693          	slli	a3,t6,0x10
    5c52:	010f9b93          	slli	s7,t6,0x10
    5c56:	0106d293          	srli	t0,a3,0x10
    5c5a:	410bd793          	srai	a5,s7,0x10

00005c5e <.LVL2139>:
                                tmp=0;
    5c5e:	4801                	li	a6,0

00005c60 <.L2494>:
                for (j=0; j<N; j++) {
    5c60:	08b1                	addi	a7,a7,12
    5c62:	f71585e3          	beq	a1,a7,5bcc <.L2489>

00005c66 <.L1776>:
                        cur=C[i*N+j];
    5c66:	0008a283          	lw	t0,0(a7)
                                ret+=10;
    5c6a:	01079993          	slli	s3,a5,0x10
    5c6e:	0109df93          	srli	t6,s3,0x10
                        tmp+=cur;
    5c72:	00580eb3          	add	t4,a6,t0
                        if (tmp>clipval) {
    5c76:	f7dd55e3          	bge	s10,t4,5be0 <.L2526>
                        cur=C[i*N+j];
    5c7a:	0048aa83          	lw	s5,4(a7)
                                ret+=10;
    5c7e:	00af8a13          	addi	s4,t6,10
    5c82:	010a1093          	slli	ra,s4,0x10
    5c86:	4100db13          	srai	s6,ra,0x10

00005c8a <.LVL2142>:
                                tmp=0;
    5c8a:	4e81                	li	t4,0

00005c8c <.LVL2143>:
                                ret+=10;
    5c8c:	010b1793          	slli	a5,s6,0x10
                        tmp+=cur;
    5c90:	015e8433          	add	s0,t4,s5
                for (j=0; j<N; j++) {
    5c94:	0891                	addi	a7,a7,4
                                ret+=10;
    5c96:	0107d493          	srli	s1,a5,0x10
                        if (tmp>clipval) {
    5c9a:	f68d46e3          	blt	s10,s0,5c06 <.L2164>

00005c9e <.L2525>:
                                ret += (cur>prev) ? 1 : 0;
    5c9e:	0152a333          	slt	t1,t0,s5
                        cur=C[i*N+j];
    5ca2:	0048af83          	lw	t6,4(a7)
                                ret += (cur>prev) ? 1 : 0;
    5ca6:	00648833          	add	a6,s1,t1
    5caa:	01081f13          	slli	t5,a6,0x10
    5cae:	410f5913          	srai	s2,t5,0x10
                                ret+=10;
    5cb2:	01091e13          	slli	t3,s2,0x10
                        tmp+=cur;
    5cb6:	01f40bb3          	add	s7,s0,t6
                                ret+=10;
    5cba:	010e5693          	srli	a3,t3,0x10
                        if (tmp>clipval) {
    5cbe:	f77d45e3          	blt	s10,s7,5c28 <.L2527>

00005cc2 <.L2491>:
                                ret += (cur>prev) ? 1 : 0;
    5cc2:	01faaa33          	slt	s4,s5,t6
                        cur=C[i*N+j];
    5cc6:	0088ae03          	lw	t3,8(a7)
                                ret += (cur>prev) ? 1 : 0;
    5cca:	014680b3          	add	ra,a3,s4
    5cce:	01009b13          	slli	s6,ra,0x10
    5cd2:	410b5e93          	srai	t4,s6,0x10

00005cd6 <.LVL2144>:
                                ret+=10;
    5cd6:	010e9493          	slli	s1,t4,0x10
                        tmp+=cur;
    5cda:	01cb8833          	add	a6,s7,t3
                                ret+=10;
    5cde:	0104d413          	srli	s0,s1,0x10
                        if (tmp>clipval) {
    5ce2:	f70d44e3          	blt	s10,a6,5c4a <.L2528>

00005ce6 <.L2493>:
                                ret += (cur>prev) ? 1 : 0;
    5ce6:	01cfa333          	slt	t1,t6,t3
    5cea:	00640f33          	add	t5,s0,t1
    5cee:	010f1913          	slli	s2,t5,0x10
    5cf2:	010f1993          	slli	s3,t5,0x10
    5cf6:	01095293          	srli	t0,s2,0x10
    5cfa:	4109d793          	srai	a5,s3,0x10
    5cfe:	b78d                	j	5c60 <.L2494>

00005d00 <.L2487>:
    5d00:	01cb27b3          	slt	a5,s6,t3
    5d04:	00fa84b3          	add	s1,s5,a5
    5d08:	01049313          	slli	t1,s1,0x10
    5d0c:	01049413          	slli	s0,s1,0x10
    5d10:	01035293          	srli	t0,t1,0x10

00005d14 <.LVL2146>:
    5d14:	41045793          	srai	a5,s0,0x10
    5d18:	b57d                	j	5bc6 <.L2488>

00005d1a <.L2485>:
    5d1a:	01c92fb3          	slt	t6,s2,t3
    5d1e:	01f986b3          	add	a3,s3,t6

00005d22 <.LVL2148>:
    5d22:	01069b93          	slli	s7,a3,0x10
    5d26:	410bd793          	srai	a5,s7,0x10
    5d2a:	bd85                	j	5b9a <.L2486>

00005d2c <.L2483>:
    5d2c:	01caa4b3          	slt	s1,s5,t3
    5d30:	009308b3          	add	a7,t1,s1

00005d34 <.LVL2150>:
    5d34:	01089413          	slli	s0,a7,0x10
    5d38:	41045793          	srai	a5,s0,0x10
    5d3c:	bd25                	j	5b74 <.L2484>

00005d3e <.L1797>:
    5d3e:	48d2                	lw	a7,20(sp)
    5d40:	001d9413          	slli	s0,s11,0x1

00005d44 <.LBB1037>:
                        C[i*N+j]=0;
    5d44:	002d9a13          	slli	s4,s11,0x2
    5d48:	89c6                	mv	s3,a7
    5d4a:	00888933          	add	s2,a7,s0
    5d4e:	d252                	sw	s4,36(sp)
    5d50:	4a81                	li	s5,0
    5d52:	4b01                	li	s6,0
    5d54:	d46a                	sw	s10,40(sp)
    5d56:	d66e                	sw	s11,44(sp)

00005d58 <.L1801>:
                for (j=0; j<N; j++) {
    5d58:	4d32                	lw	s10,12(sp)
    5d5a:	002a9d93          	slli	s11,s5,0x2
                        C[i*N+j]=0;
    5d5e:	8652                	mv	a2,s4
    5d60:	01bd0533          	add	a0,s10,s11
    5d64:	4581                	li	a1,0
    5d66:	182020ef          	jal	ra,7ee8 <memset>

00005d6a <.LVL2153>:
    5d6a:	4ec2                	lw	t4,16(sp)
    5d6c:	8f2a                	mv	t5,a0
                for (j=0; j<N; j++) {
    5d6e:	4f81                	li	t6,0

00005d70 <.L1800>:
                        for(k=0;k<N;k++)
    5d70:	413907b3          	sub	a5,s2,s3
    5d74:	ffe78713          	addi	a4,a5,-2
    5d78:	00175593          	srli	a1,a4,0x1
    5d7c:	00158093          	addi	ra,a1,1
    5d80:	0070f393          	andi	t2,ra,7
    5d84:	8676                	mv	a2,t4
    5d86:	86ce                	mv	a3,s3
    5d88:	4781                	li	a5,0
    5d8a:	0a038663          	beqz	t2,5e36 <.L1799>
    5d8e:	4b85                	li	s7,1
    5d90:	09738863          	beq	t2,s7,5e20 <.L2312>
    5d94:	4e09                	li	t3,2
    5d96:	07c38c63          	beq	t2,t3,5e0e <.L2313>
    5d9a:	4c0d                	li	s8,3
    5d9c:	07838063          	beq	t2,s8,5dfc <.L2314>
    5da0:	4811                	li	a6,4
    5da2:	05038463          	beq	t2,a6,5dea <.L2315>
    5da6:	4315                	li	t1,5
    5da8:	02638863          	beq	t2,t1,5dd8 <.L2316>
    5dac:	4299                	li	t0,6
    5dae:	00538c63          	beq	t2,t0,5dc6 <.L2317>

00005db2 <.LVL2155>:
                                C[i*N+j]+=(MATRES)A[i*N+k] * (MATRES)B[k*N+j];
    5db2:	00099883          	lh	a7,0(s3)
    5db6:	000e9d83          	lh	s11,0(t4)
                        for(k=0;k<N;k++)
    5dba:	00298693          	addi	a3,s3,2
    5dbe:	008e8633          	add	a2,t4,s0
                                C[i*N+j]+=(MATRES)A[i*N+k] * (MATRES)B[k*N+j];
    5dc2:	03b887b3          	mul	a5,a7,s11

00005dc6 <.L2317>:
    5dc6:	00069d03          	lh	s10,0(a3)
    5dca:	00061503          	lh	a0,0(a2)
                        for(k=0;k<N;k++)
    5dce:	0689                	addi	a3,a3,2
    5dd0:	9622                	add	a2,a2,s0
                                C[i*N+j]+=(MATRES)A[i*N+k] * (MATRES)B[k*N+j];
    5dd2:	02ad0733          	mul	a4,s10,a0
    5dd6:	97ba                	add	a5,a5,a4

00005dd8 <.L2316>:
    5dd8:	00069083          	lh	ra,0(a3)
    5ddc:	00061583          	lh	a1,0(a2)
                        for(k=0;k<N;k++)
    5de0:	0689                	addi	a3,a3,2
    5de2:	9622                	add	a2,a2,s0
                                C[i*N+j]+=(MATRES)A[i*N+k] * (MATRES)B[k*N+j];
    5de4:	02b083b3          	mul	t2,ra,a1
    5de8:	979e                	add	a5,a5,t2

00005dea <.L2315>:
    5dea:	00069b83          	lh	s7,0(a3)
    5dee:	00061e03          	lh	t3,0(a2)
                        for(k=0;k<N;k++)
    5df2:	0689                	addi	a3,a3,2
    5df4:	9622                	add	a2,a2,s0
                                C[i*N+j]+=(MATRES)A[i*N+k] * (MATRES)B[k*N+j];
    5df6:	03cb8c33          	mul	s8,s7,t3
    5dfa:	97e2                	add	a5,a5,s8

00005dfc <.L2314>:
    5dfc:	00069803          	lh	a6,0(a3)
    5e00:	00061303          	lh	t1,0(a2)
                        for(k=0;k<N;k++)
    5e04:	0689                	addi	a3,a3,2
    5e06:	9622                	add	a2,a2,s0
                                C[i*N+j]+=(MATRES)A[i*N+k] * (MATRES)B[k*N+j];
    5e08:	026802b3          	mul	t0,a6,t1
    5e0c:	9796                	add	a5,a5,t0

00005e0e <.L2313>:
    5e0e:	00069883          	lh	a7,0(a3)
    5e12:	00061d83          	lh	s11,0(a2)
                        for(k=0;k<N;k++)
    5e16:	0689                	addi	a3,a3,2
    5e18:	9622                	add	a2,a2,s0
                                C[i*N+j]+=(MATRES)A[i*N+k] * (MATRES)B[k*N+j];
    5e1a:	03b88d33          	mul	s10,a7,s11
    5e1e:	97ea                	add	a5,a5,s10

00005e20 <.L2312>:
    5e20:	00069503          	lh	a0,0(a3)
    5e24:	00061703          	lh	a4,0(a2)
                        for(k=0;k<N;k++)
    5e28:	0689                	addi	a3,a3,2
    5e2a:	9622                	add	a2,a2,s0
                                C[i*N+j]+=(MATRES)A[i*N+k] * (MATRES)B[k*N+j];
    5e2c:	02e500b3          	mul	ra,a0,a4
    5e30:	9786                	add	a5,a5,ra
                        for(k=0;k<N;k++)
    5e32:	0b268363          	beq	a3,s2,5ed8 <.L2482>

00005e36 <.L1799>:
    5e36:	008603b3          	add	t2,a2,s0
                                C[i*N+j]+=(MATRES)A[i*N+k] * (MATRES)B[k*N+j];
    5e3a:	00069b83          	lh	s7,0(a3)
    5e3e:	00061e03          	lh	t3,0(a2)
    5e42:	00039303          	lh	t1,0(t2)
    5e46:	00269d03          	lh	s10,2(a3)
    5e4a:	03cb8733          	mul	a4,s7,t3
                        for(k=0;k<N;k++)
    5e4e:	008385b3          	add	a1,t2,s0
                                C[i*N+j]+=(MATRES)A[i*N+k] * (MATRES)B[k*N+j];
    5e52:	00059d83          	lh	s11,0(a1)
                        for(k=0;k<N;k++)
    5e56:	00858c33          	add	s8,a1,s0
                                C[i*N+j]+=(MATRES)A[i*N+k] * (MATRES)B[k*N+j];
    5e5a:	00469083          	lh	ra,4(a3)
                        for(k=0;k<N;k++)
    5e5e:	008c0833          	add	a6,s8,s0
                                C[i*N+j]+=(MATRES)A[i*N+k] * (MATRES)B[k*N+j];
    5e62:	00669283          	lh	t0,6(a3)
    5e66:	000c1c03          	lh	s8,0(s8)
                        for(k=0;k<N;k++)
    5e6a:	00880533          	add	a0,a6,s0
                                C[i*N+j]+=(MATRES)A[i*N+k] * (MATRES)B[k*N+j];
    5e6e:	00869883          	lh	a7,8(a3)
    5e72:	026d0d33          	mul	s10,s10,t1
    5e76:	00081b83          	lh	s7,0(a6)
    5e7a:	00051383          	lh	t2,0(a0)
    5e7e:	00a69803          	lh	a6,10(a3)
                        for(k=0;k<N;k++)
    5e82:	00850e33          	add	t3,a0,s0
    5e86:	008e0633          	add	a2,t3,s0
                                C[i*N+j]+=(MATRES)A[i*N+k] * (MATRES)B[k*N+j];
    5e8a:	00c69503          	lh	a0,12(a3)
    5e8e:	000e1e03          	lh	t3,0(t3)
    5e92:	00e69583          	lh	a1,14(a3)
    5e96:	00061303          	lh	t1,0(a2)
    5e9a:	03b080b3          	mul	ra,ra,s11
    5e9e:	97ba                	add	a5,a5,a4
    5ea0:	01a78db3          	add	s11,a5,s10
                        for(k=0;k<N;k++)
    5ea4:	06c1                	addi	a3,a3,16
    5ea6:	9622                	add	a2,a2,s0
                                C[i*N+j]+=(MATRES)A[i*N+k] * (MATRES)B[k*N+j];
    5ea8:	038282b3          	mul	t0,t0,s8
    5eac:	001d8733          	add	a4,s11,ra
    5eb0:	03788c33          	mul	s8,a7,s7
    5eb4:	005708b3          	add	a7,a4,t0
    5eb8:	02780bb3          	mul	s7,a6,t2
    5ebc:	01888833          	add	a6,a7,s8
    5ec0:	03c503b3          	mul	t2,a0,t3
    5ec4:	01780533          	add	a0,a6,s7
    5ec8:	02658d33          	mul	s10,a1,t1
    5ecc:	00750e33          	add	t3,a0,t2
    5ed0:	01ae07b3          	add	a5,t3,s10
                        for(k=0;k<N;k++)
    5ed4:	f72691e3          	bne	a3,s2,5e36 <.L1799>

00005ed8 <.L2482>:
    5ed8:	00ff2023          	sw	a5,0(t5)
                for (j=0; j<N; j++) {
    5edc:	001f8613          	addi	a2,t6,1

00005ee0 <.LVL2156>:
    5ee0:	0f11                	addi	t5,t5,4
    5ee2:	0e89                	addi	t4,t4,2
    5ee4:	01f48463          	beq	s1,t6,5eec <.L2529>
    5ee8:	8fb2                	mv	t6,a2
    5eea:	b559                	j	5d70 <.L1800>

00005eec <.L2529>:
        for (i=0; i<N; i++) {
    5eec:	001b0f13          	addi	t5,s6,1

00005ef0 <.LVL2157>:
    5ef0:	99a2                	add	s3,s3,s0
    5ef2:	9ae6                	add	s5,s5,s9
    5ef4:	00868933          	add	s2,a3,s0
    5ef8:	2f648063          	beq	s1,s6,61d8 <.L2530>
    5efc:	8b7a                	mv	s6,t5
    5efe:	bda9                	j	5d58 <.L1801>

00005f00 <.L1826>:
    5f00:	4552                	lw	a0,20(sp)
    5f02:	4cb2                	lw	s9,12(sp)
    5f04:	4442                	lw	s0,16(sp)
    5f06:	001d9893          	slli	a7,s11,0x1

00005f0a <.LBB1039>:
                        C[i*N+j]=0;
    5f0a:	4b01                	li	s6,0
    5f0c:	ce62                	sw	s8,28(sp)
    5f0e:	01150a33          	add	s4,a0,a7
    5f12:	002d9493          	slli	s1,s11,0x2
    5f16:	8c5a                	mv	s8,s6
    5f18:	8aaa                	mv	s5,a0
    5f1a:	8946                	mv	s2,a7

00005f1c <.L1830>:
                for (j=0; j<N; j++) {
    5f1c:	002b1e93          	slli	t4,s6,0x2
    5f20:	01dc8533          	add	a0,s9,t4
                        C[i*N+j]=0;
    5f24:	8626                	mv	a2,s1
    5f26:	4581                	li	a1,0
    5f28:	7c1010ef          	jal	ra,7ee8 <memset>

00005f2c <.LVL2160>:
    5f2c:	882a                	mv	a6,a0
    5f2e:	8e22                	mv	t3,s0
                for (j=0; j<N; j++) {
    5f30:	4381                	li	t2,0

00005f32 <.L1829>:
                        for(k=0;k<N;k++)
    5f32:	415a0733          	sub	a4,s4,s5
    5f36:	ffe70613          	addi	a2,a4,-2
    5f3a:	00165f93          	srli	t6,a2,0x1
    5f3e:	001f8313          	addi	t1,t6,1
    5f42:	00337093          	andi	ra,t1,3
    5f46:	85f2                	mv	a1,t3
    5f48:	8556                	mv	a0,s5
    5f4a:	4781                	li	a5,0
    5f4c:	08008463          	beqz	ra,5fd4 <.L1828>
    5f50:	4685                	li	a3,1
    5f52:	04d08c63          	beq	ra,a3,5faa <.L2320>
    5f56:	4289                	li	t0,2
    5f58:	02508663          	beq	ra,t0,5f84 <.L2321>

00005f5c <.LBB1041>:
                                MATRES tmp=(MATRES)A[i*N+k] * (MATRES)B[k*N+j];
    5f5c:	000e1783          	lh	a5,0(t3)
    5f60:	000a9f03          	lh	t5,0(s5)

00005f64 <.LBE1041>:
                        for(k=0;k<N;k++)
    5f64:	002a8513          	addi	a0,s5,2
    5f68:	012e05b3          	add	a1,t3,s2

00005f6c <.LBB1042>:
                                MATRES tmp=(MATRES)A[i*N+k] * (MATRES)B[k*N+j];
    5f6c:	02ff08b3          	mul	a7,t5,a5
                                C[i*N+j]+=bit_extract(tmp,2,4)*bit_extract(tmp,5,7);
    5f70:	4028de93          	srai	t4,a7,0x2
    5f74:	4058d713          	srai	a4,a7,0x5
    5f78:	00fef613          	andi	a2,t4,15
    5f7c:	07f77f93          	andi	t6,a4,127
    5f80:	03f607b3          	mul	a5,a2,t6

00005f84 <.L2321>:
                                MATRES tmp=(MATRES)A[i*N+k] * (MATRES)B[k*N+j];
    5f84:	00051303          	lh	t1,0(a0)
    5f88:	00059083          	lh	ra,0(a1)

00005f8c <.LBE1043>:
                        for(k=0;k<N;k++)
    5f8c:	0509                	addi	a0,a0,2
    5f8e:	95ca                	add	a1,a1,s2

00005f90 <.LBB1044>:
                                MATRES tmp=(MATRES)A[i*N+k] * (MATRES)B[k*N+j];
    5f90:	021302b3          	mul	t0,t1,ra
                                C[i*N+j]+=bit_extract(tmp,2,4)*bit_extract(tmp,5,7);
    5f94:	4022d693          	srai	a3,t0,0x2
    5f98:	4052df13          	srai	t5,t0,0x5
    5f9c:	00f6f893          	andi	a7,a3,15
    5fa0:	07ff7e93          	andi	t4,t5,127
    5fa4:	03d88733          	mul	a4,a7,t4
    5fa8:	97ba                	add	a5,a5,a4

00005faa <.L2320>:
                                MATRES tmp=(MATRES)A[i*N+k] * (MATRES)B[k*N+j];
    5faa:	00051603          	lh	a2,0(a0)
    5fae:	00059f83          	lh	t6,0(a1)

00005fb2 <.LBE1045>:
                        for(k=0;k<N;k++)
    5fb2:	0509                	addi	a0,a0,2
    5fb4:	95ca                	add	a1,a1,s2

00005fb6 <.LBB1046>:
                                MATRES tmp=(MATRES)A[i*N+k] * (MATRES)B[k*N+j];
    5fb6:	03f60333          	mul	t1,a2,t6
                                C[i*N+j]+=bit_extract(tmp,2,4)*bit_extract(tmp,5,7);
    5fba:	40235093          	srai	ra,t1,0x2
    5fbe:	40535293          	srai	t0,t1,0x5
    5fc2:	00f0f693          	andi	a3,ra,15
    5fc6:	07f2ff13          	andi	t5,t0,127
    5fca:	03e688b3          	mul	a7,a3,t5
    5fce:	97c6                	add	a5,a5,a7

00005fd0 <.LBE1046>:
                        for(k=0;k<N;k++)
    5fd0:	0b450363          	beq	a0,s4,6076 <.L2469>

00005fd4 <.L1828>:
    5fd4:	01258eb3          	add	t4,a1,s2

00005fd8 <.LBB1048>:
                                MATRES tmp=(MATRES)A[i*N+k] * (MATRES)B[k*N+j];
    5fd8:	00051603          	lh	a2,0(a0)
    5fdc:	00059303          	lh	t1,0(a1)

00005fe0 <.LBE1048>:
                        for(k=0;k<N;k++)
    5fe0:	012e8733          	add	a4,t4,s2

00005fe4 <.LBB1049>:
                                MATRES tmp=(MATRES)A[i*N+k] * (MATRES)B[k*N+j];
    5fe4:	00251083          	lh	ra,2(a0)
    5fe8:	000e9f83          	lh	t6,0(t4)
    5fec:	00451f03          	lh	t5,4(a0)

00005ff0 <.LBE1049>:
                        for(k=0;k<N;k++)
    5ff0:	012705b3          	add	a1,a4,s2

00005ff4 <.LBB1050>:
                                MATRES tmp=(MATRES)A[i*N+k] * (MATRES)B[k*N+j];
    5ff4:	00071883          	lh	a7,0(a4)
    5ff8:	02660eb3          	mul	t4,a2,t1

00005ffc <.LVL2164>:
    5ffc:	00651283          	lh	t0,6(a0)
    6000:	00059603          	lh	a2,0(a1)

00006004 <.LBE1050>:
                        for(k=0;k<N;k++)
    6004:	0521                	addi	a0,a0,8
    6006:	95ca                	add	a1,a1,s2

00006008 <.LBB1051>:
                                MATRES tmp=(MATRES)A[i*N+k] * (MATRES)B[k*N+j];
    6008:	03f086b3          	mul	a3,ra,t6
                                C[i*N+j]+=bit_extract(tmp,2,4)*bit_extract(tmp,5,7);
    600c:	402ed313          	srai	t1,t4,0x2
    6010:	405ed093          	srai	ra,t4,0x5
    6014:	00f37f93          	andi	t6,t1,15
    6018:	07f0f713          	andi	a4,ra,127
                                MATRES tmp=(MATRES)A[i*N+k] * (MATRES)B[k*N+j];
    601c:	031f08b3          	mul	a7,t5,a7
                                C[i*N+j]+=bit_extract(tmp,2,4)*bit_extract(tmp,5,7);
    6020:	4056de93          	srai	t4,a3,0x5

00006024 <.LVL2165>:
    6024:	4026df13          	srai	t5,a3,0x2
    6028:	00ff7093          	andi	ra,t5,15
    602c:	07fef693          	andi	a3,t4,127
                                MATRES tmp=(MATRES)A[i*N+k] * (MATRES)B[k*N+j];
    6030:	02c282b3          	mul	t0,t0,a2
                                C[i*N+j]+=bit_extract(tmp,2,4)*bit_extract(tmp,5,7);
    6034:	4028d613          	srai	a2,a7,0x2
    6038:	4058d893          	srai	a7,a7,0x5
    603c:	00f67313          	andi	t1,a2,15
    6040:	07f8ff13          	andi	t5,a7,127
    6044:	02ef8733          	mul	a4,t6,a4
    6048:	4052de93          	srai	t4,t0,0x5
    604c:	4022df93          	srai	t6,t0,0x2
    6050:	00fff293          	andi	t0,t6,15
    6054:	07fef613          	andi	a2,t4,127
    6058:	02d080b3          	mul	ra,ra,a3
    605c:	97ba                	add	a5,a5,a4

0000605e <.LBB1052>:
    605e:	03e306b3          	mul	a3,t1,t5
    6062:	001788b3          	add	a7,a5,ra

00006066 <.LBB1053>:
    6066:	02c28333          	mul	t1,t0,a2
    606a:	00d88f33          	add	t5,a7,a3

0000606e <.LBB1054>:
    606e:	006f07b3          	add	a5,t5,t1

00006072 <.LBE1054>:
                        for(k=0;k<N;k++)
    6072:	f74511e3          	bne	a0,s4,5fd4 <.L1828>

00006076 <.L2469>:
    6076:	00f82023          	sw	a5,0(a6)
                for (j=0; j<N; j++) {
    607a:	00138593          	addi	a1,t2,1

0000607e <.LVL2166>:
    607e:	0811                	addi	a6,a6,4
    6080:	0e09                	addi	t3,t3,2
    6082:	007b8463          	beq	s7,t2,608a <.L2531>
    6086:	83ae                	mv	t2,a1
    6088:	b56d                	j	5f32 <.L1829>

0000608a <.L2531>:
        for (i=0; i<N; i++) {
    608a:	001c0813          	addi	a6,s8,1

0000608e <.LVL2167>:
    608e:	9aca                	add	s5,s5,s2
    6090:	9b4e                	add	s6,s6,s3
    6092:	01250a33          	add	s4,a0,s2
    6096:	378b8c63          	beq	s7,s8,640e <.L2532>
    609a:	8c42                	mv	s8,a6
    609c:	b541                	j	5f1c <.L1830>

0000609e <.L1855>:
        matrix_add_const(N,A,-val); /* return matrix to initial value */
    609e:	43d2                	lw	t2,20(sp)
    60a0:	02015403          	lhu	s0,32(sp)

000060a4 <.LBB1055>:
        for (i=0; i<N; i++) {
    60a4:	41b00e33          	neg	t3,s11
    60a8:	0d86                	slli	s11,s11,0x1
    60aa:	01b38633          	add	a2,t2,s11
    60ae:	001e1d13          	slli	s10,t3,0x1

000060b2 <.LBE1055>:
        matrix_add_const(N,A,-val); /* return matrix to initial value */
    60b2:	4a81                	li	s5,0

000060b4 <.LBB1059>:
        for (i=0; i<N; i++) {
    60b4:	002e1f93          	slli	t6,t3,0x2

000060b8 <.L1858>:
                for (j=0; j<N; j++) {
    60b8:	01a605b3          	add	a1,a2,s10
    60bc:	40b60733          	sub	a4,a2,a1
    60c0:	ffe70813          	addi	a6,a4,-2
    60c4:	00185913          	srli	s2,a6,0x1
    60c8:	00190b13          	addi	s6,s2,1
    60cc:	007b7a13          	andi	s4,s6,7

000060d0 <.LBB1060>:
    60d0:	87ae                	mv	a5,a1
    60d2:	080a0863          	beqz	s4,6162 <.L1857>
    60d6:	4b85                	li	s7,1
    60d8:	077a0c63          	beq	s4,s7,6150 <.L2324>
    60dc:	4689                	li	a3,2
    60de:	06da0263          	beq	s4,a3,6142 <.L2325>
    60e2:	4e8d                	li	t4,3
    60e4:	05da0863          	beq	s4,t4,6134 <.L2326>
    60e8:	4c91                	li	s9,4
    60ea:	039a0e63          	beq	s4,s9,6126 <.L2327>
    60ee:	4295                	li	t0,5
    60f0:	025a0463          	beq	s4,t0,6118 <.L2328>
    60f4:	4099                	li	ra,6
    60f6:	001a0a63          	beq	s4,ra,610a <.L2329>

000060fa <.LBB1061>:
                        A[i*N+j] += val;
    60fa:	0005d303          	lhu	t1,0(a1)
                for (j=0; j<N; j++) {
    60fe:	00258793          	addi	a5,a1,2
                        A[i*N+j] += val;
    6102:	40830533          	sub	a0,t1,s0
    6106:	00a59023          	sh	a0,0(a1)

0000610a <.L2329>:
    610a:	0007d983          	lhu	s3,0(a5)
                for (j=0; j<N; j++) {
    610e:	0789                	addi	a5,a5,2
                        A[i*N+j] += val;
    6110:	408988b3          	sub	a7,s3,s0
    6114:	ff179f23          	sh	a7,-2(a5)

00006118 <.L2328>:
    6118:	0007df03          	lhu	t5,0(a5)
                for (j=0; j<N; j++) {
    611c:	0789                	addi	a5,a5,2
                        A[i*N+j] += val;
    611e:	408f0e33          	sub	t3,t5,s0
    6122:	ffc79f23          	sh	t3,-2(a5)

00006126 <.L2327>:
    6126:	0007dd83          	lhu	s11,0(a5)
                for (j=0; j<N; j++) {
    612a:	0789                	addi	a5,a5,2
                        A[i*N+j] += val;
    612c:	408d83b3          	sub	t2,s11,s0
    6130:	fe779f23          	sh	t2,-2(a5)

00006134 <.L2326>:
    6134:	0007d703          	lhu	a4,0(a5)
                for (j=0; j<N; j++) {
    6138:	0789                	addi	a5,a5,2
                        A[i*N+j] += val;
    613a:	40870833          	sub	a6,a4,s0
    613e:	ff079f23          	sh	a6,-2(a5)

00006142 <.L2325>:
    6142:	0007d903          	lhu	s2,0(a5)
                for (j=0; j<N; j++) {
    6146:	0789                	addi	a5,a5,2
                        A[i*N+j] += val;
    6148:	40890b33          	sub	s6,s2,s0
    614c:	ff679f23          	sh	s6,-2(a5)

00006150 <.L2324>:
    6150:	0007da03          	lhu	s4,0(a5)
                for (j=0; j<N; j++) {
    6154:	0789                	addi	a5,a5,2
                        A[i*N+j] += val;
    6156:	408a0bb3          	sub	s7,s4,s0
    615a:	ff779f23          	sh	s7,-2(a5)
                for (j=0; j<N; j++) {
    615e:	06c78563          	beq	a5,a2,61c8 <.L2456>

00006162 <.L1857>:
                        A[i*N+j] += val;
    6162:	0007d683          	lhu	a3,0(a5)
    6166:	0027de83          	lhu	t4,2(a5)
    616a:	0047dc83          	lhu	s9,4(a5)
    616e:	0067d283          	lhu	t0,6(a5)
    6172:	0087d083          	lhu	ra,8(a5)
    6176:	00a7d983          	lhu	s3,10(a5)
    617a:	00c7d503          	lhu	a0,12(a5)
    617e:	00e7df03          	lhu	t5,14(a5)
    6182:	40868db3          	sub	s11,a3,s0
    6186:	408e83b3          	sub	t2,t4,s0
    618a:	408c8e33          	sub	t3,s9,s0
    618e:	40828333          	sub	t1,t0,s0
    6192:	408088b3          	sub	a7,ra,s0
    6196:	40898833          	sub	a6,s3,s0
    619a:	40850933          	sub	s2,a0,s0
    619e:	408f0733          	sub	a4,t5,s0
    61a2:	01b79023          	sh	s11,0(a5)
    61a6:	00779123          	sh	t2,2(a5)
    61aa:	01c79223          	sh	t3,4(a5)
    61ae:	00679323          	sh	t1,6(a5)
    61b2:	01179423          	sh	a7,8(a5)
    61b6:	01079523          	sh	a6,10(a5)
    61ba:	01279623          	sh	s2,12(a5)
    61be:	00e79723          	sh	a4,14(a5)
                for (j=0; j<N; j++) {
    61c2:	07c1                	addi	a5,a5,16
    61c4:	f8c79fe3          	bne	a5,a2,6162 <.L1857>

000061c8 <.L2456>:
        for (i=0; i<N; i++) {
    61c8:	001a8b13          	addi	s6,s5,1

000061cc <.LVL2172>:
    61cc:	41f58633          	sub	a2,a1,t6
    61d0:	f98a8c63          	beq	s5,s8,5968 <.L1853>
    61d4:	8ada                	mv	s5,s6
    61d6:	b5cd                	j	60b8 <.L1858>

000061d8 <.L2530>:
    61d8:	4a32                	lw	s4,12(sp)
    61da:	5b12                	lw	s6,36(sp)
    61dc:	5d22                	lw	s10,40(sp)
    61de:	5db2                	lw	s11,44(sp)
    61e0:	41900cb3          	neg	s9,s9
    61e4:	016a0733          	add	a4,s4,s6
    61e8:	002c9513          	slli	a0,s9,0x2

000061ec <.LBB1062>:
                        if (tmp>clipval) {
    61ec:	4a81                	li	s5,0
    61ee:	4e01                	li	t3,0
    61f0:	4801                	li	a6,0
    61f2:	4601                	li	a2,0

000061f4 <.LBB1063>:
        for (i=0; i<N; i++) {
    61f4:	003c9593          	slli	a1,s9,0x3

000061f8 <.L1802>:
                for (j=0; j<N; j++) {
    61f8:	00a70433          	add	s0,a4,a0
    61fc:	40870eb3          	sub	t4,a4,s0
    6200:	ffce8f93          	addi	t6,t4,-4
    6204:	002fd693          	srli	a3,t6,0x2
    6208:	00168313          	addi	t1,a3,1
    620c:	00337093          	andi	ra,t1,3
        for (i=0; i<N; i++) {
    6210:	88a2                	mv	a7,s0
    6212:	12008263          	beqz	ra,6336 <.L1805>
    6216:	4285                	li	t0,1
    6218:	04508a63          	beq	ra,t0,626c <.L2318>
    621c:	4c09                	li	s8,2
    621e:	03808563          	beq	ra,s8,6248 <.L2319>

00006222 <.LVL2176>:
                        cur=C[i*N+j];
    6222:	88f2                	mv	a7,t3

00006224 <.LVL2177>:
    6224:	00042e03          	lw	t3,0(s0)

00006228 <.LVL2178>:
                                ret+=10;
    6228:	010a9793          	slli	a5,s5,0x10
    622c:	0107db93          	srli	s7,a5,0x10
                        tmp+=cur;
    6230:	9872                	add	a6,a6,t3

00006232 <.LVL2179>:
                        if (tmp>clipval) {
    6232:	1d0d5563          	bge	s10,a6,63fc <.L2470>
                                ret+=10;
    6236:	00ab8813          	addi	a6,s7,10

0000623a <.LVL2180>:
    623a:	01081a93          	slli	s5,a6,0x10
    623e:	410ada93          	srai	s5,s5,0x10

00006242 <.LVL2181>:
                                tmp=0;
    6242:	4801                	li	a6,0

00006244 <.L2471>:
                for (j=0; j<N; j++) {
    6244:	00440893          	addi	a7,s0,4

00006248 <.L2319>:
                        cur=C[i*N+j];
    6248:	8972                	mv	s2,t3

0000624a <.LVL2184>:
    624a:	0008ae03          	lw	t3,0(a7)

0000624e <.LVL2185>:
                                ret+=10;
    624e:	010a9c93          	slli	s9,s5,0x10
    6252:	010cda13          	srli	s4,s9,0x10
                        tmp+=cur;
    6256:	9872                	add	a6,a6,t3

00006258 <.LVL2186>:
                        if (tmp>clipval) {
    6258:	190d5963          	bge	s10,a6,63ea <.L2472>
                                ret+=10;
    625c:	00aa0693          	addi	a3,s4,10

00006260 <.LVL2187>:
    6260:	01069313          	slli	t1,a3,0x10
    6264:	41035a93          	srai	s5,t1,0x10

00006268 <.LVL2188>:
                                tmp=0;
    6268:	4801                	li	a6,0

0000626a <.L2473>:
                for (j=0; j<N; j++) {
    626a:	0891                	addi	a7,a7,4

0000626c <.L2318>:
                        cur=C[i*N+j];
    626c:	80f2                	mv	ra,t3

0000626e <.LVL2191>:
    626e:	0008ae03          	lw	t3,0(a7)

00006272 <.LVL2192>:
                                ret+=10;
    6272:	010a9293          	slli	t0,s5,0x10
    6276:	0102dc13          	srli	s8,t0,0x10
                        tmp+=cur;
    627a:	9872                	add	a6,a6,t3

0000627c <.LVL2193>:
                        if (tmp>clipval) {
    627c:	150d5a63          	bge	s10,a6,63d0 <.L2474>
                                ret+=10;
    6280:	00ac0993          	addi	s3,s8,10
    6284:	01099813          	slli	a6,s3,0x10
    6288:	01099a93          	slli	s5,s3,0x10
    628c:	01085913          	srli	s2,a6,0x10

00006290 <.LVL2194>:
    6290:	410ada93          	srai	s5,s5,0x10

00006294 <.LVL2195>:
                                tmp=0;
    6294:	4801                	li	a6,0

00006296 <.L2475>:
                for (j=0; j<N; j++) {
    6296:	0891                	addi	a7,a7,4

00006298 <.LVL2197>:
    6298:	09171f63          	bne	a4,a7,6336 <.L1805>

0000629c <.L2476>:
        for (i=0; i<N; i++) {
    629c:	00160e93          	addi	t4,a2,1

000062a0 <.LVL2198>:
    62a0:	40b40733          	sub	a4,s0,a1
    62a4:	00c49463          	bne	s1,a2,62ac <.LVL2198+0xc>
    62a8:	e97fe06f          	j	513e <.L2533>
    62ac:	8676                	mv	a2,t4
    62ae:	b7a9                	j	61f8 <.L1802>

000062b0 <.L2535>:
                                ret += (cur>prev) ? 1 : 0;
    62b0:	012e2e33          	slt	t3,t3,s2
                        cur=C[i*N+j];
    62b4:	0048a283          	lw	t0,4(a7)
                                ret += (cur>prev) ? 1 : 0;
    62b8:	01ca0b33          	add	s6,s4,t3
    62bc:	010b1e93          	slli	t4,s6,0x10
    62c0:	410ed313          	srai	t1,t4,0x10
                                ret+=10;
    62c4:	01031c13          	slli	s8,t1,0x10
                        tmp+=cur;
    62c8:	00508bb3          	add	s7,ra,t0
                for (j=0; j<N; j++) {
    62cc:	0891                	addi	a7,a7,4
                                ret+=10;
    62ce:	010c5793          	srli	a5,s8,0x10
                        if (tmp>clipval) {
    62d2:	097d5e63          	bge	s10,s7,636e <.L2534>

000062d6 <.L2107>:
                        cur=C[i*N+j];
    62d6:	0048ac83          	lw	s9,4(a7)
                                ret+=10;
    62da:	00a78a93          	addi	s5,a5,10
    62de:	010a9913          	slli	s2,s5,0x10
    62e2:	41095813          	srai	a6,s2,0x10

000062e6 <.LVL2200>:
                                tmp=0;
    62e6:	4b81                	li	s7,0

000062e8 <.LVL2201>:
                                ret+=10;
    62e8:	01081a13          	slli	s4,a6,0x10
                        tmp+=cur;
    62ec:	019b8eb3          	add	t4,s7,s9
                                ret+=10;
    62f0:	010a5b13          	srli	s6,s4,0x10
                        if (tmp>clipval) {
    62f4:	09dd5f63          	bge	s10,t4,6392 <.L2478>

000062f8 <.L2536>:
                        cur=C[i*N+j];
    62f8:	0088ae03          	lw	t3,8(a7)
                                ret+=10;
    62fc:	00ab0093          	addi	ra,s6,10
    6300:	01009293          	slli	t0,ra,0x10
    6304:	4102d313          	srai	t1,t0,0x10

00006308 <.LVL2202>:
                                tmp=0;
    6308:	4e81                	li	t4,0

0000630a <.LVL2203>:
                                ret+=10;
    630a:	01031c13          	slli	s8,t1,0x10
                        tmp+=cur;
    630e:	01ce8833          	add	a6,t4,t3
                                ret+=10;
    6312:	010c5793          	srli	a5,s8,0x10
                        if (tmp>clipval) {
    6316:	0b0d5063          	bge	s10,a6,63b6 <.L2480>

0000631a <.L2537>:
                                ret+=10;
    631a:	00a78c93          	addi	s9,a5,10
    631e:	010c9a13          	slli	s4,s9,0x10
    6322:	010c9b13          	slli	s6,s9,0x10
    6326:	010a5913          	srli	s2,s4,0x10
    632a:	410b5a93          	srai	s5,s6,0x10

0000632e <.LVL2205>:
                                tmp=0;
    632e:	4801                	li	a6,0

00006330 <.L2481>:
                for (j=0; j<N; j++) {
    6330:	08b1                	addi	a7,a7,12
    6332:	f71705e3          	beq	a4,a7,629c <.L2476>

00006336 <.L1805>:
                        cur=C[i*N+j];
    6336:	0008a903          	lw	s2,0(a7)
                                ret+=10;
    633a:	010a9c93          	slli	s9,s5,0x10
    633e:	010cda13          	srli	s4,s9,0x10
                        tmp+=cur;
    6342:	012800b3          	add	ra,a6,s2
                        if (tmp>clipval) {
    6346:	f61d55e3          	bge	s10,ra,62b0 <.L2535>
                        cur=C[i*N+j];
    634a:	0048a283          	lw	t0,4(a7)
                                ret+=10;
    634e:	00aa0f93          	addi	t6,s4,10
    6352:	010f9693          	slli	a3,t6,0x10
    6356:	4106d313          	srai	t1,a3,0x10

0000635a <.LVL2208>:
                                tmp=0;
    635a:	4081                	li	ra,0

0000635c <.LVL2209>:
                                ret+=10;
    635c:	01031c13          	slli	s8,t1,0x10
                        tmp+=cur;
    6360:	00508bb3          	add	s7,ra,t0
                for (j=0; j<N; j++) {
    6364:	0891                	addi	a7,a7,4
                                ret+=10;
    6366:	010c5793          	srli	a5,s8,0x10
                        if (tmp>clipval) {
    636a:	f77d46e3          	blt	s10,s7,62d6 <.L2107>

0000636e <.L2534>:
                                ret += (cur>prev) ? 1 : 0;
    636e:	005923b3          	slt	t2,s2,t0
                        cur=C[i*N+j];
    6372:	0048ac83          	lw	s9,4(a7)
                                ret += (cur>prev) ? 1 : 0;
    6376:	00778f33          	add	t5,a5,t2
    637a:	010f1993          	slli	s3,t5,0x10
    637e:	4109d813          	srai	a6,s3,0x10
                                ret+=10;
    6382:	01081a13          	slli	s4,a6,0x10
                        tmp+=cur;
    6386:	019b8eb3          	add	t4,s7,s9
                                ret+=10;
    638a:	010a5b13          	srli	s6,s4,0x10
                        if (tmp>clipval) {
    638e:	f7dd45e3          	blt	s10,t4,62f8 <.L2536>

00006392 <.L2478>:
                                ret += (cur>prev) ? 1 : 0;
    6392:	0192ae33          	slt	t3,t0,s9
    6396:	01cb0fb3          	add	t6,s6,t3
                        cur=C[i*N+j];
    639a:	0088ae03          	lw	t3,8(a7)
                                ret += (cur>prev) ? 1 : 0;
    639e:	010f9693          	slli	a3,t6,0x10
    63a2:	4106d313          	srai	t1,a3,0x10

000063a6 <.LVL2210>:
                                ret+=10;
    63a6:	01031c13          	slli	s8,t1,0x10
                        tmp+=cur;
    63aa:	01ce8833          	add	a6,t4,t3
                                ret+=10;
    63ae:	010c5793          	srli	a5,s8,0x10
                        if (tmp>clipval) {
    63b2:	f70d44e3          	blt	s10,a6,631a <.L2537>

000063b6 <.L2480>:
                                ret += (cur>prev) ? 1 : 0;
    63b6:	01ccabb3          	slt	s7,s9,t3
    63ba:	017783b3          	add	t2,a5,s7
    63be:	01039f13          	slli	t5,t2,0x10
    63c2:	01039993          	slli	s3,t2,0x10
    63c6:	010f5913          	srli	s2,t5,0x10
    63ca:	4109da93          	srai	s5,s3,0x10
    63ce:	b78d                	j	6330 <.L2481>

000063d0 <.L2474>:
    63d0:	01c0a7b3          	slt	a5,ra,t3
    63d4:	00fc0bb3          	add	s7,s8,a5
    63d8:	010b9393          	slli	t2,s7,0x10
    63dc:	010b9f13          	slli	t5,s7,0x10
    63e0:	0103d913          	srli	s2,t2,0x10

000063e4 <.LVL2212>:
    63e4:	410f5a93          	srai	s5,t5,0x10
    63e8:	b57d                	j	6296 <.L2475>

000063ea <.L2472>:
    63ea:	01c92b33          	slt	s6,s2,t3
    63ee:	016a0eb3          	add	t4,s4,s6

000063f2 <.LVL2214>:
    63f2:	010e9f93          	slli	t6,t4,0x10
    63f6:	410fda93          	srai	s5,t6,0x10
    63fa:	bd85                	j	626a <.L2473>

000063fc <.L2470>:
    63fc:	01c8a3b3          	slt	t2,a7,t3
    6400:	007b8f33          	add	t5,s7,t2

00006404 <.LVL2216>:
    6404:	010f1993          	slli	s3,t5,0x10
    6408:	4109da93          	srai	s5,s3,0x10
    640c:	bd25                	j	6244 <.L2471>

0000640e <.L2532>:
    640e:	4cb2                	lw	s9,12(sp)
    6410:	4c72                	lw	s8,28(sp)
    6412:	41300933          	neg	s2,s3
    6416:	009c8433          	add	s0,s9,s1
    641a:	00291593          	slli	a1,s2,0x2

0000641e <.LBB1064>:
                        if (tmp>clipval) {
    641e:	4f01                	li	t5,0
    6420:	4301                	li	t1,0
    6422:	4501                	li	a0,0
    6424:	4681                	li	a3,0
        for (i=0; i<N; i++) {
    6426:	00391613          	slli	a2,s2,0x3

0000642a <.L1831>:
                for (j=0; j<N; j++) {
    642a:	008589b3          	add	s3,a1,s0
    642e:	41340e33          	sub	t3,s0,s3
    6432:	ffce0393          	addi	t2,t3,-4
    6436:	0023d713          	srli	a4,t2,0x2
    643a:	00170f93          	addi	t6,a4,1
    643e:	003ffe93          	andi	t4,t6,3
        for (i=0; i<N; i++) {
    6442:	884e                	mv	a6,s3
    6444:	120e8263          	beqz	t4,6568 <.L1834>
    6448:	4285                	li	t0,1
    644a:	045e8a63          	beq	t4,t0,649e <.L2322>
    644e:	4089                	li	ra,2
    6450:	021e8563          	beq	t4,ra,647a <.L2323>

00006454 <.LVL2220>:
                        cur=C[i*N+j];
    6454:	889a                	mv	a7,t1

00006456 <.LVL2221>:
    6456:	0009a303          	lw	t1,0(s3)

0000645a <.LVL2222>:
                                ret+=10;
    645a:	010f1793          	slli	a5,t5,0x10
    645e:	0107df13          	srli	t5,a5,0x10
                        tmp+=cur;
    6462:	951a                	add	a0,a0,t1

00006464 <.LVL2223>:
                        if (tmp>clipval) {
    6464:	1cad5563          	bge	s10,a0,662e <.L2457>
                                ret+=10;
    6468:	00af0513          	addi	a0,t5,10

0000646c <.LVL2224>:
    646c:	01051a13          	slli	s4,a0,0x10
    6470:	410a5f13          	srai	t5,s4,0x10

00006474 <.LVL2225>:
                                tmp=0;
    6474:	4501                	li	a0,0

00006476 <.L2458>:
                for (j=0; j<N; j++) {
    6476:	00498813          	addi	a6,s3,4

0000647a <.L2323>:
                        cur=C[i*N+j];
    647a:	849a                	mv	s1,t1

0000647c <.LVL2228>:
    647c:	00082303          	lw	t1,0(a6)

00006480 <.LVL2229>:
                                ret+=10;
    6480:	010f1913          	slli	s2,t5,0x10
    6484:	01095c93          	srli	s9,s2,0x10
                        tmp+=cur;
    6488:	951a                	add	a0,a0,t1

0000648a <.LVL2230>:
                        if (tmp>clipval) {
    648a:	18ad5963          	bge	s10,a0,661c <.L2459>
                                ret+=10;
    648e:	00ac8f93          	addi	t6,s9,10

00006492 <.LVL2231>:
    6492:	010f9e93          	slli	t4,t6,0x10
    6496:	410edf13          	srai	t5,t4,0x10

0000649a <.LVL2232>:
                                tmp=0;
    649a:	4501                	li	a0,0

0000649c <.L2460>:
                for (j=0; j<N; j++) {
    649c:	0811                	addi	a6,a6,4

0000649e <.L2322>:
                        cur=C[i*N+j];
    649e:	829a                	mv	t0,t1

000064a0 <.LVL2235>:
    64a0:	00082303          	lw	t1,0(a6)

000064a4 <.LVL2236>:
                                ret+=10;
    64a4:	010f1093          	slli	ra,t5,0x10
    64a8:	0100d793          	srli	a5,ra,0x10
                        tmp+=cur;
    64ac:	951a                	add	a0,a0,t1

000064ae <.LVL2237>:
                        if (tmp>clipval) {
    64ae:	14ad5a63          	bge	s10,a0,6602 <.L2461>
                                ret+=10;
    64b2:	00a78513          	addi	a0,a5,10
    64b6:	01051a13          	slli	s4,a0,0x10
    64ba:	01051493          	slli	s1,a0,0x10
    64be:	010a5913          	srli	s2,s4,0x10

000064c2 <.LVL2238>:
    64c2:	4104df13          	srai	t5,s1,0x10

000064c6 <.LVL2239>:
                                tmp=0;
    64c6:	4501                	li	a0,0

000064c8 <.L2462>:
                for (j=0; j<N; j++) {
    64c8:	0811                	addi	a6,a6,4

000064ca <.LVL2241>:
    64ca:	08881f63          	bne	a6,s0,6568 <.L1834>

000064ce <.L2463>:
        for (i=0; i<N; i++) {
    64ce:	00168f93          	addi	t6,a3,1

000064d2 <.LVL2242>:
    64d2:	40c98433          	sub	s0,s3,a2
    64d6:	00db9463          	bne	s7,a3,64de <.LVL2242+0xc>
    64da:	874ff06f          	j	554e <.L2538>
    64de:	86fe                	mv	a3,t6
    64e0:	b7a9                	j	642a <.L1831>

000064e2 <.L2540>:
                                ret += (cur>prev) ? 1 : 0;
    64e2:	01232333          	slt	t1,t1,s2
                        cur=C[i*N+j];
    64e6:	00482f03          	lw	t5,4(a6)
                                ret += (cur>prev) ? 1 : 0;
    64ea:	006e03b3          	add	t2,t3,t1
    64ee:	01039713          	slli	a4,t2,0x10
    64f2:	41075293          	srai	t0,a4,0x10
                                ret+=10;
    64f6:	01029793          	slli	a5,t0,0x10
                        tmp+=cur;
    64fa:	01e08b33          	add	s6,ra,t5
                for (j=0; j<N; j++) {
    64fe:	0811                	addi	a6,a6,4
                                ret+=10;
    6500:	0107da93          	srli	s5,a5,0x10
                        if (tmp>clipval) {
    6504:	096d5e63          	bge	s10,s6,65a0 <.L2539>

00006508 <.L2062>:
                        cur=C[i*N+j];
    6508:	00482e03          	lw	t3,4(a6)
                                ret+=10;
    650c:	00aa8913          	addi	s2,s5,10
    6510:	01091c93          	slli	s9,s2,0x10
    6514:	410cd493          	srai	s1,s9,0x10

00006518 <.LVL2244>:
                                tmp=0;
    6518:	4b01                	li	s6,0

0000651a <.LVL2245>:
                                ret+=10;
    651a:	01049313          	slli	t1,s1,0x10
                        tmp+=cur;
    651e:	01cb0733          	add	a4,s6,t3
                                ret+=10;
    6522:	01035393          	srli	t2,t1,0x10
                        if (tmp>clipval) {
    6526:	08ed5f63          	bge	s10,a4,65c4 <.L2465>

0000652a <.L2541>:
                        cur=C[i*N+j];
    652a:	00882303          	lw	t1,8(a6)
                                ret+=10;
    652e:	00a38f13          	addi	t5,t2,10
    6532:	010f1793          	slli	a5,t5,0x10
    6536:	4107d093          	srai	ra,a5,0x10

0000653a <.LVL2246>:
                                tmp=0;
    653a:	4701                	li	a4,0

0000653c <.LVL2247>:
                                ret+=10;
    653c:	01009a93          	slli	s5,ra,0x10
                        tmp+=cur;
    6540:	00670533          	add	a0,a4,t1
                                ret+=10;
    6544:	010adb13          	srli	s6,s5,0x10
                        if (tmp>clipval) {
    6548:	0aad5063          	bge	s10,a0,65e8 <.L2467>

0000654c <.L2542>:
                                ret+=10;
    654c:	00ab0e13          	addi	t3,s6,10
    6550:	010e1393          	slli	t2,t3,0x10
    6554:	010e1713          	slli	a4,t3,0x10
    6558:	0103d913          	srli	s2,t2,0x10
    655c:	41075f13          	srai	t5,a4,0x10

00006560 <.LVL2249>:
                                tmp=0;
    6560:	4501                	li	a0,0

00006562 <.L2468>:
                for (j=0; j<N; j++) {
    6562:	0831                	addi	a6,a6,12
    6564:	f68805e3          	beq	a6,s0,64ce <.L2463>

00006568 <.L1834>:
                        cur=C[i*N+j];
    6568:	00082903          	lw	s2,0(a6)
                                ret+=10;
    656c:	010f1c93          	slli	s9,t5,0x10
    6570:	010cde13          	srli	t3,s9,0x10
                        tmp+=cur;
    6574:	012500b3          	add	ra,a0,s2
                        if (tmp>clipval) {
    6578:	f61d55e3          	bge	s10,ra,64e2 <.L2540>
                        cur=C[i*N+j];
    657c:	00482f03          	lw	t5,4(a6)
                                ret+=10;
    6580:	00ae0f93          	addi	t6,t3,10
    6584:	010f9e93          	slli	t4,t6,0x10
    6588:	410ed293          	srai	t0,t4,0x10

0000658c <.LVL2252>:
                                tmp=0;
    658c:	4081                	li	ra,0

0000658e <.LVL2253>:
                                ret+=10;
    658e:	01029793          	slli	a5,t0,0x10
                        tmp+=cur;
    6592:	01e08b33          	add	s6,ra,t5
                for (j=0; j<N; j++) {
    6596:	0811                	addi	a6,a6,4
                                ret+=10;
    6598:	0107da93          	srli	s5,a5,0x10
                        if (tmp>clipval) {
    659c:	f76d46e3          	blt	s10,s6,6508 <.L2062>

000065a0 <.L2539>:
                                ret += (cur>prev) ? 1 : 0;
    65a0:	01e928b3          	slt	a7,s2,t5
                        cur=C[i*N+j];
    65a4:	00482e03          	lw	t3,4(a6)
                                ret += (cur>prev) ? 1 : 0;
    65a8:	011a8533          	add	a0,s5,a7
    65ac:	01051a13          	slli	s4,a0,0x10
    65b0:	410a5493          	srai	s1,s4,0x10
                                ret+=10;
    65b4:	01049313          	slli	t1,s1,0x10
                        tmp+=cur;
    65b8:	01cb0733          	add	a4,s6,t3
                                ret+=10;
    65bc:	01035393          	srli	t2,t1,0x10
                        if (tmp>clipval) {
    65c0:	f6ed45e3          	blt	s10,a4,652a <.L2541>

000065c4 <.L2465>:
                                ret += (cur>prev) ? 1 : 0;
    65c4:	01cf2fb3          	slt	t6,t5,t3
                        cur=C[i*N+j];
    65c8:	00882303          	lw	t1,8(a6)
                                ret += (cur>prev) ? 1 : 0;
    65cc:	01f38eb3          	add	t4,t2,t6
    65d0:	010e9293          	slli	t0,t4,0x10
    65d4:	4102d093          	srai	ra,t0,0x10

000065d8 <.LVL2254>:
                                ret+=10;
    65d8:	01009a93          	slli	s5,ra,0x10
                        tmp+=cur;
    65dc:	00670533          	add	a0,a4,t1
                                ret+=10;
    65e0:	010adb13          	srli	s6,s5,0x10
                        if (tmp>clipval) {
    65e4:	f6ad44e3          	blt	s10,a0,654c <.L2542>

000065e8 <.L2467>:
                                ret += (cur>prev) ? 1 : 0;
    65e8:	006e28b3          	slt	a7,t3,t1
    65ec:	011b0a33          	add	s4,s6,a7
    65f0:	010a1493          	slli	s1,s4,0x10
    65f4:	010a1c93          	slli	s9,s4,0x10
    65f8:	0104d913          	srli	s2,s1,0x10
    65fc:	410cdf13          	srai	t5,s9,0x10
    6600:	b78d                	j	6562 <.L2468>

00006602 <.L2461>:
    6602:	0062a8b3          	slt	a7,t0,t1
    6606:	01178f33          	add	t5,a5,a7
    660a:	010f1a93          	slli	s5,t5,0x10
    660e:	010f1b13          	slli	s6,t5,0x10
    6612:	010ad913          	srli	s2,s5,0x10

00006616 <.LVL2256>:
    6616:	410b5f13          	srai	t5,s6,0x10
    661a:	b57d                	j	64c8 <.L2462>

0000661c <.L2459>:
    661c:	0064ae33          	slt	t3,s1,t1
    6620:	01cc83b3          	add	t2,s9,t3

00006624 <.LVL2258>:
    6624:	01039713          	slli	a4,t2,0x10
    6628:	41075f13          	srai	t5,a4,0x10
    662c:	bd85                	j	649c <.L2460>

0000662e <.L2457>:
    662e:	0068a833          	slt	a6,a7,t1
    6632:	010f0ab3          	add	s5,t5,a6

00006636 <.LVL2260>:
    6636:	010a9b13          	slli	s6,s5,0x10
    663a:	410b5f13          	srai	t5,s6,0x10
    663e:	bd25                	j	6476 <.L2458>

00006640 <.L1737>:
        ee_printf("Matrix %s [%dx%d]:\n",name,N,N);
    6640:	60c1                	lui	ra,0x10
    6642:	65c1                	lui	a1,0x10

00006644 <.LVL2262>:
    6644:	4681                	li	a3,0

00006646 <.LVL2263>:
    6646:	4601                	li	a2,0

00006648 <.LVL2264>:
    6648:	1d458593          	addi	a1,a1,468 # 101d4 <.LC16>
    664c:	11408513          	addi	a0,ra,276 # 10114 <.LC3>

00006650 <.LVL2265>:
    6650:	cc06                	sw	ra,24(sp)
    6652:	966fc0ef          	jal	ra,27b8 <whisperPrintf>

00006656 <.LBB1066>:
                data >>= 1;
    6656:	4681                	li	a3,0

00006658 <.LBB1069>:
        ee_printf("Matrix %s [%dx%d]:\n",name,N,N);
    6658:	4701                	li	a4,0

0000665a <.LBB1070>:
                crc >>= 1;
    665a:	4281                	li	t0,0
    665c:	b1afe06f          	j	4976 <.L1751>

00006660 <core_bench_matrix>:
ee_u16 core_bench_matrix(mat_params *p, ee_s16 seed, ee_u16 crc) {
    6660:	1141                	addi	sp,sp,-16
        crc=crc16(matrix_test(N,C,A,B,val),crc);
    6662:	4514                	lw	a3,8(a0)
ee_u16 core_bench_matrix(mat_params *p, ee_s16 seed, ee_u16 crc) {
    6664:	872e                	mv	a4,a1

00006666 <.LVL2268>:
    6666:	c422                	sw	s0,8(sp)
        crc=crc16(matrix_test(N,C,A,B,val),crc);
    6668:	454c                	lw	a1,12(a0)

0000666a <.LVL2269>:
ee_u16 core_bench_matrix(mat_params *p, ee_s16 seed, ee_u16 crc) {
    666a:	8432                	mv	s0,a2
        crc=crc16(matrix_test(N,C,A,B,val),crc);
    666c:	4150                	lw	a2,4(a0)

0000666e <.LVL2270>:
    666e:	4108                	lw	a0,0(a0)

00006670 <.LVL2271>:
ee_u16 core_bench_matrix(mat_params *p, ee_s16 seed, ee_u16 crc) {
    6670:	c606                	sw	ra,12(sp)
        crc=crc16(matrix_test(N,C,A,B,val),crc);
    6672:	c19fd0ef          	jal	ra,428a <matrix_test>

00006676 <.LBB1081>:
                x16 = (ee_u8)((data & 1) ^ ((ee_u8)crc & 1));
    6676:	00a446b3          	xor	a3,s0,a0

0000667a <.LBE1085>:
        crc=crcu8( (ee_u8) (newval)                             ,crc);
    667a:	0ff57713          	andi	a4,a0,255

0000667e <.LBE1083>:
        return crcu16((ee_u16)newval, crc);
    667e:	01051793          	slli	a5,a0,0x10

00006682 <.LBB1090>:
                if (x16 == 1)
    6682:	0016f293          	andi	t0,a3,1

00006686 <.LBE1090>:
        return crcu16((ee_u16)newval, crc);
    6686:	0107d313          	srli	t1,a5,0x10

0000668a <.LBB1091>:
                data >>= 1;
    668a:	00175613          	srli	a2,a4,0x1

0000668e <.LVL2274>:
                crc >>= 1;
    668e:	00145813          	srli	a6,s0,0x1
                if (x16 == 1)
    6692:	00028b63          	beqz	t0,66a8 <.L2544>

00006696 <.LVL2275>:
                   crc |= 0x8000;
    6696:	70e9                	lui	ra,0xffffa
    6698:	00108393          	addi	t2,ra,1 # ffffa001 <STACK+0xfffe1931>
    669c:	00784533          	xor	a0,a6,t2

000066a0 <.LVL2276>:
    66a0:	01051593          	slli	a1,a0,0x10
    66a4:	0105d813          	srli	a6,a1,0x10

000066a8 <.L2544>:
                x16 = (ee_u8)((data & 1) ^ ((ee_u8)crc & 1));
    66a8:	00c848b3          	xor	a7,a6,a2
                if (x16 == 1)
    66ac:	0018fe13          	andi	t3,a7,1
                data >>= 1;
    66b0:	00275e93          	srli	t4,a4,0x2

000066b4 <.LVL2278>:
                crc >>= 1;
    66b4:	00185293          	srli	t0,a6,0x1
                if (x16 == 1)
    66b8:	000e0b63          	beqz	t3,66ce <.L2545>

000066bc <.LVL2279>:
                   crc |= 0x8000;
    66bc:	7f69                	lui	t5,0xffffa
    66be:	001f0f93          	addi	t6,t5,1 # ffffa001 <STACK+0xfffe1931>
    66c2:	01f2c433          	xor	s0,t0,t6

000066c6 <.LVL2280>:
    66c6:	01041693          	slli	a3,s0,0x10
    66ca:	0106d293          	srli	t0,a3,0x10

000066ce <.L2545>:
                x16 = (ee_u8)((data & 1) ^ ((ee_u8)crc & 1));
    66ce:	01d2c7b3          	xor	a5,t0,t4
                if (x16 == 1)
    66d2:	0017f093          	andi	ra,a5,1
                data >>= 1;
    66d6:	00375613          	srli	a2,a4,0x3

000066da <.LVL2282>:
                crc >>= 1;
    66da:	0012d893          	srli	a7,t0,0x1
                if (x16 == 1)
    66de:	00008b63          	beqz	ra,66f4 <.L2546>

000066e2 <.LVL2283>:
                   crc |= 0x8000;
    66e2:	73e9                	lui	t2,0xffffa
    66e4:	00138593          	addi	a1,t2,1 # ffffa001 <STACK+0xfffe1931>
    66e8:	00b8c533          	xor	a0,a7,a1

000066ec <.LVL2284>:
    66ec:	01051813          	slli	a6,a0,0x10
    66f0:	01085893          	srli	a7,a6,0x10

000066f4 <.L2546>:
                x16 = (ee_u8)((data & 1) ^ ((ee_u8)crc & 1));
    66f4:	00c8ce33          	xor	t3,a7,a2
                if (x16 == 1)
    66f8:	001e7e93          	andi	t4,t3,1
                data >>= 1;
    66fc:	00475f13          	srli	t5,a4,0x4

00006700 <.LVL2286>:
                crc >>= 1;
    6700:	0018d793          	srli	a5,a7,0x1
                if (x16 == 1)
    6704:	000e8b63          	beqz	t4,671a <.L2547>

00006708 <.LVL2287>:
                   crc |= 0x8000;
    6708:	7fe9                	lui	t6,0xffffa
    670a:	001f8413          	addi	s0,t6,1 # ffffa001 <STACK+0xfffe1931>
    670e:	0087c6b3          	xor	a3,a5,s0

00006712 <.LVL2288>:
    6712:	01069293          	slli	t0,a3,0x10
    6716:	0102d793          	srli	a5,t0,0x10

0000671a <.L2547>:
                x16 = (ee_u8)((data & 1) ^ ((ee_u8)crc & 1));
    671a:	01e7c0b3          	xor	ra,a5,t5
                if (x16 == 1)
    671e:	0010f393          	andi	t2,ra,1
                data >>= 1;
    6722:	00575613          	srli	a2,a4,0x5

00006726 <.LVL2290>:
                crc >>= 1;
    6726:	0017de13          	srli	t3,a5,0x1
                if (x16 == 1)
    672a:	00038b63          	beqz	t2,6740 <.L2548>

0000672e <.LVL2291>:
                   crc |= 0x8000;
    672e:	75e9                	lui	a1,0xffffa
    6730:	00158813          	addi	a6,a1,1 # ffffa001 <STACK+0xfffe1931>
    6734:	010e4533          	xor	a0,t3,a6

00006738 <.LVL2292>:
    6738:	01051893          	slli	a7,a0,0x10
    673c:	0108de13          	srli	t3,a7,0x10

00006740 <.L2548>:
                x16 = (ee_u8)((data & 1) ^ ((ee_u8)crc & 1));
    6740:	00ce4eb3          	xor	t4,t3,a2
                if (x16 == 1)
    6744:	001eff13          	andi	t5,t4,1
                data >>= 1;
    6748:	00675f93          	srli	t6,a4,0x6

0000674c <.LVL2294>:
                crc >>= 1;
    674c:	001e5093          	srli	ra,t3,0x1
                if (x16 == 1)
    6750:	000f0b63          	beqz	t5,6766 <.L2549>

00006754 <.LVL2295>:
                   crc |= 0x8000;
    6754:	7469                	lui	s0,0xffffa
    6756:	00140693          	addi	a3,s0,1 # ffffa001 <STACK+0xfffe1931>
    675a:	00d0c2b3          	xor	t0,ra,a3

0000675e <.LVL2296>:
    675e:	01029793          	slli	a5,t0,0x10
    6762:	0107d093          	srli	ra,a5,0x10

00006766 <.L2549>:
                x16 = (ee_u8)((data & 1) ^ ((ee_u8)crc & 1));
    6766:	01f0c3b3          	xor	t2,ra,t6
                if (x16 == 1)
    676a:	0013f613          	andi	a2,t2,1
                data >>= 1;
    676e:	831d                	srli	a4,a4,0x7

00006770 <.LVL2298>:
                crc >>= 1;
    6770:	0010de13          	srli	t3,ra,0x1
                if (x16 == 1)
    6774:	ca11                	beqz	a2,6788 <.L2550>

00006776 <.LVL2299>:
                   crc |= 0x8000;
    6776:	75e9                	lui	a1,0xffffa
    6778:	00158813          	addi	a6,a1,1 # ffffa001 <STACK+0xfffe1931>
    677c:	010e4533          	xor	a0,t3,a6

00006780 <.LVL2300>:
    6780:	01051893          	slli	a7,a0,0x10
    6784:	0108de13          	srli	t3,a7,0x10

00006788 <.L2550>:
                if (x16 == 1)
    6788:	001e7e93          	andi	t4,t3,1
                crc >>= 1;
    678c:	001e5293          	srli	t0,t3,0x1
                if (x16 == 1)
    6790:	12ee9c63          	bne	t4,a4,68c8 <.L2609>

00006794 <.L2551>:
        crc=crcu8( (ee_u8) ((newval)>>8)        ,crc);
    6794:	00835793          	srli	a5,t1,0x8

00006798 <.LBB1092>:
                x16 = (ee_u8)((data & 1) ^ ((ee_u8)crc & 1));
    6798:	0057c0b3          	xor	ra,a5,t0
                if (x16 == 1)
    679c:	0010f393          	andi	t2,ra,1

000067a0 <.LBE1092>:
        crc=crcu8( (ee_u8) ((newval)>>8)        ,crc);
    67a0:	00835613          	srli	a2,t1,0x8

000067a4 <.LBB1095>:
                data >>= 1;
    67a4:	0012d893          	srli	a7,t0,0x1
    67a8:	00935313          	srli	t1,t1,0x9

000067ac <.LVL2304>:
                if (x16 == 1)
    67ac:	00038b63          	beqz	t2,67c2 <.L2552>

000067b0 <.LVL2305>:
                   crc |= 0x8000;
    67b0:	7769                	lui	a4,0xffffa
    67b2:	00170593          	addi	a1,a4,1 # ffffa001 <STACK+0xfffe1931>
    67b6:	00b8c833          	xor	a6,a7,a1

000067ba <.LVL2306>:
    67ba:	01081513          	slli	a0,a6,0x10
    67be:	01055893          	srli	a7,a0,0x10

000067c2 <.L2552>:
                x16 = (ee_u8)((data & 1) ^ ((ee_u8)crc & 1));
    67c2:	01134e33          	xor	t3,t1,a7
                if (x16 == 1)
    67c6:	001e7e93          	andi	t4,t3,1
                data >>= 1;
    67ca:	00265f13          	srli	t5,a2,0x2

000067ce <.LVL2308>:
                if (x16 == 1)
    67ce:	0018d093          	srli	ra,a7,0x1
    67d2:	000e8b63          	beqz	t4,67e8 <.L2553>

000067d6 <.LVL2309>:
                   crc |= 0x8000;
    67d6:	7fe9                	lui	t6,0xffffa
    67d8:	001f8413          	addi	s0,t6,1 # ffffa001 <STACK+0xfffe1931>
    67dc:	0080c6b3          	xor	a3,ra,s0

000067e0 <.LVL2310>:
    67e0:	01069293          	slli	t0,a3,0x10
    67e4:	0102d093          	srli	ra,t0,0x10

000067e8 <.L2553>:
                x16 = (ee_u8)((data & 1) ^ ((ee_u8)crc & 1));
    67e8:	01e0c7b3          	xor	a5,ra,t5
                if (x16 == 1)
    67ec:	0017f393          	andi	t2,a5,1
                data >>= 1;
    67f0:	00365313          	srli	t1,a2,0x3

000067f4 <.LVL2312>:
                if (x16 == 1)
    67f4:	0010d893          	srli	a7,ra,0x1
    67f8:	00038b63          	beqz	t2,680e <.L2554>

000067fc <.LVL2313>:
                   crc |= 0x8000;
    67fc:	7769                	lui	a4,0xffffa
    67fe:	00170593          	addi	a1,a4,1 # ffffa001 <STACK+0xfffe1931>
    6802:	00b8c833          	xor	a6,a7,a1

00006806 <.LVL2314>:
    6806:	01081513          	slli	a0,a6,0x10
    680a:	01055893          	srli	a7,a0,0x10

0000680e <.L2554>:
                x16 = (ee_u8)((data & 1) ^ ((ee_u8)crc & 1));
    680e:	0068ce33          	xor	t3,a7,t1
                if (x16 == 1)
    6812:	001e7e93          	andi	t4,t3,1
                data >>= 1;
    6816:	00465f13          	srli	t5,a2,0x4

0000681a <.LVL2316>:
                if (x16 == 1)
    681a:	0018d093          	srli	ra,a7,0x1
    681e:	000e8b63          	beqz	t4,6834 <.L2555>

00006822 <.LVL2317>:
                   crc |= 0x8000;
    6822:	7fe9                	lui	t6,0xffffa
    6824:	001f8413          	addi	s0,t6,1 # ffffa001 <STACK+0xfffe1931>
    6828:	0080c6b3          	xor	a3,ra,s0

0000682c <.LVL2318>:
    682c:	01069293          	slli	t0,a3,0x10
    6830:	0102d093          	srli	ra,t0,0x10

00006834 <.L2555>:
                x16 = (ee_u8)((data & 1) ^ ((ee_u8)crc & 1));
    6834:	01e0c7b3          	xor	a5,ra,t5
                if (x16 == 1)
    6838:	0017f393          	andi	t2,a5,1
                data >>= 1;
    683c:	00565313          	srli	t1,a2,0x5

00006840 <.LVL2320>:
                if (x16 == 1)
    6840:	0010d893          	srli	a7,ra,0x1
    6844:	00038b63          	beqz	t2,685a <.L2556>

00006848 <.LVL2321>:
                   crc |= 0x8000;
    6848:	7769                	lui	a4,0xffffa
    684a:	00170593          	addi	a1,a4,1 # ffffa001 <STACK+0xfffe1931>
    684e:	00b8c833          	xor	a6,a7,a1

00006852 <.LVL2322>:
    6852:	01081513          	slli	a0,a6,0x10
    6856:	01055893          	srli	a7,a0,0x10

0000685a <.L2556>:
                x16 = (ee_u8)((data & 1) ^ ((ee_u8)crc & 1));
    685a:	0068ce33          	xor	t3,a7,t1
                if (x16 == 1)
    685e:	001e7e93          	andi	t4,t3,1
                data >>= 1;
    6862:	00665f13          	srli	t5,a2,0x6

00006866 <.LVL2324>:
                if (x16 == 1)
    6866:	0018d093          	srli	ra,a7,0x1
    686a:	000e8b63          	beqz	t4,6880 <.L2557>

0000686e <.LVL2325>:
                   crc |= 0x8000;
    686e:	7fe9                	lui	t6,0xffffa
    6870:	001f8413          	addi	s0,t6,1 # ffffa001 <STACK+0xfffe1931>
    6874:	0080c6b3          	xor	a3,ra,s0

00006878 <.LVL2326>:
    6878:	01069293          	slli	t0,a3,0x10
    687c:	0102d093          	srli	ra,t0,0x10

00006880 <.L2557>:
                x16 = (ee_u8)((data & 1) ^ ((ee_u8)crc & 1));
    6880:	01e0c7b3          	xor	a5,ra,t5
                if (x16 == 1)
    6884:	0017f393          	andi	t2,a5,1
                data >>= 1;
    6888:	821d                	srli	a2,a2,0x7

0000688a <.LVL2328>:
                if (x16 == 1)
    688a:	0010d513          	srli	a0,ra,0x1
    688e:	00038b63          	beqz	t2,68a4 <.L2558>

00006892 <.LVL2329>:
                   crc |= 0x8000;
    6892:	7369                	lui	t1,0xffffa
    6894:	00130713          	addi	a4,t1,1 # ffffa001 <STACK+0xfffe1931>
    6898:	00e545b3          	xor	a1,a0,a4

0000689c <.LVL2330>:
    689c:	01059813          	slli	a6,a1,0x10
    68a0:	01085513          	srli	a0,a6,0x10

000068a4 <.L2558>:
                if (x16 == 1)
    68a4:	00157893          	andi	a7,a0,1
    68a8:	8105                	srli	a0,a0,0x1
    68aa:	00c88b63          	beq	a7,a2,68c0 <.L2559>

000068ae <.LVL2332>:
                   crc |= 0x8000;
    68ae:	7e69                	lui	t3,0xffffa
    68b0:	001e0e93          	addi	t4,t3,1 # ffffa001 <STACK+0xfffe1931>
    68b4:	01d54f33          	xor	t5,a0,t4
    68b8:	010f1f93          	slli	t6,t5,0x10
    68bc:	010fd513          	srli	a0,t6,0x10

000068c0 <.L2559>:
}
    68c0:	40b2                	lw	ra,12(sp)
    68c2:	4422                	lw	s0,8(sp)
    68c4:	0141                	addi	sp,sp,16
    68c6:	8082                	ret

000068c8 <.L2609>:
                   crc |= 0x8000;
    68c8:	7f69                	lui	t5,0xffffa
    68ca:	001f0f93          	addi	t6,t5,1 # ffffa001 <STACK+0xfffe1931>
    68ce:	01f2c433          	xor	s0,t0,t6

000068d2 <.LVL2335>:
    68d2:	01041693          	slli	a3,s0,0x10
    68d6:	0106d293          	srli	t0,a3,0x10

000068da <.LVL2336>:
    68da:	bd6d                	j	6794 <.L2551>

000068dc <calc_func>:
ee_s16 calc_func(ee_s16 *pdata, core_results *res) {
    68dc:	1101                	addi	sp,sp,-32
    68de:	ca26                	sw	s1,20(sp)
        ee_s16 data=*pdata;
    68e0:	00051483          	lh	s1,0(a0)

000068e4 <.LVL2338>:
ee_s16 calc_func(ee_s16 *pdata, core_results *res) {
    68e4:	ce06                	sw	ra,28(sp)
    68e6:	cc22                	sw	s0,24(sp)
        ee_u8 optype=(data>>7) & 1; /* bit 7 indicates if the function result has been cached */
    68e8:	4074d793          	srai	a5,s1,0x7
ee_s16 calc_func(ee_s16 *pdata, core_results *res) {
    68ec:	c84a                	sw	s2,16(sp)
    68ee:	c64e                	sw	s3,12(sp)
        if (optype) /* if cached, use cache */
    68f0:	0017f093          	andi	ra,a5,1
    68f4:	00008b63          	beqz	ra,690a <.L2611>
}
    68f8:	40f2                	lw	ra,28(sp)
    68fa:	4462                	lw	s0,24(sp)
    68fc:	4942                	lw	s2,16(sp)
    68fe:	49b2                	lw	s3,12(sp)
                return (data & 0x007f);
    6900:	07f4f513          	andi	a0,s1,127

00006904 <.LVL2339>:
}
    6904:	44d2                	lw	s1,20(sp)

00006906 <.LVL2340>:
    6906:	6105                	addi	sp,sp,32
    6908:	8082                	ret

0000690a <.L2611>:
                ee_s16 dtype=((data>>3) & 0xf); /* bits 3-6 is specific data for the operation */
    690a:	4034d713          	srai	a4,s1,0x3
    690e:	00f77293          	andi	t0,a4,15
                dtype |= dtype << 4; /* replicate the lower 4 bits to get an 8b value */
    6912:	00429313          	slli	t1,t0,0x4
                ee_s16 flag=data & 0x7; /* bits 0-2 is type of function to perform */
    6916:	0074f693          	andi	a3,s1,7

0000691a <.LVL2342>:
                                retval=core_bench_state(res->size,res->memblock[3],res->seed1,res->seed2,dtype,res->crc);
    691a:	0385d403          	lhu	s0,56(a1)
    691e:	89aa                	mv	s3,a0
    6920:	892e                	mv	s2,a1
                dtype |= dtype << 4; /* replicate the lower 4 bits to get an 8b value */
    6922:	00536733          	or	a4,t1,t0

00006926 <.LVL2343>:
                switch (flag) {
    6926:	50068963          	beqz	a3,6e38 <.L2613>
    692a:	4505                	li	a0,1

0000692c <.LVL2344>:
    692c:	50a69163          	bne	a3,a0,6e2e <.L2747>

00006930 <.LBB1124>:
        crc=crc16(matrix_test(N,C,A,B,val),crc);
    6930:	5994                	lw	a3,48(a1)

00006932 <.LVL2346>:
    6932:	55d0                	lw	a2,44(a1)
    6934:	02892503          	lw	a0,40(s2)
    6938:	59cc                	lw	a1,52(a1)

0000693a <.LVL2347>:
    693a:	951fd0ef          	jal	ra,428a <matrix_test>

0000693e <.LBB1126>:
                x16 = (ee_u8)((data & 1) ^ ((ee_u8)crc & 1));
    693e:	00a445b3          	xor	a1,s0,a0

00006942 <.LBE1130>:
        crc=crcu8( (ee_u8) (newval)                             ,crc);
    6942:	0ff57893          	andi	a7,a0,255

00006946 <.LBE1128>:
        return crcu16((ee_u16)newval, crc);
    6946:	01051e93          	slli	t4,a0,0x10

0000694a <.LBB1134>:
                if (x16 == 1)
    694a:	0015fe13          	andi	t3,a1,1

0000694e <.LBE1134>:
        return crcu16((ee_u16)newval, crc);
    694e:	010edf13          	srli	t5,t4,0x10

00006952 <.LBB1135>:
                data >>= 1;
    6952:	0018df93          	srli	t6,a7,0x1

00006956 <.LVL2350>:
                crc >>= 1;
    6956:	00145313          	srli	t1,s0,0x1
                if (x16 == 1)
    695a:	000e0b63          	beqz	t3,6970 <.L2618>

0000695e <.LVL2351>:
                   crc |= 0x8000;
    695e:	70e9                	lui	ra,0xffffa
    6960:	00108713          	addi	a4,ra,1 # ffffa001 <STACK+0xfffe1931>
    6964:	00e347b3          	xor	a5,t1,a4

00006968 <.LVL2352>:
    6968:	01079293          	slli	t0,a5,0x10
    696c:	0102d313          	srli	t1,t0,0x10

00006970 <.L2618>:
                x16 = (ee_u8)((data & 1) ^ ((ee_u8)crc & 1));
    6970:	01f346b3          	xor	a3,t1,t6
                if (x16 == 1)
    6974:	0016f393          	andi	t2,a3,1
                data >>= 1;
    6978:	0028d813          	srli	a6,a7,0x2

0000697c <.LVL2354>:
                crc >>= 1;
    697c:	00135e13          	srli	t3,t1,0x1
                if (x16 == 1)
    6980:	00038b63          	beqz	t2,6996 <.L2619>

00006984 <.LVL2355>:
                   crc |= 0x8000;
    6984:	7669                	lui	a2,0xffffa
    6986:	00160413          	addi	s0,a2,1 # ffffa001 <STACK+0xfffe1931>

0000698a <.LVL2356>:
    698a:	008e4533          	xor	a0,t3,s0

0000698e <.LVL2357>:
    698e:	01051593          	slli	a1,a0,0x10
    6992:	0105de13          	srli	t3,a1,0x10

00006996 <.L2619>:
                x16 = (ee_u8)((data & 1) ^ ((ee_u8)crc & 1));
    6996:	010e4eb3          	xor	t4,t3,a6
                if (x16 == 1)
    699a:	001eff93          	andi	t6,t4,1
                data >>= 1;
    699e:	0038d093          	srli	ra,a7,0x3

000069a2 <.LVL2359>:
                crc >>= 1;
    69a2:	001e5693          	srli	a3,t3,0x1
                if (x16 == 1)
    69a6:	000f8b63          	beqz	t6,69bc <.L2620>

000069aa <.LVL2360>:
                   crc |= 0x8000;
    69aa:	7769                	lui	a4,0xffffa
    69ac:	00170293          	addi	t0,a4,1 # ffffa001 <STACK+0xfffe1931>
    69b0:	0056c7b3          	xor	a5,a3,t0

000069b4 <.LVL2361>:
    69b4:	01079313          	slli	t1,a5,0x10
    69b8:	01035693          	srli	a3,t1,0x10

000069bc <.L2620>:
                x16 = (ee_u8)((data & 1) ^ ((ee_u8)crc & 1));
    69bc:	0016c3b3          	xor	t2,a3,ra
                if (x16 == 1)
    69c0:	0013f813          	andi	a6,t2,1
                data >>= 1;
    69c4:	0048d613          	srli	a2,a7,0x4

000069c8 <.LVL2363>:
                crc >>= 1;
    69c8:	0016de93          	srli	t4,a3,0x1
                if (x16 == 1)
    69cc:	00080b63          	beqz	a6,69e2 <.L2621>

000069d0 <.LVL2364>:
                   crc |= 0x8000;
    69d0:	7469                	lui	s0,0xffffa
    69d2:	00140513          	addi	a0,s0,1 # ffffa001 <STACK+0xfffe1931>
    69d6:	00aec5b3          	xor	a1,t4,a0

000069da <.LVL2365>:
    69da:	01059e13          	slli	t3,a1,0x10
    69de:	010e5e93          	srli	t4,t3,0x10

000069e2 <.L2621>:
                x16 = (ee_u8)((data & 1) ^ ((ee_u8)crc & 1));
    69e2:	00cecfb3          	xor	t6,t4,a2
                if (x16 == 1)
    69e6:	001ff093          	andi	ra,t6,1
                data >>= 1;
    69ea:	0058d713          	srli	a4,a7,0x5

000069ee <.LVL2367>:
                crc >>= 1;
    69ee:	001ed393          	srli	t2,t4,0x1
                if (x16 == 1)
    69f2:	00008b63          	beqz	ra,6a08 <.L2622>

000069f6 <.LVL2368>:
                   crc |= 0x8000;
    69f6:	72e9                	lui	t0,0xffffa
    69f8:	00128313          	addi	t1,t0,1 # ffffa001 <STACK+0xfffe1931>
    69fc:	0063c7b3          	xor	a5,t2,t1

00006a00 <.LVL2369>:
    6a00:	01079693          	slli	a3,a5,0x10
    6a04:	0106d393          	srli	t2,a3,0x10

00006a08 <.L2622>:
                x16 = (ee_u8)((data & 1) ^ ((ee_u8)crc & 1));
    6a08:	00e3c833          	xor	a6,t2,a4
                if (x16 == 1)
    6a0c:	00187413          	andi	s0,a6,1
                data >>= 1;
    6a10:	0068d613          	srli	a2,a7,0x6

00006a14 <.LVL2371>:
                crc >>= 1;
    6a14:	0013df93          	srli	t6,t2,0x1
                if (x16 == 1)
    6a18:	c811                	beqz	s0,6a2c <.L2623>

00006a1a <.LVL2372>:
                   crc |= 0x8000;
    6a1a:	7569                	lui	a0,0xffffa
    6a1c:	00150593          	addi	a1,a0,1 # ffffa001 <STACK+0xfffe1931>
    6a20:	00bfce33          	xor	t3,t6,a1

00006a24 <.LVL2373>:
    6a24:	010e1e93          	slli	t4,t3,0x10
    6a28:	010edf93          	srli	t6,t4,0x10

00006a2c <.L2623>:
                x16 = (ee_u8)((data & 1) ^ ((ee_u8)crc & 1));
    6a2c:	00cfc0b3          	xor	ra,t6,a2
                if (x16 == 1)
    6a30:	0010f713          	andi	a4,ra,1
                data >>= 1;
    6a34:	0078d893          	srli	a7,a7,0x7

00006a38 <.LVL2375>:
                crc >>= 1;
    6a38:	001fd393          	srli	t2,t6,0x1
                if (x16 == 1)
    6a3c:	cb11                	beqz	a4,6a50 <.L2624>

00006a3e <.LVL2376>:
                   crc |= 0x8000;
    6a3e:	72e9                	lui	t0,0xffffa
    6a40:	00128313          	addi	t1,t0,1 # ffffa001 <STACK+0xfffe1931>
    6a44:	0063c7b3          	xor	a5,t2,t1

00006a48 <.LVL2377>:
    6a48:	01079693          	slli	a3,a5,0x10
    6a4c:	0106d393          	srli	t2,a3,0x10

00006a50 <.L2624>:
                if (x16 == 1)
    6a50:	0013f813          	andi	a6,t2,1
                crc >>= 1;
    6a54:	0013de13          	srli	t3,t2,0x1
                if (x16 == 1)
    6a58:	01180b63          	beq	a6,a7,6a6e <.L2625>

00006a5c <.LVL2379>:
                   crc |= 0x8000;
    6a5c:	7469                	lui	s0,0xffffa
    6a5e:	00140613          	addi	a2,s0,1 # ffffa001 <STACK+0xfffe1931>
    6a62:	00ce4533          	xor	a0,t3,a2

00006a66 <.LVL2380>:
    6a66:	01051593          	slli	a1,a0,0x10
    6a6a:	0105de13          	srli	t3,a1,0x10

00006a6e <.L2625>:
        crc=crcu8( (ee_u8) ((newval)>>8)        ,crc);
    6a6e:	008f5e93          	srli	t4,t5,0x8

00006a72 <.LBB1136>:
                x16 = (ee_u8)((data & 1) ^ ((ee_u8)crc & 1));
    6a72:	01de4fb3          	xor	t6,t3,t4
                if (x16 == 1)
    6a76:	001ff093          	andi	ra,t6,1

00006a7a <.LBE1136>:
        crc=crcu8( (ee_u8) ((newval)>>8)        ,crc);
    6a7a:	008f5893          	srli	a7,t5,0x8

00006a7e <.LBB1139>:
                data >>= 1;
    6a7e:	001e5693          	srli	a3,t3,0x1
    6a82:	009f5f13          	srli	t5,t5,0x9

00006a86 <.LVL2383>:
                if (x16 == 1)
    6a86:	00008b63          	beqz	ra,6a9c <.L2626>

00006a8a <.LVL2384>:
                   crc |= 0x8000;
    6a8a:	7769                	lui	a4,0xffffa
    6a8c:	00170293          	addi	t0,a4,1 # ffffa001 <STACK+0xfffe1931>
    6a90:	0056c333          	xor	t1,a3,t0

00006a94 <.LVL2385>:
    6a94:	01031793          	slli	a5,t1,0x10
    6a98:	0107d693          	srli	a3,a5,0x10

00006a9c <.L2626>:
                x16 = (ee_u8)((data & 1) ^ ((ee_u8)crc & 1));
    6a9c:	01e6c3b3          	xor	t2,a3,t5
                if (x16 == 1)
    6aa0:	0013f813          	andi	a6,t2,1
                data >>= 1;
    6aa4:	0028d413          	srli	s0,a7,0x2

00006aa8 <.LVL2387>:
                if (x16 == 1)
    6aa8:	0016de93          	srli	t4,a3,0x1
    6aac:	00080b63          	beqz	a6,6ac2 <.L2627>

00006ab0 <.LVL2388>:
                   crc |= 0x8000;
    6ab0:	7669                	lui	a2,0xffffa
    6ab2:	00160513          	addi	a0,a2,1 # ffffa001 <STACK+0xfffe1931>
    6ab6:	00aec5b3          	xor	a1,t4,a0

00006aba <.LVL2389>:
    6aba:	01059e13          	slli	t3,a1,0x10
    6abe:	010e5e93          	srli	t4,t3,0x10

00006ac2 <.L2627>:
                x16 = (ee_u8)((data & 1) ^ ((ee_u8)crc & 1));
    6ac2:	008ecfb3          	xor	t6,t4,s0
                if (x16 == 1)
    6ac6:	001ff093          	andi	ra,t6,1
                data >>= 1;
    6aca:	0038df13          	srli	t5,a7,0x3

00006ace <.LVL2391>:
                if (x16 == 1)
    6ace:	001ed693          	srli	a3,t4,0x1
    6ad2:	00008b63          	beqz	ra,6ae8 <.L2628>

00006ad6 <.LVL2392>:
                   crc |= 0x8000;
    6ad6:	7769                	lui	a4,0xffffa
    6ad8:	00170293          	addi	t0,a4,1 # ffffa001 <STACK+0xfffe1931>
    6adc:	0056c333          	xor	t1,a3,t0

00006ae0 <.LVL2393>:
    6ae0:	01031793          	slli	a5,t1,0x10
    6ae4:	0107d693          	srli	a3,a5,0x10

00006ae8 <.L2628>:
                x16 = (ee_u8)((data & 1) ^ ((ee_u8)crc & 1));
    6ae8:	01e6c3b3          	xor	t2,a3,t5
                if (x16 == 1)
    6aec:	0013f813          	andi	a6,t2,1
                data >>= 1;
    6af0:	0048d413          	srli	s0,a7,0x4

00006af4 <.LVL2395>:
                if (x16 == 1)
    6af4:	0016de93          	srli	t4,a3,0x1
    6af8:	00080b63          	beqz	a6,6b0e <.L2629>

00006afc <.LVL2396>:
                   crc |= 0x8000;
    6afc:	7669                	lui	a2,0xffffa
    6afe:	00160513          	addi	a0,a2,1 # ffffa001 <STACK+0xfffe1931>
    6b02:	00aec5b3          	xor	a1,t4,a0

00006b06 <.LVL2397>:
    6b06:	01059e13          	slli	t3,a1,0x10
    6b0a:	010e5e93          	srli	t4,t3,0x10

00006b0e <.L2629>:
                x16 = (ee_u8)((data & 1) ^ ((ee_u8)crc & 1));
    6b0e:	008ecfb3          	xor	t6,t4,s0
                if (x16 == 1)
    6b12:	001ff093          	andi	ra,t6,1
                data >>= 1;
    6b16:	0058df13          	srli	t5,a7,0x5

00006b1a <.LVL2399>:
                if (x16 == 1)
    6b1a:	001ed693          	srli	a3,t4,0x1
    6b1e:	00008b63          	beqz	ra,6b34 <.L2630>

00006b22 <.LVL2400>:
                   crc |= 0x8000;
    6b22:	7769                	lui	a4,0xffffa
    6b24:	00170293          	addi	t0,a4,1 # ffffa001 <STACK+0xfffe1931>
    6b28:	0056c333          	xor	t1,a3,t0

00006b2c <.LVL2401>:
    6b2c:	01031793          	slli	a5,t1,0x10
    6b30:	0107d693          	srli	a3,a5,0x10

00006b34 <.L2630>:
                x16 = (ee_u8)((data & 1) ^ ((ee_u8)crc & 1));
    6b34:	01e6c3b3          	xor	t2,a3,t5
                if (x16 == 1)
    6b38:	0013f813          	andi	a6,t2,1
                data >>= 1;
    6b3c:	0068d413          	srli	s0,a7,0x6

00006b40 <.LVL2403>:
                if (x16 == 1)
    6b40:	0016de93          	srli	t4,a3,0x1
    6b44:	00080b63          	beqz	a6,6b5a <.L2631>

00006b48 <.LVL2404>:
                   crc |= 0x8000;
    6b48:	7669                	lui	a2,0xffffa
    6b4a:	00160513          	addi	a0,a2,1 # ffffa001 <STACK+0xfffe1931>
    6b4e:	00aec5b3          	xor	a1,t4,a0

00006b52 <.LVL2405>:
    6b52:	01059e13          	slli	t3,a1,0x10
    6b56:	010e5e93          	srli	t4,t3,0x10

00006b5a <.L2631>:
                x16 = (ee_u8)((data & 1) ^ ((ee_u8)crc & 1));
    6b5a:	008ecfb3          	xor	t6,t4,s0
                if (x16 == 1)
    6b5e:	001ff093          	andi	ra,t6,1
                data >>= 1;
    6b62:	0078d893          	srli	a7,a7,0x7

00006b66 <.LVL2407>:
                if (x16 == 1)
    6b66:	001ed793          	srli	a5,t4,0x1
    6b6a:	00008b63          	beqz	ra,6b80 <.L2632>

00006b6e <.LVL2408>:
                   crc |= 0x8000;
    6b6e:	7f69                	lui	t5,0xffffa
    6b70:	001f0713          	addi	a4,t5,1 # ffffa001 <STACK+0xfffe1931>
    6b74:	00e7c2b3          	xor	t0,a5,a4

00006b78 <.LVL2409>:
    6b78:	01029313          	slli	t1,t0,0x10
    6b7c:	01035793          	srli	a5,t1,0x10

00006b80 <.L2632>:
                if (x16 == 1)
    6b80:	0017f693          	andi	a3,a5,1
    6b84:	0017d513          	srli	a0,a5,0x1
    6b88:	01168b63          	beq	a3,a7,6b9e <.L2633>

00006b8c <.LVL2411>:
                   crc |= 0x8000;
    6b8c:	73e9                	lui	t2,0xffffa
    6b8e:	00138813          	addi	a6,t2,1 # ffffa001 <STACK+0xfffe1931>
    6b92:	01054433          	xor	s0,a0,a6
    6b96:	01041613          	slli	a2,s0,0x10
    6b9a:	01065513          	srli	a0,a2,0x10

00006b9e <.L2633>:
                                if (res->crcmatrix==0)
    6b9e:	03c95583          	lhu	a1,60(s2)
                                retval=core_bench_matrix(&(res->mat),dtype,res->crc);
    6ba2:	01051e13          	slli	t3,a0,0x10
                res->crc=crcu16(retval,res->crc);
    6ba6:	03895403          	lhu	s0,56(s2)
                                retval=core_bench_matrix(&(res->mat),dtype,res->crc);
    6baa:	410e5e93          	srai	t4,t3,0x10

00006bae <.LVL2413>:
                                if (res->crcmatrix==0)
    6bae:	e199                	bnez	a1,6bb4 <.L2615>
                                        res->crcmatrix=retval;
    6bb0:	02a91e23          	sh	a0,60(s2)

00006bb4 <.L2615>:
                x16 = (ee_u8)((data & 1) ^ ((ee_u8)crc & 1));
    6bb4:	008ecfb3          	xor	t6,t4,s0

00006bb8 <.LBE1146>:
        crc=crcu8( (ee_u8) (newval)                             ,crc);
    6bb8:	0ffef093          	andi	ra,t4,255

00006bbc <.LBB1149>:
                if (x16 == 1)
    6bbc:	001ff893          	andi	a7,t6,1
                data >>= 1;
    6bc0:	0010df13          	srli	t5,ra,0x1

00006bc4 <.LVL2416>:
                if (x16 == 1)
    6bc4:	00145393          	srli	t2,s0,0x1
    6bc8:	00088b63          	beqz	a7,6bde <.L2634>

00006bcc <.LVL2417>:
                   crc |= 0x8000;
    6bcc:	7769                	lui	a4,0xffffa
    6bce:	00170293          	addi	t0,a4,1 # ffffa001 <STACK+0xfffe1931>
    6bd2:	0053c333          	xor	t1,t2,t0

00006bd6 <.LVL2418>:
    6bd6:	01031793          	slli	a5,t1,0x10
    6bda:	0107d393          	srli	t2,a5,0x10

00006bde <.L2634>:
                x16 = (ee_u8)((data & 1) ^ ((ee_u8)crc & 1));
    6bde:	007f46b3          	xor	a3,t5,t2
                if (x16 == 1)
    6be2:	0016f813          	andi	a6,a3,1
                data >>= 1;
    6be6:	0020d613          	srli	a2,ra,0x2

00006bea <.LVL2420>:
                if (x16 == 1)
    6bea:	0013d893          	srli	a7,t2,0x1
    6bee:	00080b63          	beqz	a6,6c04 <.L2635>

00006bf2 <.LVL2421>:
                   crc |= 0x8000;
    6bf2:	75e9                	lui	a1,0xffffa
    6bf4:	00158413          	addi	s0,a1,1 # ffffa001 <STACK+0xfffe1931>
    6bf8:	0088ce33          	xor	t3,a7,s0

00006bfc <.LVL2422>:
    6bfc:	010e1f93          	slli	t6,t3,0x10
    6c00:	010fd893          	srli	a7,t6,0x10

00006c04 <.L2635>:
                x16 = (ee_u8)((data & 1) ^ ((ee_u8)crc & 1));
    6c04:	01164f33          	xor	t5,a2,a7
                if (x16 == 1)
    6c08:	001f7713          	andi	a4,t5,1
                data >>= 1;
    6c0c:	0030d293          	srli	t0,ra,0x3

00006c10 <.LVL2424>:
                if (x16 == 1)
    6c10:	0018d813          	srli	a6,a7,0x1
    6c14:	cb11                	beqz	a4,6c28 <.L2636>

00006c16 <.LVL2425>:
                   crc |= 0x8000;
    6c16:	7369                	lui	t1,0xffffa
    6c18:	00130393          	addi	t2,t1,1 # ffffa001 <STACK+0xfffe1931>
    6c1c:	007847b3          	xor	a5,a6,t2

00006c20 <.LVL2426>:
    6c20:	01079693          	slli	a3,a5,0x10
    6c24:	0106d813          	srli	a6,a3,0x10

00006c28 <.L2636>:
                x16 = (ee_u8)((data & 1) ^ ((ee_u8)crc & 1));
    6c28:	0102c633          	xor	a2,t0,a6
                if (x16 == 1)
    6c2c:	00167593          	andi	a1,a2,1
                data >>= 1;
    6c30:	0040d413          	srli	s0,ra,0x4

00006c34 <.LVL2428>:
                if (x16 == 1)
    6c34:	00185713          	srli	a4,a6,0x1
    6c38:	c991                	beqz	a1,6c4c <.L2637>

00006c3a <.LVL2429>:
                   crc |= 0x8000;
    6c3a:	7e69                	lui	t3,0xffffa
    6c3c:	001e0f93          	addi	t6,t3,1 # ffffa001 <STACK+0xfffe1931>
    6c40:	01f748b3          	xor	a7,a4,t6

00006c44 <.LVL2430>:
    6c44:	01089f13          	slli	t5,a7,0x10
    6c48:	010f5713          	srli	a4,t5,0x10

00006c4c <.L2637>:
                x16 = (ee_u8)((data & 1) ^ ((ee_u8)crc & 1));
    6c4c:	00e442b3          	xor	t0,s0,a4
                if (x16 == 1)
    6c50:	0012f313          	andi	t1,t0,1
                data >>= 1;
    6c54:	0050d393          	srli	t2,ra,0x5

00006c58 <.LVL2432>:
                if (x16 == 1)
    6c58:	00175413          	srli	s0,a4,0x1
    6c5c:	00030b63          	beqz	t1,6c72 <.L2638>

00006c60 <.LVL2433>:
                   crc |= 0x8000;
    6c60:	76e9                	lui	a3,0xffffa
    6c62:	00168813          	addi	a6,a3,1 # ffffa001 <STACK+0xfffe1931>
    6c66:	010447b3          	xor	a5,s0,a6

00006c6a <.LVL2434>:
    6c6a:	01079613          	slli	a2,a5,0x10
    6c6e:	01065413          	srli	s0,a2,0x10

00006c72 <.L2638>:
                x16 = (ee_u8)((data & 1) ^ ((ee_u8)crc & 1));
    6c72:	007445b3          	xor	a1,s0,t2
                if (x16 == 1)
    6c76:	0015fe13          	andi	t3,a1,1
                data >>= 1;
    6c7a:	0060df93          	srli	t6,ra,0x6

00006c7e <.LVL2436>:
                if (x16 == 1)
    6c7e:	00145313          	srli	t1,s0,0x1
    6c82:	000e0b63          	beqz	t3,6c98 <.L2639>

00006c86 <.LVL2437>:
                   crc |= 0x8000;
    6c86:	78e9                	lui	a7,0xffffa
    6c88:	00188f13          	addi	t5,a7,1 # ffffa001 <STACK+0xfffe1931>
    6c8c:	01e34733          	xor	a4,t1,t5

00006c90 <.LVL2438>:
    6c90:	01071293          	slli	t0,a4,0x10
    6c94:	0102d313          	srli	t1,t0,0x10

00006c98 <.L2639>:
                x16 = (ee_u8)((data & 1) ^ ((ee_u8)crc & 1));
    6c98:	01f343b3          	xor	t2,t1,t6
                if (x16 == 1)
    6c9c:	0013f693          	andi	a3,t2,1
                data >>= 1;
    6ca0:	0070d093          	srli	ra,ra,0x7

00006ca4 <.LVL2440>:
                if (x16 == 1)
    6ca4:	00135593          	srli	a1,t1,0x1
    6ca8:	ca91                	beqz	a3,6cbc <.L2640>

00006caa <.LVL2441>:
                   crc |= 0x8000;
    6caa:	7869                	lui	a6,0xffffa
    6cac:	00180613          	addi	a2,a6,1 # ffffa001 <STACK+0xfffe1931>
    6cb0:	00c5c7b3          	xor	a5,a1,a2

00006cb4 <.LVL2442>:
    6cb4:	01079413          	slli	s0,a5,0x10
    6cb8:	01045593          	srli	a1,s0,0x10

00006cbc <.L2640>:
                if (x16 == 1)
    6cbc:	0015fe13          	andi	t3,a1,1
    6cc0:	0015d293          	srli	t0,a1,0x1
    6cc4:	001e0b63          	beq	t3,ra,6cda <.L2641>

00006cc8 <.LVL2444>:
                   crc |= 0x8000;
    6cc8:	7fe9                	lui	t6,0xffffa
    6cca:	001f8893          	addi	a7,t6,1 # ffffa001 <STACK+0xfffe1931>
    6cce:	0112cf33          	xor	t5,t0,a7

00006cd2 <.LVL2445>:
    6cd2:	010f1713          	slli	a4,t5,0x10
    6cd6:	01075293          	srli	t0,a4,0x10

00006cda <.L2641>:
        crc=crcu8( (ee_u8) ((newval)>>8)        ,crc);
    6cda:	8121                	srli	a0,a0,0x8

00006cdc <.LBB1150>:
                x16 = (ee_u8)((data & 1) ^ ((ee_u8)crc & 1));
    6cdc:	00554333          	xor	t1,a0,t0

00006ce0 <.LBE1150>:
        crc=crcu8( (ee_u8) ((newval)>>8)        ,crc);
    6ce0:	0ff57393          	andi	t2,a0,255

00006ce4 <.LBB1153>:
                if (x16 == 1)
    6ce4:	00137693          	andi	a3,t1,1
                data >>= 1;
    6ce8:	0013d093          	srli	ra,t2,0x1

00006cec <.LVL2448>:
                if (x16 == 1)
    6cec:	0012de13          	srli	t3,t0,0x1
    6cf0:	ca91                	beqz	a3,6d04 <.L2642>

00006cf2 <.LVL2449>:
                   crc |= 0x8000;
    6cf2:	7869                	lui	a6,0xffffa
    6cf4:	00180613          	addi	a2,a6,1 # ffffa001 <STACK+0xfffe1931>
    6cf8:	00ce47b3          	xor	a5,t3,a2

00006cfc <.LVL2450>:
    6cfc:	01079413          	slli	s0,a5,0x10
    6d00:	01045e13          	srli	t3,s0,0x10

00006d04 <.L2642>:
                x16 = (ee_u8)((data & 1) ^ ((ee_u8)crc & 1));
    6d04:	001e45b3          	xor	a1,t3,ra
                if (x16 == 1)
    6d08:	0015ff93          	andi	t6,a1,1
                data >>= 1;
    6d0c:	0023d893          	srli	a7,t2,0x2

00006d10 <.LVL2452>:
                if (x16 == 1)
    6d10:	001e5313          	srli	t1,t3,0x1
    6d14:	000f8b63          	beqz	t6,6d2a <.L2643>

00006d18 <.LVL2453>:
                   crc |= 0x8000;
    6d18:	7f69                	lui	t5,0xffffa
    6d1a:	001f0713          	addi	a4,t5,1 # ffffa001 <STACK+0xfffe1931>
    6d1e:	00e342b3          	xor	t0,t1,a4

00006d22 <.LVL2454>:
    6d22:	01029513          	slli	a0,t0,0x10
    6d26:	01055313          	srli	t1,a0,0x10

00006d2a <.L2643>:
                x16 = (ee_u8)((data & 1) ^ ((ee_u8)crc & 1));
    6d2a:	0068c6b3          	xor	a3,a7,t1
                if (x16 == 1)
    6d2e:	0016f093          	andi	ra,a3,1
                data >>= 1;
    6d32:	0033d813          	srli	a6,t2,0x3

00006d36 <.LVL2456>:
                if (x16 == 1)
    6d36:	00135f93          	srli	t6,t1,0x1
    6d3a:	00008b63          	beqz	ra,6d50 <.L2644>

00006d3e <.LVL2457>:
                   crc |= 0x8000;
    6d3e:	7669                	lui	a2,0xffffa
    6d40:	00160413          	addi	s0,a2,1 # ffffa001 <STACK+0xfffe1931>
    6d44:	008fc7b3          	xor	a5,t6,s0

00006d48 <.LVL2458>:
    6d48:	01079e13          	slli	t3,a5,0x10
    6d4c:	010e5f93          	srli	t6,t3,0x10

00006d50 <.L2644>:
                x16 = (ee_u8)((data & 1) ^ ((ee_u8)crc & 1));
    6d50:	01f845b3          	xor	a1,a6,t6
                if (x16 == 1)
    6d54:	0015f893          	andi	a7,a1,1
                data >>= 1;
    6d58:	0043df13          	srli	t5,t2,0x4

00006d5c <.LVL2460>:
                if (x16 == 1)
    6d5c:	001fd693          	srli	a3,t6,0x1
    6d60:	00088b63          	beqz	a7,6d76 <.L2645>

00006d64 <.LVL2461>:
                   crc |= 0x8000;
    6d64:	7769                	lui	a4,0xffffa
    6d66:	00170293          	addi	t0,a4,1 # ffffa001 <STACK+0xfffe1931>
    6d6a:	0056c533          	xor	a0,a3,t0

00006d6e <.LVL2462>:
    6d6e:	01051313          	slli	t1,a0,0x10
    6d72:	01035693          	srli	a3,t1,0x10

00006d76 <.L2645>:
                x16 = (ee_u8)((data & 1) ^ ((ee_u8)crc & 1));
    6d76:	01e6c0b3          	xor	ra,a3,t5
                if (x16 == 1)
    6d7a:	0010f813          	andi	a6,ra,1
                data >>= 1;
    6d7e:	0053d413          	srli	s0,t2,0x5

00006d82 <.LVL2464>:
                if (x16 == 1)
    6d82:	0016d893          	srli	a7,a3,0x1
    6d86:	00080b63          	beqz	a6,6d9c <.L2646>

00006d8a <.LVL2465>:
                   crc |= 0x8000;
    6d8a:	7669                	lui	a2,0xffffa
    6d8c:	00160e13          	addi	t3,a2,1 # ffffa001 <STACK+0xfffe1931>
    6d90:	01c8c7b3          	xor	a5,a7,t3

00006d94 <.LVL2466>:
    6d94:	01079f93          	slli	t6,a5,0x10
    6d98:	010fd893          	srli	a7,t6,0x10

00006d9c <.L2646>:
                x16 = (ee_u8)((data & 1) ^ ((ee_u8)crc & 1));
    6d9c:	0088c5b3          	xor	a1,a7,s0
                if (x16 == 1)
    6da0:	0015ff13          	andi	t5,a1,1
                data >>= 1;
    6da4:	0063d713          	srli	a4,t2,0x6

00006da8 <.LVL2468>:
                if (x16 == 1)
    6da8:	0018d093          	srli	ra,a7,0x1
    6dac:	000f0b63          	beqz	t5,6dc2 <.L2647>

00006db0 <.LVL2469>:
                   crc |= 0x8000;
    6db0:	72e9                	lui	t0,0xffffa
    6db2:	00128513          	addi	a0,t0,1 # ffffa001 <STACK+0xfffe1931>
    6db6:	00a0c333          	xor	t1,ra,a0

00006dba <.LVL2470>:
    6dba:	01031693          	slli	a3,t1,0x10
    6dbe:	0106d093          	srli	ra,a3,0x10

00006dc2 <.L2647>:
                x16 = (ee_u8)((data & 1) ^ ((ee_u8)crc & 1));
    6dc2:	00e0c833          	xor	a6,ra,a4
                if (x16 == 1)
    6dc6:	00187413          	andi	s0,a6,1
                data >>= 1;
    6dca:	0073d393          	srli	t2,t2,0x7

00006dce <.LVL2472>:
                if (x16 == 1)
    6dce:	0010d893          	srli	a7,ra,0x1
    6dd2:	c811                	beqz	s0,6de6 <.L2648>

00006dd4 <.LVL2473>:
                   crc |= 0x8000;
    6dd4:	7669                	lui	a2,0xffffa
    6dd6:	00160e13          	addi	t3,a2,1 # ffffa001 <STACK+0xfffe1931>
    6dda:	01c8c7b3          	xor	a5,a7,t3

00006dde <.LVL2474>:
    6dde:	01079f93          	slli	t6,a5,0x10
    6de2:	010fd893          	srli	a7,t6,0x10

00006de6 <.L2648>:
                x16 = (ee_u8)((data & 1) ^ ((ee_u8)crc & 1));
    6de6:	0113c5b3          	xor	a1,t2,a7
                if (x16 == 1)
    6dea:	0015ff13          	andi	t5,a1,1
    6dee:	0018d693          	srli	a3,a7,0x1
    6df2:	000f0b63          	beqz	t5,6e08 <.L2649>

00006df6 <.LVL2476>:
                   crc |= 0x8000;
    6df6:	7769                	lui	a4,0xffffa
    6df8:	00170293          	addi	t0,a4,1 # ffffa001 <STACK+0xfffe1931>
    6dfc:	0056c533          	xor	a0,a3,t0
    6e00:	01051313          	slli	t1,a0,0x10
    6e04:	01035693          	srli	a3,t1,0x10

00006e08 <.L2649>:
                retval &= 0x007f;
    6e08:	07fef513          	andi	a0,t4,127
                *pdata = (data & 0xff00) | 0x0080 | retval; /* cache the result */
    6e0c:	f004f493          	andi	s1,s1,-256

00006e10 <.LBE1123>:
}
    6e10:	40f2                	lw	ra,28(sp)
    6e12:	4462                	lw	s0,24(sp)

00006e14 <.LBB1154>:
                *pdata = (data & 0xff00) | 0x0080 | retval; /* cache the result */
    6e14:	00956eb3          	or	t4,a0,s1

00006e18 <.LVL2479>:
                res->crc=crcu16(retval,res->crc);
    6e18:	02d91c23          	sh	a3,56(s2)

00006e1c <.LVL2480>:
                *pdata = (data & 0xff00) | 0x0080 | retval; /* cache the result */
    6e1c:	080ee913          	ori	s2,t4,128

00006e20 <.LVL2481>:
    6e20:	01299023          	sh	s2,0(s3)

00006e24 <.LBE1154>:
}
    6e24:	44d2                	lw	s1,20(sp)
    6e26:	4942                	lw	s2,16(sp)
    6e28:	49b2                	lw	s3,12(sp)

00006e2a <.LVL2482>:
    6e2a:	6105                	addi	sp,sp,32
    6e2c:	8082                	ret

00006e2e <.L2747>:
                res->crc=crcu16(retval,res->crc);
    6e2e:	01049513          	slli	a0,s1,0x10
    6e32:	8141                	srli	a0,a0,0x10
    6e34:	8ea6                	mv	t4,s1
    6e36:	bbbd                	j	6bb4 <.L2615>

00006e38 <.L2613>:
                                retval=core_bench_state(res->size,res->memblock[3],res->seed1,res->seed2,dtype,res->crc);
    6e38:	02200393          	li	t2,34
    6e3c:	883a                	mv	a6,a4
    6e3e:	00775463          	bge	a4,t2,6e46 <.L2616>
    6e42:	02200813          	li	a6,34

00006e46 <.L2616>:
    6e46:	00091603          	lh	a2,0(s2)
    6e4a:	00291683          	lh	a3,2(s2)

00006e4e <.LVL2485>:
    6e4e:	01492583          	lw	a1,20(s2)

00006e52 <.LVL2486>:
    6e52:	01892503          	lw	a0,24(s2)

00006e56 <.LVL2487>:
    6e56:	87a2                	mv	a5,s0
    6e58:	0ff87713          	andi	a4,a6,255

00006e5c <.LVL2488>:
    6e5c:	8e4fc0ef          	jal	ra,2f40 <core_bench_state>

00006e60 <.LVL2489>:
                                if (res->crcstate==0)
    6e60:	03e95603          	lhu	a2,62(s2)
                                retval=core_bench_state(res->size,res->memblock[3],res->seed1,res->seed2,dtype,res->crc);
    6e64:	01051413          	slli	s0,a0,0x10
    6e68:	41045e93          	srai	t4,s0,0x10

00006e6c <.LVL2490>:
                res->crc=crcu16(retval,res->crc);
    6e6c:	03895403          	lhu	s0,56(s2)
                                if (res->crcstate==0)
    6e70:	d40612e3          	bnez	a2,6bb4 <.L2615>
                                        res->crcstate=retval;
    6e74:	02a91f23          	sh	a0,62(s2)
    6e78:	bb35                	j	6bb4 <.L2615>

00006e7a <core_list_mergesort.constprop.1>:
list_head *core_list_mergesort(list_head *list, list_cmp cmp, core_results *res) {
    6e7a:	7139                	addi	sp,sp,-64
    6e7c:	dc22                	sw	s0,56(sp)
    6e7e:	ce5e                	sw	s7,28(sp)
    6e80:	ca66                	sw	s9,20(sp)
    6e82:	c86a                	sw	s10,16(sp)
    6e84:	de06                	sw	ra,60(sp)
    6e86:	da26                	sw	s1,52(sp)
    6e88:	d84a                	sw	s2,48(sp)
    6e8a:	d64e                	sw	s3,44(sp)
    6e8c:	d452                	sw	s4,40(sp)
    6e8e:	d256                	sw	s5,36(sp)
    6e90:	d05a                	sw	s6,32(sp)
    6e92:	cc62                	sw	s8,24(sp)
    6e94:	c66e                	sw	s11,12(sp)
    6e96:	842a                	mv	s0,a0
    6e98:	8d2e                	mv	s10,a1
    insize = 1;
    6e9a:	4b85                	li	s7,1
        if (nmerges <= 1)   /* allow for nmerges==0, the empty list case */
    6e9c:	4c85                	li	s9,1

00006e9e <.L2765>:
        while (p) {
    6e9e:	10040a63          	beqz	s0,6fb2 <.L2749>
        tail = NULL;
    6ea2:	4481                	li	s1,0
        list = NULL;
    6ea4:	4b01                	li	s6,0
        nmerges = 0;  /* count number of merges we do in this pass */
    6ea6:	4c01                	li	s8,0

00006ea8 <.L2763>:
            nmerges++;  /* there exists a merge to be done */
    6ea8:	007bf713          	andi	a4,s7,7
    6eac:	0c05                	addi	s8,s8,1

00006eae <.LVL2494>:
    6eae:	87a2                	mv	a5,s0
            psize = 0;
    6eb0:	4901                	li	s2,0
    6eb2:	cb31                	beqz	a4,6f06 <.L2752>
    6eb4:	4685                	li	a3,1
    6eb6:	04d70363          	beq	a4,a3,6efc <.L2806>
    6eba:	4089                	li	ra,2
    6ebc:	02170d63          	beq	a4,ra,6ef6 <.L2807>
    6ec0:	428d                	li	t0,3
    6ec2:	02570763          	beq	a4,t0,6ef0 <.L2808>
    6ec6:	4311                	li	t1,4
    6ec8:	02670163          	beq	a4,t1,6eea <.L2809>
    6ecc:	4395                	li	t2,5
    6ece:	00770b63          	beq	a4,t2,6ee4 <.L2810>
    6ed2:	4519                	li	a0,6
    6ed4:	00a70563          	beq	a4,a0,6ede <.L2811>

00006ed8 <.LVL2495>:
                            q = q->next;
    6ed8:	401c                	lw	a5,0(s0)
                psize++;
    6eda:	4905                	li	s2,1

00006edc <.LVL2496>:
                if (!q) break;
    6edc:	c7a5                	beqz	a5,6f44 <.L2753>

00006ede <.L2811>:
                            q = q->next;
    6ede:	439c                	lw	a5,0(a5)

00006ee0 <.LVL2498>:
                psize++;
    6ee0:	0905                	addi	s2,s2,1

00006ee2 <.LVL2499>:
                if (!q) break;
    6ee2:	c3ad                	beqz	a5,6f44 <.L2753>

00006ee4 <.L2810>:
                            q = q->next;
    6ee4:	439c                	lw	a5,0(a5)

00006ee6 <.LVL2501>:
                psize++;
    6ee6:	0905                	addi	s2,s2,1

00006ee8 <.LVL2502>:
                if (!q) break;
    6ee8:	cfb1                	beqz	a5,6f44 <.L2753>

00006eea <.L2809>:
                            q = q->next;
    6eea:	439c                	lw	a5,0(a5)

00006eec <.LVL2504>:
                psize++;
    6eec:	0905                	addi	s2,s2,1

00006eee <.LVL2505>:
                if (!q) break;
    6eee:	cbb9                	beqz	a5,6f44 <.L2753>

00006ef0 <.L2808>:
                            q = q->next;
    6ef0:	439c                	lw	a5,0(a5)

00006ef2 <.LVL2507>:
                psize++;
    6ef2:	0905                	addi	s2,s2,1

00006ef4 <.LVL2508>:
                if (!q) break;
    6ef4:	cba1                	beqz	a5,6f44 <.L2753>

00006ef6 <.L2807>:
                            q = q->next;
    6ef6:	439c                	lw	a5,0(a5)

00006ef8 <.LVL2510>:
                psize++;
    6ef8:	0905                	addi	s2,s2,1

00006efa <.LVL2511>:
                if (!q) break;
    6efa:	c7a9                	beqz	a5,6f44 <.L2753>

00006efc <.L2806>:
                            q = q->next;
    6efc:	439c                	lw	a5,0(a5)

00006efe <.LVL2513>:
                psize++;
    6efe:	0905                	addi	s2,s2,1

00006f00 <.LVL2514>:
                if (!q) break;
    6f00:	c3b1                	beqz	a5,6f44 <.L2753>

00006f02 <.L2824>:
            for (i = 0; i < insize; i++) {
    6f02:	05790163          	beq	s2,s7,6f44 <.L2753>

00006f06 <.L2752>:
                            q = q->next;
    6f06:	439c                	lw	a5,0(a5)

00006f08 <.LVL2516>:
                psize++;
    6f08:	0905                	addi	s2,s2,1
    6f0a:	85ca                	mv	a1,s2

00006f0c <.LVL2517>:
                if (!q) break;
    6f0c:	cf85                	beqz	a5,6f44 <.L2753>

00006f0e <.LVL2518>:
                            q = q->next;
    6f0e:	439c                	lw	a5,0(a5)

00006f10 <.LVL2519>:
                psize++;
    6f10:	0905                	addi	s2,s2,1

00006f12 <.LVL2520>:
                if (!q) break;
    6f12:	cb8d                	beqz	a5,6f44 <.L2753>

00006f14 <.LVL2521>:
                            q = q->next;
    6f14:	439c                	lw	a5,0(a5)

00006f16 <.LVL2522>:
                psize++;
    6f16:	00258913          	addi	s2,a1,2

00006f1a <.LVL2523>:
                if (!q) break;
    6f1a:	c78d                	beqz	a5,6f44 <.L2753>

00006f1c <.LVL2524>:
                            q = q->next;
    6f1c:	439c                	lw	a5,0(a5)

00006f1e <.LVL2525>:
                psize++;
    6f1e:	00358913          	addi	s2,a1,3

00006f22 <.LVL2526>:
                if (!q) break;
    6f22:	c38d                	beqz	a5,6f44 <.L2753>

00006f24 <.LVL2527>:
                            q = q->next;
    6f24:	439c                	lw	a5,0(a5)

00006f26 <.LVL2528>:
                psize++;
    6f26:	00458913          	addi	s2,a1,4

00006f2a <.LVL2529>:
                if (!q) break;
    6f2a:	cf89                	beqz	a5,6f44 <.L2753>

00006f2c <.LVL2530>:
                            q = q->next;
    6f2c:	439c                	lw	a5,0(a5)

00006f2e <.LVL2531>:
                psize++;
    6f2e:	00558913          	addi	s2,a1,5

00006f32 <.LVL2532>:
                if (!q) break;
    6f32:	cb89                	beqz	a5,6f44 <.L2753>

00006f34 <.LVL2533>:
                            q = q->next;
    6f34:	439c                	lw	a5,0(a5)

00006f36 <.LVL2534>:
                psize++;
    6f36:	00658913          	addi	s2,a1,6

00006f3a <.LVL2535>:
                if (!q) break;
    6f3a:	c789                	beqz	a5,6f44 <.L2753>

00006f3c <.LVL2536>:
                            q = q->next;
    6f3c:	439c                	lw	a5,0(a5)

00006f3e <.LVL2537>:
                psize++;
    6f3e:	00758913          	addi	s2,a1,7

00006f42 <.LVL2538>:
                if (!q) break;
    6f42:	f3e1                	bnez	a5,6f02 <.L2824>

00006f44 <.L2753>:
                                    list = e;
    6f44:	8a22                	mv	s4,s0
    6f46:	89de                	mv	s3,s7
    6f48:	843e                	mv	s0,a5

00006f4a <.LVL2540>:
            while (psize > 0 || (qsize > 0 && q)) {
    6f4a:	02090c63          	beqz	s2,6f82 <.L2826>

00006f4e <.L2759>:
                                } else if (qsize == 0 || !q) {
    6f4e:	04098463          	beqz	s3,6f96 <.L2825>
    6f52:	c031                	beqz	s0,6f96 <.L2825>

00006f54 <.LBB1158>:
        ee_s16 val1=calc_func(&(a->data16),res);
    6f54:	004a2503          	lw	a0,4(s4)

00006f58 <.LBE1158>:
                                } else if (cmp(p->info,q->info,res) <= 0) {
    6f58:	00442d83          	lw	s11,4(s0)

00006f5c <.LBB1161>:
        ee_s16 val1=calc_func(&(a->data16),res);
    6f5c:	85ea                	mv	a1,s10
    6f5e:	3abd                	jal	68dc <calc_func>

00006f60 <.LVL2542>:
    6f60:	8aaa                	mv	s5,a0
        ee_s16 val2=calc_func(&(b->data16),res);
    6f62:	85ea                	mv	a1,s10
    6f64:	856e                	mv	a0,s11

00006f66 <.LVL2543>:
    6f66:	3a9d                	jal	68dc <calc_func>

00006f68 <.LVL2544>:
        return val1 - val2;
    6f68:	40aa8633          	sub	a2,s5,a0

00006f6c <.LBE1161>:
                                } else if (cmp(p->info,q->info,res) <= 0) {
    6f6c:	02c05563          	blez	a2,6f96 <.L2825>

00006f70 <.LVL2545>:
                                    e = q; q = q->next; qsize--;
    6f70:	8822                	mv	a6,s0
    6f72:	4000                	lw	s0,0(s0)

00006f74 <.LVL2546>:
    6f74:	19fd                	addi	s3,s3,-1

00006f76 <.L2754>:
                                if (tail) {
    6f76:	cc89                	beqz	s1,6f90 <.L2766>

00006f78 <.L2827>:
                                    tail->next = e;
    6f78:	0104a023          	sw	a6,0(s1)
                                    list = e;
    6f7c:	84c2                	mv	s1,a6

00006f7e <.L2828>:
            while (psize > 0 || (qsize > 0 && q)) {
    6f7e:	fc0918e3          	bnez	s2,6f4e <.L2759>

00006f82 <.L2826>:
    6f82:	00098f63          	beqz	s3,6fa0 <.L2760>
    6f86:	cc19                	beqz	s0,6fa4 <.L2762>

00006f88 <.LVL2550>:
                                    e = q; q = q->next; qsize--;
    6f88:	8822                	mv	a6,s0
    6f8a:	19fd                	addi	s3,s3,-1
    6f8c:	4000                	lw	s0,0(s0)

00006f8e <.LVL2552>:
                                if (tail) {
    6f8e:	f4ed                	bnez	s1,6f78 <.L2827>

00006f90 <.L2766>:
                                    list = e;
    6f90:	8b42                	mv	s6,a6
    6f92:	84c2                	mv	s1,a6

00006f94 <.LVL2553>:
    6f94:	b7ed                	j	6f7e <.L2828>

00006f96 <.L2825>:
                                    e = p; p = p->next; psize--;
    6f96:	8852                	mv	a6,s4
    6f98:	197d                	addi	s2,s2,-1

00006f9a <.LVL2555>:
    6f9a:	000a2a03          	lw	s4,0(s4)

00006f9e <.LVL2556>:
    6f9e:	bfe1                	j	6f76 <.L2754>

00006fa0 <.L2760>:
        while (p) {
    6fa0:	f00414e3          	bnez	s0,6ea8 <.L2763>

00006fa4 <.L2762>:
            tail->next = NULL;
    6fa4:	0004a023          	sw	zero,0(s1)
        if (nmerges <= 1)   /* allow for nmerges==0, the empty list case */
    6fa8:	019c0863          	beq	s8,s9,6fb8 <.L2822>
        insize *= 2;
    6fac:	0b86                	slli	s7,s7,0x1
        p = list;
    6fae:	845a                	mv	s0,s6

00006fb0 <.LVL2560>:
    6fb0:	b5fd                	j	6e9e <.L2765>

00006fb2 <.L2749>:
            tail->next = NULL;
    6fb2:	00002023          	sw	zero,0(zero) # 0 <_start>
    6fb6:	9002                	ebreak

00006fb8 <.L2822>:
}
    6fb8:	50f2                	lw	ra,60(sp)
    6fba:	5462                	lw	s0,56(sp)

00006fbc <.LVL2563>:
    6fbc:	54d2                	lw	s1,52(sp)
    6fbe:	5942                	lw	s2,48(sp)
    6fc0:	59b2                	lw	s3,44(sp)

00006fc2 <.LVL2564>:
    6fc2:	5a22                	lw	s4,40(sp)
    6fc4:	5a92                	lw	s5,36(sp)
    6fc6:	4bf2                	lw	s7,28(sp)

00006fc8 <.LVL2565>:
    6fc8:	4c62                	lw	s8,24(sp)
    6fca:	4cd2                	lw	s9,20(sp)
    6fcc:	4d42                	lw	s10,16(sp)

00006fce <.LVL2566>:
    6fce:	4db2                	lw	s11,12(sp)
    6fd0:	855a                	mv	a0,s6
    6fd2:	5b02                	lw	s6,32(sp)
    6fd4:	6121                	addi	sp,sp,64
    6fd6:	8082                	ret

00006fd8 <core_bench_list>:
ee_u16 core_bench_list(core_results *res, ee_s16 finder_idx) {
    6fd8:	85aa                	mv	a1,a0

00006fda <.LVL2568>:
        list=core_list_mergesort(list,cmp_complex,res);
    6fda:	5148                	lw	a0,36(a0)

00006fdc <.LVL2569>:
ee_u16 core_bench_list(core_results *res, ee_s16 finder_idx) {
    6fdc:	1141                	addi	sp,sp,-16
    6fde:	c606                	sw	ra,12(sp)
    6fe0:	c422                	sw	s0,8(sp)
        list=core_list_mergesort(list,cmp_complex,res);
    6fe2:	3d61                	jal	6e7a <core_list_mergesort.constprop.1>

00006fe4 <.LVL2570>:
    6fe4:	842a                	mv	s0,a0

00006fe6 <.LVL2571>:
        ee_printf("List sort 1: %04x\n",retval);
    6fe6:	6541                	lui	a0,0x10
    6fe8:	4581                	li	a1,0
    6fea:	1e850513          	addi	a0,a0,488 # 101e8 <.LC17>
    6fee:	fcafb0ef          	jal	ra,27b8 <whisperPrintf>

00006ff2 <.LVL2572>:
        list=core_list_mergesort(list,cmp_idx,NULL);
    6ff2:	8522                	mv	a0,s0
    6ff4:	89af90ef          	jal	ra,8e <core_list_mergesort.constprop.0>

00006ff8 <.LVL2573>:
        ee_printf("List sort 2: %04x\n",retval);
    6ff8:	62c1                	lui	t0,0x10
    6ffa:	4581                	li	a1,0
    6ffc:	1fc28513          	addi	a0,t0,508 # 101fc <.LC18>
    7000:	fb8fb0ef          	jal	ra,27b8 <whisperPrintf>

00007004 <.LVL2574>:
}
    7004:	40b2                	lw	ra,12(sp)
    7006:	4422                	lw	s0,8(sp)
    7008:	4501                	li	a0,0
    700a:	0141                	addi	sp,sp,16
    700c:	8082                	ret

0000700e <iterate>:
void *iterate(void *pres) {
    700e:	7179                	addi	sp,sp,-48
    7010:	ce4e                	sw	s3,28(sp)
        ee_u32 iterations=res->iterations;
    7012:	01c52983          	lw	s3,28(a0)

00007016 <.LVL2576>:
void *iterate(void *pres) {
    7016:	d606                	sw	ra,44(sp)
    7018:	d422                	sw	s0,40(sp)
    701a:	d226                	sw	s1,36(sp)
    701c:	d04a                	sw	s2,32(sp)
    701e:	cc52                	sw	s4,24(sp)
    7020:	ca56                	sw	s5,20(sp)
    7022:	c85a                	sw	s6,16(sp)
    7024:	c65e                	sw	s7,12(sp)
        res->crc=0;
    7026:	02052c23          	sw	zero,56(a0)
    702a:	02052e23          	sw	zero,60(a0)

0000702e <.LVL2577>:
        for (i=0; i<iterations; i++) {
    702e:	34098d63          	beqz	s3,7388 <.L2902>

00007032 <.LBB1178>:
                   crc |= 0x8000;
    7032:	7ae9                	lui	s5,0xffffa
    7034:	8b2a                	mv	s6,a0

00007036 <.LBE1178>:
        for (i=0; i<iterations; i++) {
    7036:	4401                	li	s0,0
    7038:	6941                	lui	s2,0x10
    703a:	64c1                	lui	s1,0x10

0000703c <.LBB1183>:
                   crc |= 0x8000;
    703c:	0a85                	addi	s5,s5,1

0000703e <.LBE1183>:
        for (i=0; i<iterations; i++) {
    703e:	4a05                	li	s4,1

00007040 <.L2832>:
        list=core_list_mergesort(list,cmp_complex,res);
    7040:	024b2503          	lw	a0,36(s6)
    7044:	85da                	mv	a1,s6
    7046:	3d15                	jal	6e7a <core_list_mergesort.constprop.1>

00007048 <.LVL2579>:
        ee_printf("List sort 1: %04x\n",retval);
    7048:	4581                	li	a1,0
        list=core_list_mergesort(list,cmp_complex,res);
    704a:	8baa                	mv	s7,a0

0000704c <.LVL2580>:
        ee_printf("List sort 1: %04x\n",retval);
    704c:	1e890513          	addi	a0,s2,488 # 101e8 <.LC17>

00007050 <.LVL2581>:
    7050:	f68fb0ef          	jal	ra,27b8 <whisperPrintf>

00007054 <.LVL2582>:
        list=core_list_mergesort(list,cmp_idx,NULL);
    7054:	855e                	mv	a0,s7
    7056:	838f90ef          	jal	ra,8e <core_list_mergesort.constprop.0>

0000705a <.LVL2583>:
        ee_printf("List sort 2: %04x\n",retval);
    705a:	4581                	li	a1,0
    705c:	1fc48513          	addi	a0,s1,508 # 101fc <.LC18>
    7060:	f58fb0ef          	jal	ra,27b8 <whisperPrintf>

00007064 <.LBE1188>:
                res->crc=crcu16(crc,res->crc);
    7064:	038b5783          	lhu	a5,56(s6)

00007068 <.LBB1184>:
                if (x16 == 1)
    7068:	0017f713          	andi	a4,a5,1
                   crc |= 0x8000;
    706c:	0017d313          	srli	t1,a5,0x1
                if (x16 == 1)
    7070:	c719                	beqz	a4,707e <.L2834>

00007072 <.LVL2586>:
                   crc |= 0x8000;
    7072:	015340b3          	xor	ra,t1,s5
    7076:	01009293          	slli	t0,ra,0x10
    707a:	0102d313          	srli	t1,t0,0x10

0000707e <.L2834>:
                if (x16 == 1)
    707e:	00137393          	andi	t2,t1,1
    7082:	00135613          	srli	a2,t1,0x1
    7086:	00038863          	beqz	t2,7096 <.L2835>

0000708a <.LVL2588>:
                   crc |= 0x8000;
    708a:	01564533          	xor	a0,a2,s5

0000708e <.LVL2589>:
    708e:	01051593          	slli	a1,a0,0x10
    7092:	0105d613          	srli	a2,a1,0x10

00007096 <.L2835>:
                if (x16 == 1)
    7096:	00167693          	andi	a3,a2,1
    709a:	00165e13          	srli	t3,a2,0x1
    709e:	c699                	beqz	a3,70ac <.L2836>

000070a0 <.LVL2591>:
                   crc |= 0x8000;
    70a0:	015e4833          	xor	a6,t3,s5

000070a4 <.LVL2592>:
    70a4:	01081893          	slli	a7,a6,0x10
    70a8:	0108de13          	srli	t3,a7,0x10

000070ac <.L2836>:
                if (x16 == 1)
    70ac:	001e7e93          	andi	t4,t3,1
    70b0:	001e5b93          	srli	s7,t3,0x1
    70b4:	000e8863          	beqz	t4,70c4 <.L2837>

000070b8 <.LVL2594>:
                   crc |= 0x8000;
    70b8:	015bcf33          	xor	t5,s7,s5

000070bc <.LVL2595>:
    70bc:	010f1f93          	slli	t6,t5,0x10
    70c0:	010fdb93          	srli	s7,t6,0x10

000070c4 <.L2837>:
                if (x16 == 1)
    70c4:	001bf713          	andi	a4,s7,1
    70c8:	001bd293          	srli	t0,s7,0x1
    70cc:	c719                	beqz	a4,70da <.L2838>

000070ce <.LVL2597>:
                   crc |= 0x8000;
    70ce:	0152c7b3          	xor	a5,t0,s5

000070d2 <.LVL2598>:
    70d2:	01079093          	slli	ra,a5,0x10
    70d6:	0100d293          	srli	t0,ra,0x10

000070da <.L2838>:
                if (x16 == 1)
    70da:	0012f313          	andi	t1,t0,1
    70de:	0012d593          	srli	a1,t0,0x1
    70e2:	00030863          	beqz	t1,70f2 <.L2839>

000070e6 <.LVL2600>:
                   crc |= 0x8000;
    70e6:	0155c3b3          	xor	t2,a1,s5

000070ea <.LVL2601>:
    70ea:	01039513          	slli	a0,t2,0x10
    70ee:	01055593          	srli	a1,a0,0x10

000070f2 <.L2839>:
                if (x16 == 1)
    70f2:	0015f613          	andi	a2,a1,1
    70f6:	0015d893          	srli	a7,a1,0x1
    70fa:	c619                	beqz	a2,7108 <.L2840>

000070fc <.LVL2603>:
                   crc |= 0x8000;
    70fc:	0158c6b3          	xor	a3,a7,s5

00007100 <.LVL2604>:
    7100:	01069813          	slli	a6,a3,0x10
    7104:	01085893          	srli	a7,a6,0x10

00007108 <.L2840>:
                if (x16 == 1)
    7108:	0018fe13          	andi	t3,a7,1
    710c:	0018df93          	srli	t6,a7,0x1
    7110:	000e0863          	beqz	t3,7120 <.L2841>

00007114 <.LVL2606>:
                   crc |= 0x8000;
    7114:	015fceb3          	xor	t4,t6,s5

00007118 <.LVL2607>:
    7118:	010e9f13          	slli	t5,t4,0x10
    711c:	010f5f93          	srli	t6,t5,0x10

00007120 <.L2841>:
                if (x16 == 1)
    7120:	001ffb93          	andi	s7,t6,1
    7124:	001fd093          	srli	ra,t6,0x1
    7128:	000b8863          	beqz	s7,7138 <.L2842>

0000712c <.LVL2609>:
                   crc |= 0x8000;
    712c:	0150c733          	xor	a4,ra,s5

00007130 <.LVL2610>:
    7130:	01071793          	slli	a5,a4,0x10
    7134:	0107d093          	srli	ra,a5,0x10

00007138 <.L2842>:
                if (x16 == 1)
    7138:	0010f293          	andi	t0,ra,1
    713c:	0010d513          	srli	a0,ra,0x1
    7140:	00028863          	beqz	t0,7150 <.L2843>

00007144 <.LVL2612>:
                   crc |= 0x8000;
    7144:	01554333          	xor	t1,a0,s5

00007148 <.LVL2613>:
    7148:	01031393          	slli	t2,t1,0x10
    714c:	0103d513          	srli	a0,t2,0x10

00007150 <.L2843>:
                if (x16 == 1)
    7150:	00157593          	andi	a1,a0,1
    7154:	00155813          	srli	a6,a0,0x1
    7158:	c599                	beqz	a1,7166 <.L2844>

0000715a <.LVL2615>:
                   crc |= 0x8000;
    715a:	01584633          	xor	a2,a6,s5

0000715e <.LVL2616>:
    715e:	01061693          	slli	a3,a2,0x10
    7162:	0106d813          	srli	a6,a3,0x10

00007166 <.L2844>:
                if (x16 == 1)
    7166:	00187893          	andi	a7,a6,1
    716a:	00185f13          	srli	t5,a6,0x1
    716e:	00088863          	beqz	a7,717e <.L2845>

00007172 <.LVL2618>:
                   crc |= 0x8000;
    7172:	015f4e33          	xor	t3,t5,s5

00007176 <.LVL2619>:
    7176:	010e1e93          	slli	t4,t3,0x10
    717a:	010edf13          	srli	t5,t4,0x10

0000717e <.L2845>:
                if (x16 == 1)
    717e:	001f7f93          	andi	t6,t5,1
    7182:	001f5793          	srli	a5,t5,0x1
    7186:	000f8863          	beqz	t6,7196 <.L2846>

0000718a <.LVL2621>:
                   crc |= 0x8000;
    718a:	0157cbb3          	xor	s7,a5,s5

0000718e <.LVL2622>:
    718e:	010b9713          	slli	a4,s7,0x10
    7192:	01075793          	srli	a5,a4,0x10

00007196 <.L2846>:
                if (x16 == 1)
    7196:	0017f093          	andi	ra,a5,1
    719a:	0017d393          	srli	t2,a5,0x1
    719e:	00008863          	beqz	ra,71ae <.L2847>

000071a2 <.LVL2624>:
                   crc |= 0x8000;
    71a2:	0153c2b3          	xor	t0,t2,s5

000071a6 <.LVL2625>:
    71a6:	01029313          	slli	t1,t0,0x10
    71aa:	01035393          	srli	t2,t1,0x10

000071ae <.L2847>:
                if (x16 == 1)
    71ae:	0013f513          	andi	a0,t2,1
    71b2:	0013d693          	srli	a3,t2,0x1
    71b6:	c519                	beqz	a0,71c4 <.L2848>

000071b8 <.LVL2627>:
                   crc |= 0x8000;
    71b8:	0156c5b3          	xor	a1,a3,s5

000071bc <.LVL2628>:
    71bc:	01059613          	slli	a2,a1,0x10
    71c0:	01065693          	srli	a3,a2,0x10

000071c4 <.L2848>:
                if (x16 == 1)
    71c4:	0016f813          	andi	a6,a3,1
    71c8:	0016de93          	srli	t4,a3,0x1
    71cc:	00080863          	beqz	a6,71dc <.L2849>

000071d0 <.LVL2630>:
                   crc |= 0x8000;
    71d0:	015ec8b3          	xor	a7,t4,s5
    71d4:	01089e13          	slli	t3,a7,0x10
    71d8:	010e5e93          	srli	t4,t3,0x10

000071dc <.L2849>:
        list=core_list_mergesort(list,cmp_complex,res);
    71dc:	024b2503          	lw	a0,36(s6)

000071e0 <.LBE1191>:
                res->crc=crcu16(crc,res->crc);
    71e0:	03db1c23          	sh	t4,56(s6)

000071e4 <.LBB1194>:
        list=core_list_mergesort(list,cmp_complex,res);
    71e4:	85da                	mv	a1,s6
    71e6:	3951                	jal	6e7a <core_list_mergesort.constprop.1>

000071e8 <.LVL2633>:
        ee_printf("List sort 1: %04x\n",retval);
    71e8:	4581                	li	a1,0
        list=core_list_mergesort(list,cmp_complex,res);
    71ea:	8baa                	mv	s7,a0

000071ec <.LVL2634>:
        ee_printf("List sort 1: %04x\n",retval);
    71ec:	1e890513          	addi	a0,s2,488

000071f0 <.LVL2635>:
    71f0:	dc8fb0ef          	jal	ra,27b8 <whisperPrintf>

000071f4 <.LVL2636>:
        list=core_list_mergesort(list,cmp_idx,NULL);
    71f4:	855e                	mv	a0,s7
    71f6:	e99f80ef          	jal	ra,8e <core_list_mergesort.constprop.0>

000071fa <.LVL2637>:
        ee_printf("List sort 2: %04x\n",retval);
    71fa:	4581                	li	a1,0
    71fc:	1fc48513          	addi	a0,s1,508
    7200:	db8fb0ef          	jal	ra,27b8 <whisperPrintf>

00007204 <.LBE1194>:
                res->crc=crcu16(crc,res->crc);
    7204:	038b5f03          	lhu	t5,56(s6)

00007208 <.LBB1195>:
                if (x16 == 1)
    7208:	001f7f93          	andi	t6,t5,1
                crc >>= 1;
    720c:	001f5293          	srli	t0,t5,0x1
                if (x16 == 1)
    7210:	000f8863          	beqz	t6,7220 <.L2851>

00007214 <.LVL2640>:
                   crc |= 0x8000;
    7214:	0152c733          	xor	a4,t0,s5
    7218:	01071793          	slli	a5,a4,0x10
    721c:	0107d293          	srli	t0,a5,0x10

00007220 <.L2851>:
                if (x16 == 1)
    7220:	0012f093          	andi	ra,t0,1
    7224:	0012d513          	srli	a0,t0,0x1
    7228:	00008863          	beqz	ra,7238 <.L2852>

0000722c <.LVL2642>:
                   crc |= 0x8000;
    722c:	01554333          	xor	t1,a0,s5

00007230 <.LVL2643>:
    7230:	01031393          	slli	t2,t1,0x10
    7234:	0103d513          	srli	a0,t2,0x10

00007238 <.L2852>:
                if (x16 == 1)
    7238:	00157593          	andi	a1,a0,1
    723c:	00155813          	srli	a6,a0,0x1
    7240:	c599                	beqz	a1,724e <.L2853>

00007242 <.LVL2645>:
                   crc |= 0x8000;
    7242:	01584633          	xor	a2,a6,s5

00007246 <.LVL2646>:
    7246:	01061693          	slli	a3,a2,0x10
    724a:	0106d813          	srli	a6,a3,0x10

0000724e <.L2853>:
                if (x16 == 1)
    724e:	00187893          	andi	a7,a6,1
    7252:	00185b93          	srli	s7,a6,0x1
    7256:	00088863          	beqz	a7,7266 <.L2854>

0000725a <.LVL2648>:
                   crc |= 0x8000;
    725a:	015bce33          	xor	t3,s7,s5

0000725e <.LVL2649>:
    725e:	010e1e93          	slli	t4,t3,0x10
    7262:	010edb93          	srli	s7,t4,0x10

00007266 <.L2854>:
                if (x16 == 1)
    7266:	001bff13          	andi	t5,s7,1

0000726a <.LVL2651>:
    726a:	001bd793          	srli	a5,s7,0x1
    726e:	000f0863          	beqz	t5,727e <.L2855>

00007272 <.LVL2652>:
                   crc |= 0x8000;
    7272:	0157cfb3          	xor	t6,a5,s5

00007276 <.LVL2653>:
    7276:	010f9713          	slli	a4,t6,0x10
    727a:	01075793          	srli	a5,a4,0x10

0000727e <.L2855>:
                if (x16 == 1)
    727e:	0017f293          	andi	t0,a5,1
    7282:	0017d393          	srli	t2,a5,0x1
    7286:	00028863          	beqz	t0,7296 <.L2856>

0000728a <.LVL2655>:
                   crc |= 0x8000;
    728a:	0153c0b3          	xor	ra,t2,s5

0000728e <.LVL2656>:
    728e:	01009313          	slli	t1,ra,0x10
    7292:	01035393          	srli	t2,t1,0x10

00007296 <.L2856>:
                if (x16 == 1)
    7296:	0013f513          	andi	a0,t2,1
    729a:	0013d693          	srli	a3,t2,0x1
    729e:	c519                	beqz	a0,72ac <.L2857>

000072a0 <.LVL2658>:
                   crc |= 0x8000;
    72a0:	0156c5b3          	xor	a1,a3,s5

000072a4 <.LVL2659>:
    72a4:	01059613          	slli	a2,a1,0x10
    72a8:	01065693          	srli	a3,a2,0x10

000072ac <.L2857>:
                if (x16 == 1)
    72ac:	0016f813          	andi	a6,a3,1
    72b0:	0016de93          	srli	t4,a3,0x1
    72b4:	00080863          	beqz	a6,72c4 <.L2858>

000072b8 <.LVL2661>:
                   crc |= 0x8000;
    72b8:	015ec8b3          	xor	a7,t4,s5

000072bc <.LVL2662>:
    72bc:	01089e13          	slli	t3,a7,0x10
    72c0:	010e5e93          	srli	t4,t3,0x10

000072c4 <.L2858>:
                if (x16 == 1)
    72c4:	001efb93          	andi	s7,t4,1
    72c8:	001ed793          	srli	a5,t4,0x1
    72cc:	000b8863          	beqz	s7,72dc <.L2859>

000072d0 <.LVL2664>:
                   crc |= 0x8000;
    72d0:	0157cf33          	xor	t5,a5,s5

000072d4 <.LVL2665>:
    72d4:	010f1f93          	slli	t6,t5,0x10
    72d8:	010fd793          	srli	a5,t6,0x10

000072dc <.L2859>:
                if (x16 == 1)
    72dc:	0017f713          	andi	a4,a5,1
    72e0:	0017d313          	srli	t1,a5,0x1
    72e4:	c719                	beqz	a4,72f2 <.L2860>

000072e6 <.LVL2667>:
                   crc |= 0x8000;
    72e6:	015342b3          	xor	t0,t1,s5

000072ea <.LVL2668>:
    72ea:	01029093          	slli	ra,t0,0x10
    72ee:	0100d313          	srli	t1,ra,0x10

000072f2 <.L2860>:
                if (x16 == 1)
    72f2:	00137393          	andi	t2,t1,1
    72f6:	00135613          	srli	a2,t1,0x1
    72fa:	00038863          	beqz	t2,730a <.L2861>

000072fe <.LVL2670>:
                   crc |= 0x8000;
    72fe:	01564533          	xor	a0,a2,s5

00007302 <.LVL2671>:
    7302:	01051593          	slli	a1,a0,0x10
    7306:	0105d613          	srli	a2,a1,0x10

0000730a <.L2861>:
                if (x16 == 1)
    730a:	00167693          	andi	a3,a2,1
    730e:	00165e13          	srli	t3,a2,0x1
    7312:	c699                	beqz	a3,7320 <.L2862>

00007314 <.LVL2673>:
                   crc |= 0x8000;
    7314:	015e4833          	xor	a6,t3,s5

00007318 <.LVL2674>:
    7318:	01081893          	slli	a7,a6,0x10
    731c:	0108de13          	srli	t3,a7,0x10

00007320 <.L2862>:
                if (x16 == 1)
    7320:	001e7e93          	andi	t4,t3,1
    7324:	001e5f93          	srli	t6,t3,0x1
    7328:	000e8863          	beqz	t4,7338 <.L2863>

0000732c <.LVL2676>:
                   crc |= 0x8000;
    732c:	015fcbb3          	xor	s7,t6,s5

00007330 <.LVL2677>:
    7330:	010b9f13          	slli	t5,s7,0x10
    7334:	010f5f93          	srli	t6,t5,0x10

00007338 <.L2863>:
                if (x16 == 1)
    7338:	001ff713          	andi	a4,t6,1
    733c:	001fd093          	srli	ra,t6,0x1
    7340:	c719                	beqz	a4,734e <.L2864>

00007342 <.LVL2679>:
                   crc |= 0x8000;
    7342:	0150c7b3          	xor	a5,ra,s5

00007346 <.LVL2680>:
    7346:	01079293          	slli	t0,a5,0x10
    734a:	0102d093          	srli	ra,t0,0x10

0000734e <.L2864>:
                if (x16 == 1)
    734e:	0010f313          	andi	t1,ra,1
    7352:	0010d593          	srli	a1,ra,0x1
    7356:	00030863          	beqz	t1,7366 <.L2865>

0000735a <.LVL2682>:
                   crc |= 0x8000;
    735a:	0155c3b3          	xor	t2,a1,s5

0000735e <.LVL2683>:
    735e:	01039513          	slli	a0,t2,0x10
    7362:	01055593          	srli	a1,a0,0x10

00007366 <.L2865>:
                if (x16 == 1)
    7366:	0015f613          	andi	a2,a1,1
    736a:	0015d893          	srli	a7,a1,0x1
    736e:	c619                	beqz	a2,737c <.L2866>

00007370 <.LVL2685>:
                   crc |= 0x8000;
    7370:	0158c6b3          	xor	a3,a7,s5
    7374:	01069813          	slli	a6,a3,0x10
    7378:	01085893          	srli	a7,a6,0x10

0000737c <.L2866>:
                res->crc=crcu16(crc,res->crc);
    737c:	031b1c23          	sh	a7,56(s6)
                if (i==0) res->crclist=res->crc;
    7380:	c005                	beqz	s0,73a0 <.L2964>
        for (i=0; i<iterations; i++) {
    7382:	0405                	addi	s0,s0,1
    7384:	ca899ee3          	bne	s3,s0,7040 <.L2832>

00007388 <.L2902>:
}
    7388:	50b2                	lw	ra,44(sp)
    738a:	5422                	lw	s0,40(sp)
    738c:	5492                	lw	s1,36(sp)
    738e:	5902                	lw	s2,32(sp)
    7390:	49f2                	lw	s3,28(sp)

00007392 <.LVL2689>:
    7392:	4a62                	lw	s4,24(sp)
    7394:	4ad2                	lw	s5,20(sp)
    7396:	4b42                	lw	s6,16(sp)
    7398:	4bb2                	lw	s7,12(sp)
    739a:	4501                	li	a0,0
    739c:	6145                	addi	sp,sp,48
    739e:	8082                	ret

000073a0 <.L2964>:
                if (i==0) res->crclist=res->crc;
    73a0:	031b1d23          	sh	a7,58(s6)

000073a4 <.LVL2691>:
        for (i=0; i<iterations; i++) {
    73a4:	ff4982e3          	beq	s3,s4,7388 <.L2902>
    73a8:	4405                	li	s0,1
    73aa:	b959                	j	7040 <.L2832>

000073ac <cmp_complex>:
ee_s32 cmp_complex(list_data *a, list_data *b, core_results *res) {
    73ac:	1101                	addi	sp,sp,-32
    73ae:	c84a                	sw	s2,16(sp)

000073b0 <.LBB1359>:
        ee_s16 data=*pdata;
    73b0:	00051903          	lh	s2,0(a0)

000073b4 <.LBE1359>:
ee_s32 cmp_complex(list_data *a, list_data *b, core_results *res) {
    73b4:	ce06                	sw	ra,28(sp)
    73b6:	ca26                	sw	s1,20(sp)

000073b8 <.LBB1397>:
        ee_u8 optype=(data>>7) & 1; /* bit 7 indicates if the function result has been cached */
    73b8:	40795793          	srai	a5,s2,0x7

000073bc <.LBE1397>:
ee_s32 cmp_complex(list_data *a, list_data *b, core_results *res) {
    73bc:	c64e                	sw	s3,12(sp)
    73be:	c452                	sw	s4,8(sp)
    73c0:	cc22                	sw	s0,24(sp)
    73c2:	c256                	sw	s5,4(sp)

000073c4 <.LBB1398>:
        if (optype) /* if cached, use cache */
    73c4:	0017f093          	andi	ra,a5,1

000073c8 <.LBE1398>:
ee_s32 cmp_complex(list_data *a, list_data *b, core_results *res) {
    73c8:	89ae                	mv	s3,a1
    73ca:	84b2                	mv	s1,a2

000073cc <.LBB1399>:
                return (data & 0x007f);
    73cc:	07f97a13          	andi	s4,s2,127
        if (optype) /* if cached, use cache */
    73d0:	2a009263          	bnez	ra,7674 <.L3077>

000073d4 <.LBB1361>:
                ee_s16 dtype=((data>>3) & 0xf); /* bits 3-6 is specific data for the operation */
    73d4:	40395713          	srai	a4,s2,0x3
    73d8:	00f77293          	andi	t0,a4,15
                dtype |= dtype << 4; /* replicate the lower 4 bits to get an 8b value */
    73dc:	00429693          	slli	a3,t0,0x4
                ee_s16 flag=data & 0x7; /* bits 0-2 is type of function to perform */
    73e0:	00797313          	andi	t1,s2,7

000073e4 <.LVL2811>:
                                retval=core_bench_state(res->size,res->memblock[3],res->seed1,res->seed2,dtype,res->crc);
    73e4:	03865403          	lhu	s0,56(a2)
    73e8:	8aaa                	mv	s5,a0
                dtype |= dtype << 4; /* replicate the lower 4 bits to get an 8b value */
    73ea:	00d2e733          	or	a4,t0,a3

000073ee <.LVL2812>:
                switch (flag) {
    73ee:	000308e3          	beqz	t1,7bfe <.L3078>
    73f2:	4505                	li	a0,1

000073f4 <.LVL2813>:
    73f4:	04a305e3          	beq	t1,a0,7c3e <.L3079>
                res->crc=crcu16(retval,res->crc);
    73f8:	01091793          	slli	a5,s2,0x10
    73fc:	0107d513          	srli	a0,a5,0x10
    7400:	834a                	mv	t1,s2

00007402 <.L3080>:
                x16 = (ee_u8)((data & 1) ^ ((ee_u8)crc & 1));
    7402:	006443b3          	xor	t2,s0,t1

00007406 <.LBE1364>:
        crc=crcu8( (ee_u8) (newval)                             ,crc);
    7406:	0ff37813          	andi	a6,t1,255

0000740a <.LBB1367>:
                if (x16 == 1)
    740a:	0013f593          	andi	a1,t2,1
                data >>= 1;
    740e:	00185e93          	srli	t4,a6,0x1

00007412 <.LVL2816>:
                if (x16 == 1)
    7412:	00145893          	srli	a7,s0,0x1
    7416:	c991                	beqz	a1,742a <.L3099>

00007418 <.LVL2817>:
                   crc |= 0x8000;
    7418:	7a69                	lui	s4,0xffffa
    741a:	001a0e13          	addi	t3,s4,1 # ffffa001 <STACK+0xfffe1931>
    741e:	01c8cf33          	xor	t5,a7,t3

00007422 <.LVL2818>:
    7422:	010f1613          	slli	a2,t5,0x10
    7426:	01065893          	srli	a7,a2,0x10

0000742a <.L3099>:
                x16 = (ee_u8)((data & 1) ^ ((ee_u8)crc & 1));
    742a:	01d8cfb3          	xor	t6,a7,t4
                if (x16 == 1)
    742e:	001ff093          	andi	ra,t6,1
                data >>= 1;
    7432:	00285293          	srli	t0,a6,0x2

00007436 <.LVL2820>:
                if (x16 == 1)
    7436:	0018d393          	srli	t2,a7,0x1
    743a:	00008b63          	beqz	ra,7450 <.L3100>

0000743e <.LVL2821>:
                   crc |= 0x8000;
    743e:	7769                	lui	a4,0xffffa
    7440:	00170413          	addi	s0,a4,1 # ffffa001 <STACK+0xfffe1931>
    7444:	0083c6b3          	xor	a3,t2,s0

00007448 <.LVL2822>:
    7448:	01069793          	slli	a5,a3,0x10
    744c:	0107d393          	srli	t2,a5,0x10

00007450 <.L3100>:
                x16 = (ee_u8)((data & 1) ^ ((ee_u8)crc & 1));
    7450:	0053c5b3          	xor	a1,t2,t0
                if (x16 == 1)
    7454:	0015fe93          	andi	t4,a1,1
                data >>= 1;
    7458:	00385a13          	srli	s4,a6,0x3

0000745c <.LVL2824>:
                if (x16 == 1)
    745c:	0013df93          	srli	t6,t2,0x1
    7460:	000e8b63          	beqz	t4,7476 <.L3101>

00007464 <.LVL2825>:
                   crc |= 0x8000;
    7464:	7e69                	lui	t3,0xffffa
    7466:	001e0f13          	addi	t5,t3,1 # ffffa001 <STACK+0xfffe1931>
    746a:	01efc633          	xor	a2,t6,t5

0000746e <.LVL2826>:
    746e:	01061893          	slli	a7,a2,0x10
    7472:	0108df93          	srli	t6,a7,0x10

00007476 <.L3101>:
                x16 = (ee_u8)((data & 1) ^ ((ee_u8)crc & 1));
    7476:	014fc0b3          	xor	ra,t6,s4
                if (x16 == 1)
    747a:	0010f293          	andi	t0,ra,1
                data >>= 1;
    747e:	00485713          	srli	a4,a6,0x4

00007482 <.LVL2828>:
                if (x16 == 1)
    7482:	001fd593          	srli	a1,t6,0x1
    7486:	00028b63          	beqz	t0,749c <.L3102>

0000748a <.LVL2829>:
                   crc |= 0x8000;
    748a:	7469                	lui	s0,0xffffa
    748c:	00140693          	addi	a3,s0,1 # ffffa001 <STACK+0xfffe1931>
    7490:	00d5c7b3          	xor	a5,a1,a3

00007494 <.LVL2830>:
    7494:	01079393          	slli	t2,a5,0x10
    7498:	0103d593          	srli	a1,t2,0x10

0000749c <.L3102>:
                x16 = (ee_u8)((data & 1) ^ ((ee_u8)crc & 1));
    749c:	00e5ceb3          	xor	t4,a1,a4
                if (x16 == 1)
    74a0:	001efa13          	andi	s4,t4,1
                data >>= 1;
    74a4:	00585e13          	srli	t3,a6,0x5

000074a8 <.LVL2832>:
                if (x16 == 1)
    74a8:	0015d093          	srli	ra,a1,0x1
    74ac:	000a0b63          	beqz	s4,74c2 <.L3103>

000074b0 <.LVL2833>:
                   crc |= 0x8000;
    74b0:	7f69                	lui	t5,0xffffa
    74b2:	001f0613          	addi	a2,t5,1 # ffffa001 <STACK+0xfffe1931>
    74b6:	00c0c8b3          	xor	a7,ra,a2

000074ba <.LVL2834>:
    74ba:	01089f93          	slli	t6,a7,0x10
    74be:	010fd093          	srli	ra,t6,0x10

000074c2 <.L3103>:
                x16 = (ee_u8)((data & 1) ^ ((ee_u8)crc & 1));
    74c2:	01c0c2b3          	xor	t0,ra,t3
                if (x16 == 1)
    74c6:	0012f413          	andi	s0,t0,1
                data >>= 1;
    74ca:	00685713          	srli	a4,a6,0x6

000074ce <.LVL2836>:
                if (x16 == 1)
    74ce:	0010de93          	srli	t4,ra,0x1
    74d2:	c811                	beqz	s0,74e6 <.L3104>

000074d4 <.LVL2837>:
                   crc |= 0x8000;
    74d4:	76e9                	lui	a3,0xffffa
    74d6:	00168393          	addi	t2,a3,1 # ffffa001 <STACK+0xfffe1931>
    74da:	007ec7b3          	xor	a5,t4,t2

000074de <.LVL2838>:
    74de:	01079593          	slli	a1,a5,0x10
    74e2:	0105de93          	srli	t4,a1,0x10

000074e6 <.L3104>:
                x16 = (ee_u8)((data & 1) ^ ((ee_u8)crc & 1));
    74e6:	00eeca33          	xor	s4,t4,a4
                if (x16 == 1)
    74ea:	001a7e13          	andi	t3,s4,1
                data >>= 1;
    74ee:	00785813          	srli	a6,a6,0x7

000074f2 <.LVL2840>:
                if (x16 == 1)
    74f2:	001ed093          	srli	ra,t4,0x1
    74f6:	000e0b63          	beqz	t3,750c <.L3105>

000074fa <.LVL2841>:
                   crc |= 0x8000;
    74fa:	7f69                	lui	t5,0xffffa
    74fc:	001f0613          	addi	a2,t5,1 # ffffa001 <STACK+0xfffe1931>
    7500:	00c0c8b3          	xor	a7,ra,a2

00007504 <.LVL2842>:
    7504:	01089f93          	slli	t6,a7,0x10
    7508:	010fd093          	srli	ra,t6,0x10

0000750c <.L3105>:
                if (x16 == 1)
    750c:	0010f293          	andi	t0,ra,1
    7510:	0010d793          	srli	a5,ra,0x1
    7514:	01028b63          	beq	t0,a6,752a <.L3106>

00007518 <.LVL2844>:
                   crc |= 0x8000;
    7518:	7469                	lui	s0,0xffffa
    751a:	00140713          	addi	a4,s0,1 # ffffa001 <STACK+0xfffe1931>
    751e:	00e7c6b3          	xor	a3,a5,a4

00007522 <.LVL2845>:
    7522:	01069393          	slli	t2,a3,0x10
    7526:	0103d793          	srli	a5,t2,0x10

0000752a <.L3106>:
        crc=crcu8( (ee_u8) ((newval)>>8)        ,crc);
    752a:	8121                	srli	a0,a0,0x8

0000752c <.LBB1368>:
                x16 = (ee_u8)((data & 1) ^ ((ee_u8)crc & 1));
    752c:	00f545b3          	xor	a1,a0,a5

00007530 <.LBE1368>:
        crc=crcu8( (ee_u8) ((newval)>>8)        ,crc);
    7530:	0ff57e93          	andi	t4,a0,255

00007534 <.LBB1371>:
                if (x16 == 1)
    7534:	0015fa13          	andi	s4,a1,1
                data >>= 1;
    7538:	001ede13          	srli	t3,t4,0x1

0000753c <.LVL2848>:
                if (x16 == 1)
    753c:	0017df93          	srli	t6,a5,0x1
    7540:	000a0b63          	beqz	s4,7556 <.L3107>

00007544 <.LVL2849>:
                   crc |= 0x8000;
    7544:	7869                	lui	a6,0xffffa
    7546:	00180f13          	addi	t5,a6,1 # ffffa001 <STACK+0xfffe1931>
    754a:	01efc633          	xor	a2,t6,t5

0000754e <.LVL2850>:
    754e:	01061893          	slli	a7,a2,0x10
    7552:	0108df93          	srli	t6,a7,0x10

00007556 <.L3107>:
                x16 = (ee_u8)((data & 1) ^ ((ee_u8)crc & 1));
    7556:	01cfc0b3          	xor	ra,t6,t3
                if (x16 == 1)
    755a:	0010f293          	andi	t0,ra,1
                data >>= 1;
    755e:	002ed413          	srli	s0,t4,0x2

00007562 <.LVL2852>:
                if (x16 == 1)
    7562:	001fd513          	srli	a0,t6,0x1
    7566:	00028b63          	beqz	t0,757c <.L3108>

0000756a <.LVL2853>:
                   crc |= 0x8000;
    756a:	7769                	lui	a4,0xffffa
    756c:	00170693          	addi	a3,a4,1 # ffffa001 <STACK+0xfffe1931>
    7570:	00d543b3          	xor	t2,a0,a3

00007574 <.LVL2854>:
    7574:	01039793          	slli	a5,t2,0x10
    7578:	0107d513          	srli	a0,a5,0x10

0000757c <.L3108>:
                x16 = (ee_u8)((data & 1) ^ ((ee_u8)crc & 1));
    757c:	008545b3          	xor	a1,a0,s0
                if (x16 == 1)
    7580:	0015fa13          	andi	s4,a1,1
                data >>= 1;
    7584:	003ede13          	srli	t3,t4,0x3

00007588 <.LVL2856>:
                if (x16 == 1)
    7588:	00155f93          	srli	t6,a0,0x1
    758c:	000a0b63          	beqz	s4,75a2 <.L3109>

00007590 <.LVL2857>:
                   crc |= 0x8000;
    7590:	7869                	lui	a6,0xffffa
    7592:	00180f13          	addi	t5,a6,1 # ffffa001 <STACK+0xfffe1931>
    7596:	01efc633          	xor	a2,t6,t5

0000759a <.LVL2858>:
    759a:	01061893          	slli	a7,a2,0x10
    759e:	0108df93          	srli	t6,a7,0x10

000075a2 <.L3109>:
                x16 = (ee_u8)((data & 1) ^ ((ee_u8)crc & 1));
    75a2:	01cfc0b3          	xor	ra,t6,t3
                if (x16 == 1)
    75a6:	0010f293          	andi	t0,ra,1
                data >>= 1;
    75aa:	004ed413          	srli	s0,t4,0x4

000075ae <.LVL2860>:
                if (x16 == 1)
    75ae:	001fd513          	srli	a0,t6,0x1
    75b2:	00028b63          	beqz	t0,75c8 <.L3110>

000075b6 <.LVL2861>:
                   crc |= 0x8000;
    75b6:	7769                	lui	a4,0xffffa
    75b8:	00170693          	addi	a3,a4,1 # ffffa001 <STACK+0xfffe1931>
    75bc:	00d543b3          	xor	t2,a0,a3

000075c0 <.LVL2862>:
    75c0:	01039793          	slli	a5,t2,0x10
    75c4:	0107d513          	srli	a0,a5,0x10

000075c8 <.L3110>:
                x16 = (ee_u8)((data & 1) ^ ((ee_u8)crc & 1));
    75c8:	008545b3          	xor	a1,a0,s0
                if (x16 == 1)
    75cc:	0015fa13          	andi	s4,a1,1
                data >>= 1;
    75d0:	005ede13          	srli	t3,t4,0x5

000075d4 <.LVL2864>:
                if (x16 == 1)
    75d4:	00155f93          	srli	t6,a0,0x1
    75d8:	000a0b63          	beqz	s4,75ee <.L3111>

000075dc <.LVL2865>:
                   crc |= 0x8000;
    75dc:	7869                	lui	a6,0xffffa
    75de:	00180f13          	addi	t5,a6,1 # ffffa001 <STACK+0xfffe1931>
    75e2:	01efc633          	xor	a2,t6,t5

000075e6 <.LVL2866>:
    75e6:	01061893          	slli	a7,a2,0x10
    75ea:	0108df93          	srli	t6,a7,0x10

000075ee <.L3111>:
                x16 = (ee_u8)((data & 1) ^ ((ee_u8)crc & 1));
    75ee:	01cfc0b3          	xor	ra,t6,t3
                if (x16 == 1)
    75f2:	0010f293          	andi	t0,ra,1
                data >>= 1;
    75f6:	006ed413          	srli	s0,t4,0x6

000075fa <.LVL2868>:
                if (x16 == 1)
    75fa:	001fd513          	srli	a0,t6,0x1
    75fe:	00028b63          	beqz	t0,7614 <.L3112>

00007602 <.LVL2869>:
                   crc |= 0x8000;
    7602:	7769                	lui	a4,0xffffa
    7604:	00170693          	addi	a3,a4,1 # ffffa001 <STACK+0xfffe1931>
    7608:	00d543b3          	xor	t2,a0,a3

0000760c <.LVL2870>:
    760c:	01039793          	slli	a5,t2,0x10
    7610:	0107d513          	srli	a0,a5,0x10

00007614 <.L3112>:
                x16 = (ee_u8)((data & 1) ^ ((ee_u8)crc & 1));
    7614:	008545b3          	xor	a1,a0,s0
                if (x16 == 1)
    7618:	0015fa13          	andi	s4,a1,1
                data >>= 1;
    761c:	007ede93          	srli	t4,t4,0x7

00007620 <.LVL2872>:
                if (x16 == 1)
    7620:	00155893          	srli	a7,a0,0x1
    7624:	000a0b63          	beqz	s4,763a <.L3113>

00007628 <.LVL2873>:
                   crc |= 0x8000;
    7628:	7e69                	lui	t3,0xffffa
    762a:	001e0813          	addi	a6,t3,1 # ffffa001 <STACK+0xfffe1931>
    762e:	0108cf33          	xor	t5,a7,a6

00007632 <.LVL2874>:
    7632:	010f1613          	slli	a2,t5,0x10
    7636:	01065893          	srli	a7,a2,0x10

0000763a <.L3113>:
                x16 = (ee_u8)((data & 1) ^ ((ee_u8)crc & 1));
    763a:	011ecfb3          	xor	t6,t4,a7
                if (x16 == 1)
    763e:	001ff093          	andi	ra,t6,1
    7642:	0018d393          	srli	t2,a7,0x1
    7646:	00008b63          	beqz	ra,765c <.L3114>

0000764a <.LVL2876>:
                   crc |= 0x8000;
    764a:	72e9                	lui	t0,0xffffa
    764c:	00128413          	addi	s0,t0,1 # ffffa001 <STACK+0xfffe1931>
    7650:	0083c733          	xor	a4,t2,s0
    7654:	01071693          	slli	a3,a4,0x10
    7658:	0106d393          	srli	t2,a3,0x10

0000765c <.L3114>:
                retval &= 0x007f;
    765c:	07f37a13          	andi	s4,t1,127
                *pdata = (data & 0xff00) | 0x0080 | retval; /* cache the result */
    7660:	f0097913          	andi	s2,s2,-256

00007664 <.LVL2878>:
    7664:	012a6333          	or	t1,s4,s2

00007668 <.LVL2879>:
                res->crc=crcu16(retval,res->crc);
    7668:	02749c23          	sh	t2,56(s1)

0000766c <.LVL2880>:
                *pdata = (data & 0xff00) | 0x0080 | retval; /* cache the result */
    766c:	08036793          	ori	a5,t1,128
    7670:	00fa9023          	sh	a5,0(s5) # ffffa000 <STACK+0xfffe1930>

00007674 <.L3077>:
        ee_s16 data=*pdata;
    7674:	00099a83          	lh	s5,0(s3)

00007678 <.LVL2882>:
        ee_u8 optype=(data>>7) & 1; /* bit 7 indicates if the function result has been cached */
    7678:	407ad513          	srai	a0,s5,0x7
        if (optype) /* if cached, use cache */
    767c:	00157593          	andi	a1,a0,1
                return (data & 0x007f);
    7680:	07faf893          	andi	a7,s5,127
        if (optype) /* if cached, use cache */
    7684:	50059c63          	bnez	a1,7b9c <.L3116>

00007688 <.LBB1402>:
                ee_s16 dtype=((data>>3) & 0xf); /* bits 3-6 is specific data for the operation */
    7688:	403ade93          	srai	t4,s5,0x3
    768c:	00fefe13          	andi	t3,t4,15
                dtype |= dtype << 4; /* replicate the lower 4 bits to get an 8b value */
    7690:	004e1813          	slli	a6,t3,0x4
                ee_s16 flag=data & 0x7; /* bits 0-2 is type of function to perform */
    7694:	007aff13          	andi	t5,s5,7

00007698 <.LVL2883>:
                                retval=core_bench_state(res->size,res->memblock[3],res->seed1,res->seed2,dtype,res->crc);
    7698:	0384d403          	lhu	s0,56(s1)
                dtype |= dtype << 4; /* replicate the lower 4 bits to get an 8b value */
    769c:	010e6733          	or	a4,t3,a6

000076a0 <.LVL2884>:
                switch (flag) {
    76a0:	500f0f63          	beqz	t5,7bbe <.L3117>
    76a4:	4085                	li	ra,1
    76a6:	501f1663          	bne	t5,ra,7bb2 <.L3347>

000076aa <.LBB1403>:
        crc=crc16(matrix_test(N,C,A,B,val),crc);
    76aa:	5894                	lw	a3,48(s1)
    76ac:	54d0                	lw	a2,44(s1)
    76ae:	58cc                	lw	a1,52(s1)
    76b0:	5488                	lw	a0,40(s1)
    76b2:	bd9fc0ef          	jal	ra,428a <matrix_test>

000076b6 <.LBB1405>:
                x16 = (ee_u8)((data & 1) ^ ((ee_u8)crc & 1));
    76b6:	00854733          	xor	a4,a0,s0

000076ba <.LBE1407>:
        return crcu16((ee_u16)newval, crc);
    76ba:	01051913          	slli	s2,a0,0x10

000076be <.LBB1421>:
        crc=crcu8( (ee_u8) (newval)                             ,crc);
    76be:	0ff57693          	andi	a3,a0,255

000076c2 <.LBB1413>:
                if (x16 == 1)
    76c2:	00177393          	andi	t2,a4,1

000076c6 <.LBE1413>:
        return crcu16((ee_u16)newval, crc);
    76c6:	01095313          	srli	t1,s2,0x10

000076ca <.LBB1414>:
                data >>= 1;
    76ca:	0016d513          	srli	a0,a3,0x1

000076ce <.LVL2888>:
                if (x16 == 1)
    76ce:	00145e13          	srli	t3,s0,0x1
    76d2:	00038b63          	beqz	t2,76e8 <.L3122>

000076d6 <.LVL2889>:
                   crc |= 0x8000;
    76d6:	7469                	lui	s0,0xffffa

000076d8 <.LVL2890>:
    76d8:	00140593          	addi	a1,s0,1 # ffffa001 <STACK+0xfffe1931>
    76dc:	00be47b3          	xor	a5,t3,a1

000076e0 <.LVL2891>:
    76e0:	01079e93          	slli	t4,a5,0x10
    76e4:	010ede13          	srli	t3,t4,0x10

000076e8 <.L3122>:
                x16 = (ee_u8)((data & 1) ^ ((ee_u8)crc & 1));
    76e8:	01c54833          	xor	a6,a0,t3
                if (x16 == 1)
    76ec:	00187f13          	andi	t5,a6,1
                data >>= 1;
    76f0:	0026d613          	srli	a2,a3,0x2

000076f4 <.LVL2893>:
                if (x16 == 1)
    76f4:	001e5713          	srli	a4,t3,0x1
    76f8:	000f0b63          	beqz	t5,770e <.L3123>

000076fc <.LVL2894>:
                   crc |= 0x8000;
    76fc:	78e9                	lui	a7,0xffffa
    76fe:	00188f93          	addi	t6,a7,1 # ffffa001 <STACK+0xfffe1931>
    7702:	01f742b3          	xor	t0,a4,t6

00007706 <.LVL2895>:
    7706:	01029093          	slli	ra,t0,0x10
    770a:	0100d713          	srli	a4,ra,0x10

0000770e <.L3123>:
                x16 = (ee_u8)((data & 1) ^ ((ee_u8)crc & 1));
    770e:	00e643b3          	xor	t2,a2,a4
                if (x16 == 1)
    7712:	0013f913          	andi	s2,t2,1
                data >>= 1;
    7716:	0036d513          	srli	a0,a3,0x3

0000771a <.LVL2897>:
                if (x16 == 1)
    771a:	00175e13          	srli	t3,a4,0x1
    771e:	00090b63          	beqz	s2,7734 <.L3124>

00007722 <.LVL2898>:
                   crc |= 0x8000;
    7722:	7469                	lui	s0,0xffffa
    7724:	00140593          	addi	a1,s0,1 # ffffa001 <STACK+0xfffe1931>
    7728:	00be47b3          	xor	a5,t3,a1

0000772c <.LVL2899>:
    772c:	01079e93          	slli	t4,a5,0x10
    7730:	010ede13          	srli	t3,t4,0x10

00007734 <.L3124>:
                x16 = (ee_u8)((data & 1) ^ ((ee_u8)crc & 1));
    7734:	01c54833          	xor	a6,a0,t3
                if (x16 == 1)
    7738:	00187f13          	andi	t5,a6,1
                data >>= 1;
    773c:	0046d613          	srli	a2,a3,0x4

00007740 <.LVL2901>:
                if (x16 == 1)
    7740:	001e5713          	srli	a4,t3,0x1
    7744:	000f0b63          	beqz	t5,775a <.L3125>

00007748 <.LVL2902>:
                   crc |= 0x8000;
    7748:	78e9                	lui	a7,0xffffa
    774a:	00188f93          	addi	t6,a7,1 # ffffa001 <STACK+0xfffe1931>
    774e:	01f742b3          	xor	t0,a4,t6

00007752 <.LVL2903>:
    7752:	01029093          	slli	ra,t0,0x10
    7756:	0100d713          	srli	a4,ra,0x10

0000775a <.L3125>:
                x16 = (ee_u8)((data & 1) ^ ((ee_u8)crc & 1));
    775a:	00e643b3          	xor	t2,a2,a4
                if (x16 == 1)
    775e:	0013f913          	andi	s2,t2,1
                data >>= 1;
    7762:	0056d513          	srli	a0,a3,0x5

00007766 <.LVL2905>:
                if (x16 == 1)
    7766:	00175e13          	srli	t3,a4,0x1
    776a:	00090b63          	beqz	s2,7780 <.L3126>

0000776e <.LVL2906>:
                   crc |= 0x8000;
    776e:	7469                	lui	s0,0xffffa
    7770:	00140593          	addi	a1,s0,1 # ffffa001 <STACK+0xfffe1931>
    7774:	00be47b3          	xor	a5,t3,a1

00007778 <.LVL2907>:
    7778:	01079e93          	slli	t4,a5,0x10
    777c:	010ede13          	srli	t3,t4,0x10

00007780 <.L3126>:
                x16 = (ee_u8)((data & 1) ^ ((ee_u8)crc & 1));
    7780:	00ae4833          	xor	a6,t3,a0
                if (x16 == 1)
    7784:	00187f13          	andi	t5,a6,1
                data >>= 1;
    7788:	0066d613          	srli	a2,a3,0x6

0000778c <.LVL2909>:
                if (x16 == 1)
    778c:	001e5713          	srli	a4,t3,0x1
    7790:	000f0b63          	beqz	t5,77a6 <.L3127>

00007794 <.LVL2910>:
                   crc |= 0x8000;
    7794:	78e9                	lui	a7,0xffffa
    7796:	00188f93          	addi	t6,a7,1 # ffffa001 <STACK+0xfffe1931>
    779a:	01f742b3          	xor	t0,a4,t6

0000779e <.LVL2911>:
    779e:	01029093          	slli	ra,t0,0x10
    77a2:	0100d713          	srli	a4,ra,0x10

000077a6 <.L3127>:
                x16 = (ee_u8)((data & 1) ^ ((ee_u8)crc & 1));
    77a6:	00c743b3          	xor	t2,a4,a2
                if (x16 == 1)
    77aa:	0013f913          	andi	s2,t2,1
                data >>= 1;
    77ae:	829d                	srli	a3,a3,0x7

000077b0 <.LVL2913>:
                if (x16 == 1)
    77b0:	00175e93          	srli	t4,a4,0x1
    77b4:	00090b63          	beqz	s2,77ca <.L3128>

000077b8 <.LVL2914>:
                   crc |= 0x8000;
    77b8:	7569                	lui	a0,0xffffa
    77ba:	00150413          	addi	s0,a0,1 # ffffa001 <STACK+0xfffe1931>
    77be:	008ec5b3          	xor	a1,t4,s0

000077c2 <.LVL2915>:
    77c2:	01059793          	slli	a5,a1,0x10
    77c6:	0107de93          	srli	t4,a5,0x10

000077ca <.L3128>:
                if (x16 == 1)
    77ca:	001efe13          	andi	t3,t4,1
    77ce:	001edf93          	srli	t6,t4,0x1
    77d2:	00de0b63          	beq	t3,a3,77e8 <.L3129>

000077d6 <.LVL2917>:
                   crc |= 0x8000;
    77d6:	7869                	lui	a6,0xffffa
    77d8:	00180f13          	addi	t5,a6,1 # ffffa001 <STACK+0xfffe1931>
    77dc:	01efc633          	xor	a2,t6,t5

000077e0 <.LVL2918>:
    77e0:	01061893          	slli	a7,a2,0x10
    77e4:	0108df93          	srli	t6,a7,0x10

000077e8 <.L3129>:
        crc=crcu8( (ee_u8) ((newval)>>8)        ,crc);
    77e8:	00835293          	srli	t0,t1,0x8

000077ec <.LBB1415>:
                x16 = (ee_u8)((data & 1) ^ ((ee_u8)crc & 1));
    77ec:	01f2c0b3          	xor	ra,t0,t6
                if (x16 == 1)
    77f0:	0010f393          	andi	t2,ra,1

000077f4 <.LBE1415>:
        crc=crcu8( (ee_u8) ((newval)>>8)        ,crc);
    77f4:	00835913          	srli	s2,t1,0x8

000077f8 <.LBB1418>:
                data >>= 1;
    77f8:	001fd593          	srli	a1,t6,0x1
    77fc:	00935313          	srli	t1,t1,0x9

00007800 <.LVL2921>:
                if (x16 == 1)
    7800:	00038b63          	beqz	t2,7816 <.L3130>

00007804 <.LVL2922>:
                   crc |= 0x8000;
    7804:	7769                	lui	a4,0xffffa
    7806:	00170693          	addi	a3,a4,1 # ffffa001 <STACK+0xfffe1931>
    780a:	00d5c533          	xor	a0,a1,a3

0000780e <.LVL2923>:
    780e:	01051413          	slli	s0,a0,0x10
    7812:	01045593          	srli	a1,s0,0x10

00007816 <.L3130>:
                x16 = (ee_u8)((data & 1) ^ ((ee_u8)crc & 1));
    7816:	00b347b3          	xor	a5,t1,a1
                if (x16 == 1)
    781a:	0017fe93          	andi	t4,a5,1
                data >>= 1;
    781e:	00295e13          	srli	t3,s2,0x2

00007822 <.LVL2925>:
                if (x16 == 1)
    7822:	0015df93          	srli	t6,a1,0x1
    7826:	000e8b63          	beqz	t4,783c <.L3131>

0000782a <.LVL2926>:
                   crc |= 0x8000;
    782a:	7869                	lui	a6,0xffffa
    782c:	00180f13          	addi	t5,a6,1 # ffffa001 <STACK+0xfffe1931>
    7830:	01efc633          	xor	a2,t6,t5

00007834 <.LVL2927>:
    7834:	01061893          	slli	a7,a2,0x10
    7838:	0108df93          	srli	t6,a7,0x10

0000783c <.L3131>:
                x16 = (ee_u8)((data & 1) ^ ((ee_u8)crc & 1));
    783c:	01fe42b3          	xor	t0,t3,t6
                if (x16 == 1)
    7840:	0012f093          	andi	ra,t0,1
                data >>= 1;
    7844:	00395393          	srli	t2,s2,0x3

00007848 <.LVL2929>:
                if (x16 == 1)
    7848:	001fd413          	srli	s0,t6,0x1
    784c:	00008b63          	beqz	ra,7862 <.L3132>

00007850 <.LVL2930>:
                   crc |= 0x8000;
    7850:	7369                	lui	t1,0xffffa
    7852:	00130713          	addi	a4,t1,1 # ffffa001 <STACK+0xfffe1931>
    7856:	00e446b3          	xor	a3,s0,a4

0000785a <.LVL2931>:
    785a:	01069513          	slli	a0,a3,0x10
    785e:	01055413          	srli	s0,a0,0x10

00007862 <.L3132>:
                x16 = (ee_u8)((data & 1) ^ ((ee_u8)crc & 1));
    7862:	0083c5b3          	xor	a1,t2,s0
                if (x16 == 1)
    7866:	0015fe93          	andi	t4,a1,1
                data >>= 1;
    786a:	00495e13          	srli	t3,s2,0x4

0000786e <.LVL2933>:
                if (x16 == 1)
    786e:	00145893          	srli	a7,s0,0x1
    7872:	000e8b63          	beqz	t4,7888 <.L3133>

00007876 <.LVL2934>:
                   crc |= 0x8000;
    7876:	7869                	lui	a6,0xffffa
    7878:	00180f13          	addi	t5,a6,1 # ffffa001 <STACK+0xfffe1931>
    787c:	01e8c7b3          	xor	a5,a7,t5

00007880 <.LVL2935>:
    7880:	01079613          	slli	a2,a5,0x10
    7884:	01065893          	srli	a7,a2,0x10

00007888 <.L3133>:
                x16 = (ee_u8)((data & 1) ^ ((ee_u8)crc & 1));
    7888:	011e4fb3          	xor	t6,t3,a7
                if (x16 == 1)
    788c:	001ff293          	andi	t0,t6,1
                data >>= 1;
    7890:	00595093          	srli	ra,s2,0x5

00007894 <.LVL2937>:
                if (x16 == 1)
    7894:	0018d513          	srli	a0,a7,0x1
    7898:	00028b63          	beqz	t0,78ae <.L3134>

0000789c <.LVL2938>:
                   crc |= 0x8000;
    789c:	73e9                	lui	t2,0xffffa
    789e:	00138313          	addi	t1,t2,1 # ffffa001 <STACK+0xfffe1931>
    78a2:	00654733          	xor	a4,a0,t1

000078a6 <.LVL2939>:
    78a6:	01071693          	slli	a3,a4,0x10
    78aa:	0106d513          	srli	a0,a3,0x10

000078ae <.L3134>:
                x16 = (ee_u8)((data & 1) ^ ((ee_u8)crc & 1));
    78ae:	00a0c433          	xor	s0,ra,a0
                if (x16 == 1)
    78b2:	00147593          	andi	a1,s0,1
                data >>= 1;
    78b6:	00695e93          	srli	t4,s2,0x6

000078ba <.LVL2941>:
                if (x16 == 1)
    78ba:	00155893          	srli	a7,a0,0x1
    78be:	c991                	beqz	a1,78d2 <.L3135>

000078c0 <.LVL2942>:
                   crc |= 0x8000;
    78c0:	7e69                	lui	t3,0xffffa
    78c2:	001e0813          	addi	a6,t3,1 # ffffa001 <STACK+0xfffe1931>
    78c6:	0108cf33          	xor	t5,a7,a6

000078ca <.LVL2943>:
    78ca:	010f1793          	slli	a5,t5,0x10
    78ce:	0107d893          	srli	a7,a5,0x10

000078d2 <.L3135>:
                x16 = (ee_u8)((data & 1) ^ ((ee_u8)crc & 1));
    78d2:	011ec633          	xor	a2,t4,a7
                if (x16 == 1)
    78d6:	00167f93          	andi	t6,a2,1
                data >>= 1;
    78da:	00795913          	srli	s2,s2,0x7

000078de <.LVL2945>:
                if (x16 == 1)
    78de:	0018d713          	srli	a4,a7,0x1
    78e2:	000f8b63          	beqz	t6,78f8 <.L3136>

000078e6 <.LVL2946>:
                   crc |= 0x8000;
    78e6:	72e9                	lui	t0,0xffffa
    78e8:	00128093          	addi	ra,t0,1 # ffffa001 <STACK+0xfffe1931>
    78ec:	001743b3          	xor	t2,a4,ra

000078f0 <.LVL2947>:
    78f0:	01039313          	slli	t1,t2,0x10
    78f4:	01035713          	srli	a4,t1,0x10

000078f8 <.L3136>:
                if (x16 == 1)
    78f8:	00177513          	andi	a0,a4,1
    78fc:	00175e13          	srli	t3,a4,0x1
    7900:	01250b63          	beq	a0,s2,7916 <.L3137>

00007904 <.LVL2949>:
                   crc |= 0x8000;
    7904:	7469                	lui	s0,0xffffa
    7906:	00140593          	addi	a1,s0,1 # ffffa001 <STACK+0xfffe1931>
    790a:	00be46b3          	xor	a3,t3,a1
    790e:	01069e93          	slli	t4,a3,0x10
    7912:	010ede13          	srli	t3,t4,0x10

00007916 <.L3137>:
                                if (res->crcmatrix==0)
    7916:	03c4d803          	lhu	a6,60(s1)
                                retval=core_bench_matrix(&(res->mat),dtype,res->crc);
    791a:	010e1f13          	slli	t5,t3,0x10
                res->crc=crcu16(retval,res->crc);
    791e:	0384d403          	lhu	s0,56(s1)
                                retval=core_bench_matrix(&(res->mat),dtype,res->crc);
    7922:	410f5893          	srai	a7,t5,0x10

00007926 <.LVL2951>:
                                if (res->crcmatrix==0)
    7926:	00081463          	bnez	a6,792e <.L3119>
                                        res->crcmatrix=retval;
    792a:	03c49e23          	sh	t3,60(s1)

0000792e <.L3119>:
                x16 = (ee_u8)((data & 1) ^ ((ee_u8)crc & 1));
    792e:	0088cfb3          	xor	t6,a7,s0

00007932 <.LBE1425>:
        crc=crcu8( (ee_u8) (newval)                             ,crc);
    7932:	0ff8f613          	andi	a2,a7,255

00007936 <.LBB1428>:
                if (x16 == 1)
    7936:	001ff913          	andi	s2,t6,1
                data >>= 1;
    793a:	00165293          	srli	t0,a2,0x1

0000793e <.LVL2954>:
                if (x16 == 1)
    793e:	00145693          	srli	a3,s0,0x1
    7942:	00090b63          	beqz	s2,7958 <.L3138>

00007946 <.LVL2955>:
                   crc |= 0x8000;
    7946:	70e9                	lui	ra,0xffffa
    7948:	00108393          	addi	t2,ra,1 # ffffa001 <STACK+0xfffe1931>
    794c:	0076c333          	xor	t1,a3,t2

00007950 <.LVL2956>:
    7950:	01031713          	slli	a4,t1,0x10
    7954:	01075693          	srli	a3,a4,0x10

00007958 <.L3138>:
                x16 = (ee_u8)((data & 1) ^ ((ee_u8)crc & 1));
    7958:	0056c533          	xor	a0,a3,t0
                if (x16 == 1)
    795c:	00157e93          	andi	t4,a0,1
                data >>= 1;
    7960:	00265593          	srli	a1,a2,0x2

00007964 <.LVL2958>:
                if (x16 == 1)
    7964:	0016df93          	srli	t6,a3,0x1
    7968:	000e8b63          	beqz	t4,797e <.L3139>

0000796c <.LVL2959>:
                   crc |= 0x8000;
    796c:	7869                	lui	a6,0xffffa
    796e:	00180413          	addi	s0,a6,1 # ffffa001 <STACK+0xfffe1931>
    7972:	008fcf33          	xor	t5,t6,s0

00007976 <.LVL2960>:
    7976:	010f1793          	slli	a5,t5,0x10
    797a:	0107df93          	srli	t6,a5,0x10

0000797e <.L3139>:
                x16 = (ee_u8)((data & 1) ^ ((ee_u8)crc & 1));
    797e:	00bfc933          	xor	s2,t6,a1
                if (x16 == 1)
    7982:	00197293          	andi	t0,s2,1
                data >>= 1;
    7986:	00365093          	srli	ra,a2,0x3

0000798a <.LVL2962>:
                if (x16 == 1)
    798a:	001fde93          	srli	t4,t6,0x1
    798e:	00028b63          	beqz	t0,79a4 <.L3140>

00007992 <.LVL2963>:
                   crc |= 0x8000;
    7992:	73e9                	lui	t2,0xffffa
    7994:	00138313          	addi	t1,t2,1 # ffffa001 <STACK+0xfffe1931>
    7998:	006ec733          	xor	a4,t4,t1

0000799c <.LVL2964>:
    799c:	01071693          	slli	a3,a4,0x10
    79a0:	0106de93          	srli	t4,a3,0x10

000079a4 <.L3140>:
                x16 = (ee_u8)((data & 1) ^ ((ee_u8)crc & 1));
    79a4:	001ec533          	xor	a0,t4,ra
                if (x16 == 1)
    79a8:	00157813          	andi	a6,a0,1
                data >>= 1;
    79ac:	00465593          	srli	a1,a2,0x4

000079b0 <.LVL2966>:
                if (x16 == 1)
    79b0:	001ed913          	srli	s2,t4,0x1
    79b4:	00080b63          	beqz	a6,79ca <.L3141>

000079b8 <.LVL2967>:
                   crc |= 0x8000;
    79b8:	7469                	lui	s0,0xffffa
    79ba:	00140f13          	addi	t5,s0,1 # ffffa001 <STACK+0xfffe1931>
    79be:	01e947b3          	xor	a5,s2,t5

000079c2 <.LVL2968>:
    79c2:	01079f93          	slli	t6,a5,0x10
    79c6:	010fd913          	srli	s2,t6,0x10

000079ca <.L3141>:
                x16 = (ee_u8)((data & 1) ^ ((ee_u8)crc & 1));
    79ca:	00b942b3          	xor	t0,s2,a1
                if (x16 == 1)
    79ce:	0012f093          	andi	ra,t0,1
                data >>= 1;
    79d2:	00565393          	srli	t2,a2,0x5

000079d6 <.LVL2970>:
                if (x16 == 1)
    79d6:	00195813          	srli	a6,s2,0x1
    79da:	00008b63          	beqz	ra,79f0 <.L3142>

000079de <.LVL2971>:
                   crc |= 0x8000;
    79de:	7369                	lui	t1,0xffffa
    79e0:	00130713          	addi	a4,t1,1 # ffffa001 <STACK+0xfffe1931>
    79e4:	00e846b3          	xor	a3,a6,a4

000079e8 <.LVL2972>:
    79e8:	01069e93          	slli	t4,a3,0x10
    79ec:	010ed813          	srli	a6,t4,0x10

000079f0 <.L3142>:
                x16 = (ee_u8)((data & 1) ^ ((ee_u8)crc & 1));
    79f0:	00784533          	xor	a0,a6,t2
                if (x16 == 1)
    79f4:	00157413          	andi	s0,a0,1
                data >>= 1;
    79f8:	00665593          	srli	a1,a2,0x6

000079fc <.LVL2974>:
                if (x16 == 1)
    79fc:	00185293          	srli	t0,a6,0x1
    7a00:	c811                	beqz	s0,7a14 <.L3143>

00007a02 <.LVL2975>:
                   crc |= 0x8000;
    7a02:	7f69                	lui	t5,0xffffa
    7a04:	001f0f93          	addi	t6,t5,1 # ffffa001 <STACK+0xfffe1931>
    7a08:	01f2c7b3          	xor	a5,t0,t6

00007a0c <.LVL2976>:
    7a0c:	01079913          	slli	s2,a5,0x10
    7a10:	01095293          	srli	t0,s2,0x10

00007a14 <.L3143>:
                x16 = (ee_u8)((data & 1) ^ ((ee_u8)crc & 1));
    7a14:	0055c0b3          	xor	ra,a1,t0
                if (x16 == 1)
    7a18:	0010f393          	andi	t2,ra,1
                data >>= 1;
    7a1c:	821d                	srli	a2,a2,0x7

00007a1e <.LVL2978>:
                if (x16 == 1)
    7a1e:	0012d813          	srli	a6,t0,0x1
    7a22:	00038b63          	beqz	t2,7a38 <.L3144>

00007a26 <.LVL2979>:
                   crc |= 0x8000;
    7a26:	7369                	lui	t1,0xffffa
    7a28:	00130713          	addi	a4,t1,1 # ffffa001 <STACK+0xfffe1931>
    7a2c:	00e846b3          	xor	a3,a6,a4

00007a30 <.LVL2980>:
    7a30:	01069e93          	slli	t4,a3,0x10
    7a34:	010ed813          	srli	a6,t4,0x10

00007a38 <.L3144>:
                if (x16 == 1)
    7a38:	00187513          	andi	a0,a6,1
    7a3c:	00185793          	srli	a5,a6,0x1
    7a40:	00c50b63          	beq	a0,a2,7a56 <.L3145>

00007a44 <.LVL2982>:
                   crc |= 0x8000;
    7a44:	7469                	lui	s0,0xffffa
    7a46:	00140593          	addi	a1,s0,1 # ffffa001 <STACK+0xfffe1931>
    7a4a:	00b7cf33          	xor	t5,a5,a1

00007a4e <.LVL2983>:
    7a4e:	010f1f93          	slli	t6,t5,0x10
    7a52:	010fd793          	srli	a5,t6,0x10

00007a56 <.L3145>:
        crc=crcu8( (ee_u8) ((newval)>>8)        ,crc);
    7a56:	008e5e13          	srli	t3,t3,0x8

00007a5a <.LBB1429>:
                x16 = (ee_u8)((data & 1) ^ ((ee_u8)crc & 1));
    7a5a:	00fe4933          	xor	s2,t3,a5

00007a5e <.LBE1429>:
        crc=crcu8( (ee_u8) ((newval)>>8)        ,crc);
    7a5e:	0ffe7293          	andi	t0,t3,255

00007a62 <.LBB1432>:
                if (x16 == 1)
    7a62:	00197093          	andi	ra,s2,1
                data >>= 1;
    7a66:	0012d393          	srli	t2,t0,0x1

00007a6a <.LVL2986>:
                if (x16 == 1)
    7a6a:	0017de93          	srli	t4,a5,0x1
    7a6e:	00008b63          	beqz	ra,7a84 <.L3146>

00007a72 <.LVL2987>:
                   crc |= 0x8000;
    7a72:	7669                	lui	a2,0xffffa
    7a74:	00160313          	addi	t1,a2,1 # ffffa001 <STACK+0xfffe1931>
    7a78:	006ec733          	xor	a4,t4,t1

00007a7c <.LVL2988>:
    7a7c:	01071693          	slli	a3,a4,0x10
    7a80:	0106de93          	srli	t4,a3,0x10

00007a84 <.L3146>:
                x16 = (ee_u8)((data & 1) ^ ((ee_u8)crc & 1));
    7a84:	01d3c833          	xor	a6,t2,t4
                if (x16 == 1)
    7a88:	00187513          	andi	a0,a6,1
                data >>= 1;
    7a8c:	0022d413          	srli	s0,t0,0x2

00007a90 <.LVL2990>:
                if (x16 == 1)
    7a90:	001ede13          	srli	t3,t4,0x1
    7a94:	c911                	beqz	a0,7aa8 <.L3147>

00007a96 <.LVL2991>:
                   crc |= 0x8000;
    7a96:	75e9                	lui	a1,0xffffa
    7a98:	00158f13          	addi	t5,a1,1 # ffffa001 <STACK+0xfffe1931>
    7a9c:	01ee4fb3          	xor	t6,t3,t5

00007aa0 <.LVL2992>:
    7aa0:	010f9793          	slli	a5,t6,0x10
    7aa4:	0107de13          	srli	t3,a5,0x10

00007aa8 <.L3147>:
                x16 = (ee_u8)((data & 1) ^ ((ee_u8)crc & 1));
    7aa8:	008e4933          	xor	s2,t3,s0
                if (x16 == 1)
    7aac:	00197093          	andi	ra,s2,1
                data >>= 1;
    7ab0:	0032d393          	srli	t2,t0,0x3

00007ab4 <.LVL2994>:
                if (x16 == 1)
    7ab4:	001e5e93          	srli	t4,t3,0x1
    7ab8:	00008b63          	beqz	ra,7ace <.L3148>

00007abc <.LVL2995>:
                   crc |= 0x8000;
    7abc:	7669                	lui	a2,0xffffa
    7abe:	00160313          	addi	t1,a2,1 # ffffa001 <STACK+0xfffe1931>
    7ac2:	006ec733          	xor	a4,t4,t1

00007ac6 <.LVL2996>:
    7ac6:	01071693          	slli	a3,a4,0x10
    7aca:	0106de93          	srli	t4,a3,0x10

00007ace <.L3148>:
                x16 = (ee_u8)((data & 1) ^ ((ee_u8)crc & 1));
    7ace:	01d3c833          	xor	a6,t2,t4
                if (x16 == 1)
    7ad2:	00187513          	andi	a0,a6,1
                data >>= 1;
    7ad6:	0042d413          	srli	s0,t0,0x4

00007ada <.LVL2998>:
                if (x16 == 1)
    7ada:	001ede13          	srli	t3,t4,0x1
    7ade:	c911                	beqz	a0,7af2 <.L3149>

00007ae0 <.LVL2999>:
                   crc |= 0x8000;
    7ae0:	75e9                	lui	a1,0xffffa
    7ae2:	00158f13          	addi	t5,a1,1 # ffffa001 <STACK+0xfffe1931>
    7ae6:	01ee4fb3          	xor	t6,t3,t5

00007aea <.LVL3000>:
    7aea:	010f9793          	slli	a5,t6,0x10
    7aee:	0107de13          	srli	t3,a5,0x10

00007af2 <.L3149>:
                x16 = (ee_u8)((data & 1) ^ ((ee_u8)crc & 1));
    7af2:	01c44933          	xor	s2,s0,t3
                if (x16 == 1)
    7af6:	00197093          	andi	ra,s2,1
                data >>= 1;
    7afa:	0052d393          	srli	t2,t0,0x5

00007afe <.LVL3002>:
                if (x16 == 1)
    7afe:	001e5e93          	srli	t4,t3,0x1
    7b02:	00008b63          	beqz	ra,7b18 <.L3150>

00007b06 <.LVL3003>:
                   crc |= 0x8000;
    7b06:	7669                	lui	a2,0xffffa
    7b08:	00160313          	addi	t1,a2,1 # ffffa001 <STACK+0xfffe1931>
    7b0c:	006ec733          	xor	a4,t4,t1

00007b10 <.LVL3004>:
    7b10:	01071693          	slli	a3,a4,0x10
    7b14:	0106de93          	srli	t4,a3,0x10

00007b18 <.L3150>:
                x16 = (ee_u8)((data & 1) ^ ((ee_u8)crc & 1));
    7b18:	01d3c833          	xor	a6,t2,t4
                if (x16 == 1)
    7b1c:	00187513          	andi	a0,a6,1
                data >>= 1;
    7b20:	0062d413          	srli	s0,t0,0x6

00007b24 <.LVL3006>:
                if (x16 == 1)
    7b24:	001ede13          	srli	t3,t4,0x1
    7b28:	c911                	beqz	a0,7b3c <.L3151>

00007b2a <.LVL3007>:
                   crc |= 0x8000;
    7b2a:	75e9                	lui	a1,0xffffa
    7b2c:	00158f13          	addi	t5,a1,1 # ffffa001 <STACK+0xfffe1931>
    7b30:	01ee4fb3          	xor	t6,t3,t5

00007b34 <.LVL3008>:
    7b34:	010f9793          	slli	a5,t6,0x10
    7b38:	0107de13          	srli	t3,a5,0x10

00007b3c <.L3151>:
                x16 = (ee_u8)((data & 1) ^ ((ee_u8)crc & 1));
    7b3c:	01c44933          	xor	s2,s0,t3
                if (x16 == 1)
    7b40:	00197093          	andi	ra,s2,1
                data >>= 1;
    7b44:	0072d293          	srli	t0,t0,0x7

00007b48 <.LVL3010>:
                if (x16 == 1)
    7b48:	001e5e93          	srli	t4,t3,0x1
    7b4c:	00008b63          	beqz	ra,7b62 <.L3152>

00007b50 <.LVL3011>:
                   crc |= 0x8000;
    7b50:	73e9                	lui	t2,0xffffa
    7b52:	00138613          	addi	a2,t2,1 # ffffa001 <STACK+0xfffe1931>
    7b56:	00cec333          	xor	t1,t4,a2

00007b5a <.LVL3012>:
    7b5a:	01031713          	slli	a4,t1,0x10
    7b5e:	01075e93          	srli	t4,a4,0x10

00007b62 <.L3152>:
                x16 = (ee_u8)((data & 1) ^ ((ee_u8)crc & 1));
    7b62:	01d2c6b3          	xor	a3,t0,t4
                if (x16 == 1)
    7b66:	0016f813          	andi	a6,a3,1
    7b6a:	001edf93          	srli	t6,t4,0x1
    7b6e:	00080b63          	beqz	a6,7b84 <.L3153>

00007b72 <.LVL3014>:
                   crc |= 0x8000;
    7b72:	7569                	lui	a0,0xffffa
    7b74:	00150413          	addi	s0,a0,1 # ffffa001 <STACK+0xfffe1931>
    7b78:	008fc5b3          	xor	a1,t6,s0
    7b7c:	01059f13          	slli	t5,a1,0x10
    7b80:	010f5f93          	srli	t6,t5,0x10

00007b84 <.L3153>:
                retval &= 0x007f;
    7b84:	07f8f893          	andi	a7,a7,127

00007b88 <.LVL3016>:
                *pdata = (data & 0xff00) | 0x0080 | retval; /* cache the result */
    7b88:	f00afa93          	andi	s5,s5,-256

00007b8c <.LVL3017>:
    7b8c:	0158e7b3          	or	a5,a7,s5
                res->crc=crcu16(retval,res->crc);
    7b90:	03f49c23          	sh	t6,56(s1)

00007b94 <.LVL3018>:
                *pdata = (data & 0xff00) | 0x0080 | retval; /* cache the result */
    7b94:	0807e493          	ori	s1,a5,128

00007b98 <.LVL3019>:
    7b98:	00999023          	sh	s1,0(s3)

00007b9c <.L3116>:
}
    7b9c:	40f2                	lw	ra,28(sp)
    7b9e:	4462                	lw	s0,24(sp)
    7ba0:	44d2                	lw	s1,20(sp)
    7ba2:	4942                	lw	s2,16(sp)
    7ba4:	49b2                	lw	s3,12(sp)

00007ba6 <.LVL3021>:
    7ba6:	4a92                	lw	s5,4(sp)
    7ba8:	411a0533          	sub	a0,s4,a7
    7bac:	4a22                	lw	s4,8(sp)

00007bae <.LVL3022>:
    7bae:	6105                	addi	sp,sp,32
    7bb0:	8082                	ret

00007bb2 <.L3347>:
                res->crc=crcu16(retval,res->crc);
    7bb2:	010a9793          	slli	a5,s5,0x10
    7bb6:	0107de13          	srli	t3,a5,0x10
    7bba:	88d6                	mv	a7,s5
    7bbc:	bb8d                	j	792e <.L3119>

00007bbe <.L3117>:
                                retval=core_bench_state(res->size,res->memblock[3],res->seed1,res->seed2,dtype,res->crc);
    7bbe:	02200613          	li	a2,34
    7bc2:	88ba                	mv	a7,a4
    7bc4:	00c75463          	bge	a4,a2,7bcc <.L3120>
    7bc8:	02200893          	li	a7,34

00007bcc <.L3120>:
    7bcc:	00249683          	lh	a3,2(s1)
    7bd0:	00049603          	lh	a2,0(s1)
    7bd4:	48cc                	lw	a1,20(s1)
    7bd6:	4c88                	lw	a0,24(s1)
    7bd8:	87a2                	mv	a5,s0
    7bda:	0ff8f713          	andi	a4,a7,255

00007bde <.LVL3025>:
    7bde:	b62fb0ef          	jal	ra,2f40 <core_bench_state>

00007be2 <.LVL3026>:
                                if (res->crcstate==0)
    7be2:	03e4df83          	lhu	t6,62(s1)
                                retval=core_bench_state(res->size,res->memblock[3],res->seed1,res->seed2,dtype,res->crc);
    7be6:	01051293          	slli	t0,a0,0x10
                res->crc=crcu16(retval,res->crc);
    7bea:	0384d403          	lhu	s0,56(s1)
                                retval=core_bench_state(res->size,res->memblock[3],res->seed1,res->seed2,dtype,res->crc);
    7bee:	8e2a                	mv	t3,a0
    7bf0:	4102d893          	srai	a7,t0,0x10

00007bf4 <.LVL3027>:
                                if (res->crcstate==0)
    7bf4:	d20f9de3          	bnez	t6,792e <.L3119>
                                        res->crcstate=retval;
    7bf8:	02a49f23          	sh	a0,62(s1)
    7bfc:	bb0d                	j	792e <.L3119>

00007bfe <.L3078>:
                                retval=core_bench_state(res->size,res->memblock[3],res->seed1,res->seed2,dtype,res->crc);
    7bfe:	02200393          	li	t2,34
    7c02:	883a                	mv	a6,a4
    7c04:	00775463          	bge	a4,t2,7c0c <.L3081>
    7c08:	02200813          	li	a6,34

00007c0c <.L3081>:
    7c0c:	48cc                	lw	a1,20(s1)

00007c0e <.LVL3029>:
    7c0e:	00249683          	lh	a3,2(s1)
    7c12:	00049603          	lh	a2,0(s1)
    7c16:	4c88                	lw	a0,24(s1)

00007c18 <.LVL3030>:
    7c18:	87a2                	mv	a5,s0
    7c1a:	0ff87713          	andi	a4,a6,255

00007c1e <.LVL3031>:
    7c1e:	b22fb0ef          	jal	ra,2f40 <core_bench_state>

00007c22 <.LVL3032>:
                                if (res->crcstate==0)
    7c22:	03e4d583          	lhu	a1,62(s1)
                                retval=core_bench_state(res->size,res->memblock[3],res->seed1,res->seed2,dtype,res->crc);
    7c26:	01051a13          	slli	s4,a0,0x10
                res->crc=crcu16(retval,res->crc);
    7c2a:	0384d403          	lhu	s0,56(s1)
                                retval=core_bench_state(res->size,res->memblock[3],res->seed1,res->seed2,dtype,res->crc);
    7c2e:	410a5313          	srai	t1,s4,0x10

00007c32 <.LVL3033>:
                                if (res->crcstate==0)
    7c32:	fc059863          	bnez	a1,7402 <.L3080>
                                        res->crcstate=retval;
    7c36:	02a49f23          	sh	a0,62(s1)
    7c3a:	fc8ff06f          	j	7402 <.L3080>

00007c3e <.L3079>:
        crc=crc16(matrix_test(N,C,A,B,val),crc);
    7c3e:	5a14                	lw	a3,48(a2)
    7c40:	58cc                	lw	a1,52(s1)

00007c42 <.LVL3035>:
    7c42:	5650                	lw	a2,44(a2)
    7c44:	5488                	lw	a0,40(s1)
    7c46:	e44fc0ef          	jal	ra,428a <matrix_test>

00007c4a <.LBB1374>:
                x16 = (ee_u8)((data & 1) ^ ((ee_u8)crc & 1));
    7c4a:	00a44633          	xor	a2,s0,a0

00007c4e <.LBE1378>:
        crc=crcu8( (ee_u8) (newval)                             ,crc);
    7c4e:	0ff57893          	andi	a7,a0,255

00007c52 <.LBE1376>:
        return crcu16((ee_u16)newval, crc);
    7c52:	01051e93          	slli	t4,a0,0x10

00007c56 <.LBB1382>:
                if (x16 == 1)
    7c56:	00167e13          	andi	t3,a2,1

00007c5a <.LBE1382>:
        return crcu16((ee_u16)newval, crc);
    7c5a:	010edf13          	srli	t5,t4,0x10

00007c5e <.LBB1383>:
                data >>= 1;
    7c5e:	0018df93          	srli	t6,a7,0x1

00007c62 <.LVL3038>:
                crc >>= 1;
    7c62:	00145293          	srli	t0,s0,0x1
                if (x16 == 1)
    7c66:	000e0b63          	beqz	t3,7c7c <.L3083>

00007c6a <.LVL3039>:
                   crc |= 0x8000;
    7c6a:	7469                	lui	s0,0xffffa

00007c6c <.LVL3040>:
    7c6c:	00140093          	addi	ra,s0,1 # ffffa001 <STACK+0xfffe1931>
    7c70:	0012c7b3          	xor	a5,t0,ra

00007c74 <.LVL3041>:
    7c74:	01079713          	slli	a4,a5,0x10
    7c78:	01075293          	srli	t0,a4,0x10

00007c7c <.L3083>:
                x16 = (ee_u8)((data & 1) ^ ((ee_u8)crc & 1));
    7c7c:	01f2c6b3          	xor	a3,t0,t6
                if (x16 == 1)
    7c80:	0016f313          	andi	t1,a3,1
                data >>= 1;
    7c84:	0028d393          	srli	t2,a7,0x2

00007c88 <.LVL3043>:
                crc >>= 1;
    7c88:	0012de13          	srli	t3,t0,0x1
                if (x16 == 1)
    7c8c:	00030b63          	beqz	t1,7ca2 <.L3084>

00007c90 <.LVL3044>:
                   crc |= 0x8000;
    7c90:	7869                	lui	a6,0xffffa
    7c92:	00180593          	addi	a1,a6,1 # ffffa001 <STACK+0xfffe1931>
    7c96:	00be4a33          	xor	s4,t3,a1

00007c9a <.LVL3045>:
    7c9a:	010a1513          	slli	a0,s4,0x10

00007c9e <.LVL3046>:
    7c9e:	01055e13          	srli	t3,a0,0x10

00007ca2 <.L3084>:
                x16 = (ee_u8)((data & 1) ^ ((ee_u8)crc & 1));
    7ca2:	007e4633          	xor	a2,t3,t2
                if (x16 == 1)
    7ca6:	00167e93          	andi	t4,a2,1
                data >>= 1;
    7caa:	0038df93          	srli	t6,a7,0x3

00007cae <.LVL3048>:
                crc >>= 1;
    7cae:	001e5293          	srli	t0,t3,0x1
                if (x16 == 1)
    7cb2:	000e8b63          	beqz	t4,7cc8 <.L3085>

00007cb6 <.LVL3049>:
                   crc |= 0x8000;
    7cb6:	7469                	lui	s0,0xffffa
    7cb8:	00140093          	addi	ra,s0,1 # ffffa001 <STACK+0xfffe1931>
    7cbc:	0012c7b3          	xor	a5,t0,ra

00007cc0 <.LVL3050>:
    7cc0:	01079713          	slli	a4,a5,0x10
    7cc4:	01075293          	srli	t0,a4,0x10

00007cc8 <.L3085>:
                x16 = (ee_u8)((data & 1) ^ ((ee_u8)crc & 1));
    7cc8:	01f2c6b3          	xor	a3,t0,t6
                if (x16 == 1)
    7ccc:	0016f313          	andi	t1,a3,1
                data >>= 1;
    7cd0:	0048d393          	srli	t2,a7,0x4

00007cd4 <.LVL3052>:
                crc >>= 1;
    7cd4:	0012de13          	srli	t3,t0,0x1
                if (x16 == 1)
    7cd8:	00030b63          	beqz	t1,7cee <.L3086>

00007cdc <.LVL3053>:
                   crc |= 0x8000;
    7cdc:	7869                	lui	a6,0xffffa
    7cde:	00180593          	addi	a1,a6,1 # ffffa001 <STACK+0xfffe1931>
    7ce2:	00be4a33          	xor	s4,t3,a1

00007ce6 <.LVL3054>:
    7ce6:	010a1513          	slli	a0,s4,0x10
    7cea:	01055e13          	srli	t3,a0,0x10

00007cee <.L3086>:
                x16 = (ee_u8)((data & 1) ^ ((ee_u8)crc & 1));
    7cee:	007e4633          	xor	a2,t3,t2
                if (x16 == 1)
    7cf2:	00167e93          	andi	t4,a2,1
                data >>= 1;
    7cf6:	0058df93          	srli	t6,a7,0x5

00007cfa <.LVL3056>:
                crc >>= 1;
    7cfa:	001e5293          	srli	t0,t3,0x1
                if (x16 == 1)
    7cfe:	000e8b63          	beqz	t4,7d14 <.L3087>

00007d02 <.LVL3057>:
                   crc |= 0x8000;
    7d02:	7469                	lui	s0,0xffffa
    7d04:	00140093          	addi	ra,s0,1 # ffffa001 <STACK+0xfffe1931>
    7d08:	0012c7b3          	xor	a5,t0,ra

00007d0c <.LVL3058>:
    7d0c:	01079713          	slli	a4,a5,0x10
    7d10:	01075293          	srli	t0,a4,0x10

00007d14 <.L3087>:
                x16 = (ee_u8)((data & 1) ^ ((ee_u8)crc & 1));
    7d14:	01f2c6b3          	xor	a3,t0,t6
                if (x16 == 1)
    7d18:	0016f313          	andi	t1,a3,1
                data >>= 1;
    7d1c:	0068d393          	srli	t2,a7,0x6

00007d20 <.LVL3060>:
                crc >>= 1;
    7d20:	0012de13          	srli	t3,t0,0x1
                if (x16 == 1)
    7d24:	00030b63          	beqz	t1,7d3a <.L3088>

00007d28 <.LVL3061>:
                   crc |= 0x8000;
    7d28:	7869                	lui	a6,0xffffa
    7d2a:	00180593          	addi	a1,a6,1 # ffffa001 <STACK+0xfffe1931>
    7d2e:	00be4a33          	xor	s4,t3,a1

00007d32 <.LVL3062>:
    7d32:	010a1513          	slli	a0,s4,0x10
    7d36:	01055e13          	srli	t3,a0,0x10

00007d3a <.L3088>:
                x16 = (ee_u8)((data & 1) ^ ((ee_u8)crc & 1));
    7d3a:	007e4633          	xor	a2,t3,t2
                if (x16 == 1)
    7d3e:	00167e93          	andi	t4,a2,1
                data >>= 1;
    7d42:	0078d893          	srli	a7,a7,0x7

00007d46 <.LVL3064>:
                crc >>= 1;
    7d46:	001e5713          	srli	a4,t3,0x1
                if (x16 == 1)
    7d4a:	000e8b63          	beqz	t4,7d60 <.L3089>

00007d4e <.LVL3065>:
                   crc |= 0x8000;
    7d4e:	7fe9                	lui	t6,0xffffa
    7d50:	001f8413          	addi	s0,t6,1 # ffffa001 <STACK+0xfffe1931>
    7d54:	008740b3          	xor	ra,a4,s0

00007d58 <.LVL3066>:
    7d58:	01009793          	slli	a5,ra,0x10
    7d5c:	0107d713          	srli	a4,a5,0x10

00007d60 <.L3089>:
                if (x16 == 1)
    7d60:	00177293          	andi	t0,a4,1
                crc >>= 1;
    7d64:	00175593          	srli	a1,a4,0x1
                if (x16 == 1)
    7d68:	01128b63          	beq	t0,a7,7d7e <.L3090>

00007d6c <.LVL3068>:
                   crc |= 0x8000;
    7d6c:	76e9                	lui	a3,0xffffa
    7d6e:	00168313          	addi	t1,a3,1 # ffffa001 <STACK+0xfffe1931>
    7d72:	0065c3b3          	xor	t2,a1,t1

00007d76 <.LVL3069>:
    7d76:	01039813          	slli	a6,t2,0x10
    7d7a:	01085593          	srli	a1,a6,0x10

00007d7e <.L3090>:
        crc=crcu8( (ee_u8) ((newval)>>8)        ,crc);
    7d7e:	008f5a13          	srli	s4,t5,0x8

00007d82 <.LBB1384>:
                x16 = (ee_u8)((data & 1) ^ ((ee_u8)crc & 1));
    7d82:	0145c533          	xor	a0,a1,s4
                if (x16 == 1)
    7d86:	00157e13          	andi	t3,a0,1

00007d8a <.LBE1384>:
        crc=crcu8( (ee_u8) ((newval)>>8)        ,crc);
    7d8a:	008f5e93          	srli	t4,t5,0x8

00007d8e <.LBB1387>:
                data >>= 1;
    7d8e:	0015d093          	srli	ra,a1,0x1
    7d92:	009f5f13          	srli	t5,t5,0x9

00007d96 <.LVL3072>:
                if (x16 == 1)
    7d96:	000e0b63          	beqz	t3,7dac <.L3091>

00007d9a <.LVL3073>:
                   crc |= 0x8000;
    7d9a:	7669                	lui	a2,0xffffa
    7d9c:	00160893          	addi	a7,a2,1 # ffffa001 <STACK+0xfffe1931>
    7da0:	0110cfb3          	xor	t6,ra,a7

00007da4 <.LVL3074>:
    7da4:	010f9413          	slli	s0,t6,0x10
    7da8:	01045093          	srli	ra,s0,0x10

00007dac <.L3091>:
                x16 = (ee_u8)((data & 1) ^ ((ee_u8)crc & 1));
    7dac:	01e0c7b3          	xor	a5,ra,t5
                if (x16 == 1)
    7db0:	0017f713          	andi	a4,a5,1
                data >>= 1;
    7db4:	002ed293          	srli	t0,t4,0x2

00007db8 <.LVL3076>:
                if (x16 == 1)
    7db8:	0010d593          	srli	a1,ra,0x1
    7dbc:	cb11                	beqz	a4,7dd0 <.L3092>

00007dbe <.LVL3077>:
                   crc |= 0x8000;
    7dbe:	76e9                	lui	a3,0xffffa
    7dc0:	00168313          	addi	t1,a3,1 # ffffa001 <STACK+0xfffe1931>
    7dc4:	0065c3b3          	xor	t2,a1,t1

00007dc8 <.LVL3078>:
    7dc8:	01039813          	slli	a6,t2,0x10
    7dcc:	01085593          	srli	a1,a6,0x10

00007dd0 <.L3092>:
                x16 = (ee_u8)((data & 1) ^ ((ee_u8)crc & 1));
    7dd0:	0055ca33          	xor	s4,a1,t0
                if (x16 == 1)
    7dd4:	001a7513          	andi	a0,s4,1
                data >>= 1;
    7dd8:	003ede13          	srli	t3,t4,0x3

00007ddc <.LVL3080>:
                if (x16 == 1)
    7ddc:	0015d413          	srli	s0,a1,0x1
    7de0:	c911                	beqz	a0,7df4 <.L3093>

00007de2 <.LVL3081>:
                   crc |= 0x8000;
    7de2:	7f69                	lui	t5,0xffffa
    7de4:	001f0613          	addi	a2,t5,1 # ffffa001 <STACK+0xfffe1931>
    7de8:	00c448b3          	xor	a7,s0,a2

00007dec <.LVL3082>:
    7dec:	01089f93          	slli	t6,a7,0x10
    7df0:	010fd413          	srli	s0,t6,0x10

00007df4 <.L3093>:
                x16 = (ee_u8)((data & 1) ^ ((ee_u8)crc & 1));
    7df4:	01c440b3          	xor	ra,s0,t3
                if (x16 == 1)
    7df8:	0010f293          	andi	t0,ra,1
                data >>= 1;
    7dfc:	004ed713          	srli	a4,t4,0x4

00007e00 <.LVL3084>:
                if (x16 == 1)
    7e00:	00145813          	srli	a6,s0,0x1
    7e04:	00028b63          	beqz	t0,7e1a <.L3094>

00007e08 <.LVL3085>:
                   crc |= 0x8000;
    7e08:	76e9                	lui	a3,0xffffa
    7e0a:	00168313          	addi	t1,a3,1 # ffffa001 <STACK+0xfffe1931>
    7e0e:	006847b3          	xor	a5,a6,t1

00007e12 <.LVL3086>:
    7e12:	01079393          	slli	t2,a5,0x10
    7e16:	0103d813          	srli	a6,t2,0x10

00007e1a <.L3094>:
                x16 = (ee_u8)((data & 1) ^ ((ee_u8)crc & 1));
    7e1a:	00e845b3          	xor	a1,a6,a4
                if (x16 == 1)
    7e1e:	0015fa13          	andi	s4,a1,1
                data >>= 1;
    7e22:	005ed513          	srli	a0,t4,0x5

00007e26 <.LVL3088>:
                if (x16 == 1)
    7e26:	00185f93          	srli	t6,a6,0x1
    7e2a:	000a0b63          	beqz	s4,7e40 <.L3095>

00007e2e <.LVL3089>:
                   crc |= 0x8000;
    7e2e:	7e69                	lui	t3,0xffffa
    7e30:	001e0f13          	addi	t5,t3,1 # ffffa001 <STACK+0xfffe1931>
    7e34:	01efc633          	xor	a2,t6,t5

00007e38 <.LVL3090>:
    7e38:	01061893          	slli	a7,a2,0x10
    7e3c:	0108df93          	srli	t6,a7,0x10

00007e40 <.L3095>:
                x16 = (ee_u8)((data & 1) ^ ((ee_u8)crc & 1));
    7e40:	00afc433          	xor	s0,t6,a0
                if (x16 == 1)
    7e44:	00147093          	andi	ra,s0,1
                data >>= 1;
    7e48:	006ed293          	srli	t0,t4,0x6

00007e4c <.LVL3092>:
                if (x16 == 1)
    7e4c:	001fd393          	srli	t2,t6,0x1
    7e50:	00008b63          	beqz	ra,7e66 <.L3096>

00007e54 <.LVL3093>:
                   crc |= 0x8000;
    7e54:	7769                	lui	a4,0xffffa
    7e56:	00170693          	addi	a3,a4,1 # ffffa001 <STACK+0xfffe1931>
    7e5a:	00d3c333          	xor	t1,t2,a3

00007e5e <.LVL3094>:
    7e5e:	01031793          	slli	a5,t1,0x10
    7e62:	0107d393          	srli	t2,a5,0x10

00007e66 <.L3096>:
                x16 = (ee_u8)((data & 1) ^ ((ee_u8)crc & 1));
    7e66:	0053c833          	xor	a6,t2,t0
                if (x16 == 1)
    7e6a:	00187593          	andi	a1,a6,1
                data >>= 1;
    7e6e:	007ede93          	srli	t4,t4,0x7

00007e72 <.LVL3096>:
                if (x16 == 1)
    7e72:	0013d613          	srli	a2,t2,0x1
    7e76:	c991                	beqz	a1,7e8a <.L3097>

00007e78 <.LVL3097>:
                   crc |= 0x8000;
    7e78:	7a69                	lui	s4,0xffffa
    7e7a:	001a0513          	addi	a0,s4,1 # ffffa001 <STACK+0xfffe1931>
    7e7e:	00a64e33          	xor	t3,a2,a0

00007e82 <.LVL3098>:
    7e82:	010e1f13          	slli	t5,t3,0x10
    7e86:	010f5613          	srli	a2,t5,0x10

00007e8a <.L3097>:
                if (x16 == 1)
    7e8a:	00167893          	andi	a7,a2,1
    7e8e:	00165513          	srli	a0,a2,0x1
    7e92:	01d88b63          	beq	a7,t4,7ea8 <.L3098>

00007e96 <.LVL3100>:
                   crc |= 0x8000;
    7e96:	7fe9                	lui	t6,0xffffa
    7e98:	001f8413          	addi	s0,t6,1 # ffffa001 <STACK+0xfffe1931>
    7e9c:	008540b3          	xor	ra,a0,s0
    7ea0:	01009293          	slli	t0,ra,0x10
    7ea4:	0102d513          	srli	a0,t0,0x10

00007ea8 <.L3098>:
                                if (res->crcmatrix==0)
    7ea8:	03c4d703          	lhu	a4,60(s1)
                                retval=core_bench_matrix(&(res->mat),dtype,res->crc);
    7eac:	01051693          	slli	a3,a0,0x10
                res->crc=crcu16(retval,res->crc);
    7eb0:	0384d403          	lhu	s0,56(s1)
                                retval=core_bench_matrix(&(res->mat),dtype,res->crc);
    7eb4:	4106d313          	srai	t1,a3,0x10

00007eb8 <.LVL3102>:
                                if (res->crcmatrix==0)
    7eb8:	d4071563          	bnez	a4,7402 <.L3080>
                                        res->crcmatrix=retval;
    7ebc:	02a49e23          	sh	a0,60(s1)
    7ec0:	d42ff06f          	j	7402 <.L3080>

00007ec4 <printf>:


int
printf(const char* format, ...)
{
    7ec4:	7139                	addi	sp,sp,-64
  va_list ap;

  va_start(ap, format);
    7ec6:	02410313          	addi	t1,sp,36
{
    7eca:	d22e                	sw	a1,36(sp)
  int code = whisperPrintfImpl(format, ap);
    7ecc:	859a                	mv	a1,t1
{
    7ece:	ce06                	sw	ra,28(sp)
    7ed0:	d432                	sw	a2,40(sp)
    7ed2:	d636                	sw	a3,44(sp)
    7ed4:	d83a                	sw	a4,48(sp)
    7ed6:	da3e                	sw	a5,52(sp)
    7ed8:	dc42                	sw	a6,56(sp)
    7eda:	de46                	sw	a7,60(sp)
  va_start(ap, format);
    7edc:	c61a                	sw	t1,12(sp)
  int code = whisperPrintfImpl(format, ap);
    7ede:	fe1f90ef          	jal	ra,1ebe <whisperPrintfImpl>

00007ee2 <.LVL3104>:
  va_end(ap);

  return code;
}
    7ee2:	40f2                	lw	ra,28(sp)
    7ee4:	6121                	addi	sp,sp,64
    7ee6:	8082                	ret

00007ee8 <memset>:


void* memset(void* s, int c, size_t n)
{
  asm("mv t0, a0");
    7ee8:	82aa                	mv	t0,a0
  asm("add a2, a2, a0");  // end = s + n
    7eea:	962a                	add	a2,a2,a0

00007eec <.memset_loop>:
  asm(".memset_loop: bge a0, a2, .memset_end");
    7eec:	00c55663          	bge	a0,a2,7ef8 <.memset_end>
  asm("sb a1, 0(a0)");
    7ef0:	00b50023          	sb	a1,0(a0)
  asm("addi a0, a0, 1");
    7ef4:	0505                	addi	a0,a0,1
  asm("j .memset_loop");
    7ef6:	bfdd                	j	7eec <.memset_loop>

00007ef8 <.memset_end>:
  asm(".memset_end:");
  asm("mv a0, t0");
    7ef8:	8516                	mv	a0,t0
  asm("jr ra");
    7efa:	8082                	ret

00007efc <.LVL3106>:
}
    7efc:	8082                	ret

00007efe <main>:
MAIN_RETURN_TYPE main(void) {
    7efe:	7175                	addi	sp,sp,-144

00007f00 <.LBB1200>:
    7f00:	c706                	sw	ra,140(sp)

00007f02 <.LBB1204>:
                                retval=seed1_volatile;
    7f02:	67c5                	lui	a5,0x11

00007f04 <.LBB1208>:
                                retval=seed2_volatile;
    7f04:	60c5                	lui	ra,0x11

00007f06 <.LBB1212>:
                                retval=seed1_volatile;
    7f06:	ea87a683          	lw	a3,-344(a5) # 10ea8 <seed1_volatile>

00007f0a <.LBB1213>:
                                retval=seed3_volatile;
    7f0a:	62c1                	lui	t0,0x10

00007f0c <.LBB1217>:
                                retval=seed2_volatile;
    7f0c:	ea40a703          	lw	a4,-348(ra) # 10ea4 <seed2_volatile>

00007f10 <.LBB1218>:
                                retval=seed3_volatile;
    7f10:	0f02a303          	lw	t1,240(t0) # 100f0 <seed3_volatile>

00007f14 <.LBE1218>:
        results[0].seed1=get_seed(1);
    7f14:	00d11623          	sh	a3,12(sp)
        results[0].seed2=get_seed(2);
    7f18:	00e11723          	sh	a4,14(sp)
MAIN_RETURN_TYPE main(void) {
    7f1c:	c326                	sw	s1,132(sp)

00007f1e <.LBB1219>:
                                retval=seed4_volatile;
    7f1e:	6641                	lui	a2,0x10

00007f20 <.LBE1219>:
        results[0].seed3=get_seed(3);
    7f20:	01031493          	slli	s1,t1,0x10
        if ((results[0].seed1==0) && (results[0].seed2==0) && (results[0].seed3==0)) { /* validation run */
    7f24:	43b2                	lw	t2,12(sp)
MAIN_RETURN_TYPE main(void) {
    7f26:	c522                	sw	s0,136(sp)
        results[0].seed3=get_seed(3);
    7f28:	4104d513          	srai	a0,s1,0x10

00007f2c <.LBB1223>:
        p->portable_id=1;
    7f2c:	4405                	li	s0,1

00007f2e <.LBE1223>:
        results[0].execs=ID_LIST | ID_STATE;
    7f2e:	4595                	li	a1,5

00007f30 <.LBB1224>:
                                retval=seed4_volatile;
    7f30:	0ec62603          	lw	a2,236(a2) # 100ec <seed4_volatile>

00007f34 <.LBE1224>:
MAIN_RETURN_TYPE main(void) {
    7f34:	c14a                	sw	s2,128(sp)
    7f36:	dece                	sw	s3,124(sp)
    7f38:	dcd2                	sw	s4,120(sp)
    7f3a:	dad6                	sw	s5,116(sp)
    7f3c:	d8da                	sw	s6,112(sp)
    7f3e:	d6de                	sw	s7,108(sp)
    7f40:	d4e2                	sw	s8,104(sp)
    7f42:	d2e6                	sw	s9,100(sp)
    7f44:	d0ea                	sw	s10,96(sp)
    7f46:	ceee                	sw	s11,92(sp)

00007f48 <.LBB1225>:
        p->portable_id=1;
    7f48:	04810723          	sb	s0,78(sp)

00007f4c <.LBB1226>:
        results[0].seed3=get_seed(3);
    7f4c:	00a11823          	sh	a0,16(sp)

00007f50 <.LBB1229>:
        results[0].iterations=1;
    7f50:	d422                	sw	s0,40(sp)
        results[0].execs=ID_LIST | ID_STATE;
    7f52:	d62e                	sw	a1,44(sp)
        if ((results[0].seed1==0) && (results[0].seed2==0) && (results[0].seed3==0)) { /* validation run */
    7f54:	7c039763          	bnez	t2,8722 <.L2966>
    7f58:	7c050e63          	beqz	a0,8734 <.L3069>

00007f5c <.L2967>:
        results[0].memblock[0]=(void *)static_memblk;
    7f5c:	69c1                	lui	s3,0x10
                        results[i].list=core_list_init(results[0].size,results[i].memblock[1],results[i].seed1);
    7f5e:	00c11603          	lh	a2,12(sp)
        results[0].memblock[0]=(void *)static_memblk;
    7f62:	6c498a13          	addi	s4,s3,1732 # 106c4 <static_memblk>

00007f66 <.LBB1230>:
                                results[ctx].memblock[i+1]=(char *)(results[ctx].memblock[0])+results[0].size*j;
    7f66:	3e8a0a93          	addi	s5,s4,1000

00007f6a <.LBE1230>:
                        results[i].list=core_list_init(results[0].size,results[i].memblock[1],results[i].seed1);
    7f6a:	6c498593          	addi	a1,s3,1732
    7f6e:	3e800513          	li	a0,1000
                results[i].size=results[i].size/num_algorithms;
    7f72:	3e800b13          	li	s6,1000
        results[0].memblock[0]=(void *)static_memblk;
    7f76:	ca52                	sw	s4,20(sp)
        results[0].err=0;
    7f78:	04011623          	sh	zero,76(sp)

00007f7c <.LVL2696>:
                results[i].size=results[i].size/num_algorithms;
    7f7c:	d25a                	sw	s6,36(sp)

00007f7e <.LBB1231>:
                                results[ctx].memblock[i+1]=(char *)(results[ctx].memblock[0])+results[0].size*j;
    7f7e:	cc52                	sw	s4,24(sp)

00007f80 <.LBB1232>:
    7f80:	d056                	sw	s5,32(sp)

00007f82 <.LBE1233>:
                        results[i].list=core_list_init(results[0].size,results[i].memblock[1],results[i].seed1);
    7f82:	85bfa0ef          	jal	ra,27dc <core_list_init>

00007f86 <.LVL2700>:
                if (results[i].execs & ID_MATRIX) {
    7f86:	5db2                	lw	s11,44(sp)
                        results[i].list=core_list_init(results[0].size,results[i].memblock[1],results[i].seed1);
    7f88:	d82a                	sw	a0,48(sp)
                if (results[i].execs & ID_MATRIX) {
    7f8a:	002dfb93          	andi	s7,s11,2
    7f8e:	1a0b9863          	bnez	s7,813e <.L3072>

00007f92 <.L2968>:
                if (results[i].execs & ID_STATE) {
    7f92:	004dfe13          	andi	t3,s11,4
    7f96:	000e0863          	beqz	t3,7fa6 <.L2969>
                        core_init_state(results[0].size,results[i].seed1,results[i].memblock[3]);
    7f9a:	5602                	lw	a2,32(sp)
    7f9c:	00c11583          	lh	a1,12(sp)
    7fa0:	5512                	lw	a0,36(sp)
    7fa2:	a6dfb0ef          	jal	ra,3a0e <core_init_state>

00007fa6 <.L2969>:
        if (results[0].iterations==0) {
    7fa6:	5ea2                	lw	t4,40(sp)
    7fa8:	680e8a63          	beqz	t4,863c <.L3062>
    7fac:	6445                	lui	s0,0x11
    7fae:	00c10993          	addi	s3,sp,12
    7fb2:	64c5                	lui	s1,0x11

00007fb4 <.L2970>:
        asm volatile ("csrr %0,mcycle"  : "=r" (mcyclel) );
    7fb4:	b0002373          	csrr	t1,mcycle

00007fb8 <.LVL2702>:
        start_time_val = mcyclel;
    7fb8:	e8642e23          	sw	t1,-356(s0) # 10e9c <start_time_val>

00007fbc <__perf_start>:
        iterate(&results[0]);
    7fbc:	854e                	mv	a0,s3
    7fbe:	850ff0ef          	jal	ra,700e <iterate>

00007fc2 <__perf_end>:
        asm volatile ("csrr %0,mcycle"  : "=r" (mcyclel) );
    7fc2:	b00029f3          	csrr	s3,mcycle

00007fc6 <.LBB1239>:
        return crcu16((ee_u16)newval, crc);
    7fc6:	00c15503          	lhu	a0,12(sp)
    7fca:	4581                	li	a1,0

00007fcc <.LBB1243>:
        stop_time_val = mcyclel;
    7fcc:	e934ac23          	sw	s3,-360(s1) # 10e98 <stop_time_val>

00007fd0 <.LBB1244>:
        return crcu16((ee_u16)newval, crc);
    7fd0:	d40f90ef          	jal	ra,1510 <crcu16>

00007fd4 <.LVL2707>:
    7fd4:	85aa                	mv	a1,a0

00007fd6 <.LBB1249>:
    7fd6:	00e15503          	lhu	a0,14(sp)

00007fda <.LBB1253>:
        CORE_TICKS elapsed=(CORE_TICKS)(MYTIMEDIFF(stop_time_val, start_time_val));
    7fda:	e9c42403          	lw	s0,-356(s0)

00007fde <.LBB1254>:
        return crcu16((ee_u16)newval, crc);
    7fde:	d32f90ef          	jal	ra,1510 <crcu16>

00007fe2 <.LVL2708>:
    7fe2:	85aa                	mv	a1,a0

00007fe4 <.LBB1255>:
    7fe4:	01015503          	lhu	a0,16(sp)

00007fe8 <.LBB1259>:
        CORE_TICKS elapsed=(CORE_TICKS)(MYTIMEDIFF(stop_time_val, start_time_val));
    7fe8:	40898ab3          	sub	s5,s3,s0

00007fec <.LBB1260>:
        return crcu16((ee_u16)newval, crc);
    7fec:	d24f90ef          	jal	ra,1510 <crcu16>

00007ff0 <.LBB1263>:
    7ff0:	5492                	lw	s1,36(sp)

00007ff2 <.LBB1266>:
    7ff2:	85aa                	mv	a1,a0

00007ff4 <.LBB1267>:
    7ff4:	01049393          	slli	t2,s1,0x10
    7ff8:	0103d513          	srli	a0,t2,0x10
    7ffc:	d14f90ef          	jal	ra,1510 <crcu16>

00008000 <.LVL2712>:
    8000:	89aa                	mv	s3,a0

00008002 <.LBE1267>:
        switch (seedcrc) { /* test known output for common seeds */
    8002:	6521                	lui	a0,0x8
    8004:	b0550613          	addi	a2,a0,-1275 # 7b05 <.LVL3002+0x7>
    8008:	74c98d63          	beq	s3,a2,8762 <.L2972>
    800c:	15366863          	bltu	a2,s3,815c <.L2973>
    8010:	6f89                	lui	t6,0x2
    8012:	8f2f8793          	addi	a5,t6,-1806 # 18f2 <.LVL568+0x8>
    8016:	76f98763          	beq	s3,a5,8784 <.L2974>
    801a:	6415                	lui	s0,0x5
    801c:	eaf40093          	addi	ra,s0,-337 # 4eaf <.L1787+0x9>
    8020:	7a199763          	bne	s3,ra,87ce <.L3071>

00008024 <.LVL2714>:
                        ee_printf("Profile generation run parameters for coremark.\n");
    8024:	6341                	lui	t1,0x10
    8026:	26c30513          	addi	a0,t1,620 # 1026c <.LC21>
    802a:	f8efa0ef          	jal	ra,27b8 <whisperPrintf>

0000802e <.LVL2715>:
    802e:	60840b93          	addi	s7,s0,1544
    8032:	63b9                	lui	t2,0xe
    8034:	651d                	lui	a0,0x7
    8036:	5a438a13          	addi	s4,t2,1444 # e5a4 <.LLST604+0x2307>
    803a:	8c5e                	mv	s8,s7
    803c:	a7950b13          	addi	s6,a0,-1415 # 6a79 <.LBB1136+0x7>

00008040 <.L2979>:
                for (i=0 ; i<default_num_contexts; i++) {
    8040:	6cc1                	lui	s9,0x10
    8042:	0e8ca603          	lw	a2,232(s9) # 100e8 <default_num_contexts>
    8046:	4901                	li	s2,0
    8048:	4d01                	li	s10,0
    804a:	76060f63          	beqz	a2,87c8 <.L3063>
                                ee_printf("[%u]ERROR! list crc 0x%04x - should be 0x%04x\n",i,results[i].crclist,list_known_crc[known_id]);
    804e:	6dc1                	lui	s11,0x10
    8050:	a881                	j	80a0 <.L2985>

00008052 <.L2982>:
                                (results[i].crcstate!=state_known_crc[known_id])) {
    8052:	ffa4d603          	lhu	a2,-6(s1)
                        if ((results[i].execs & ID_STATE) &&
    8056:	0f460163          	beq	a2,s4,8138 <.L3070>
                                ee_printf("[%u]ERROR! state crc 0x%04x - should be 0x%04x\n",i,results[i].crcstate,state_known_crc[known_id]);
    805a:	68c1                	lui	a7,0x10
    805c:	86d2                	mv	a3,s4
    805e:	85ea                	mv	a1,s10
    8060:	36088513          	addi	a0,a7,864 # 10360 <.LC26>
    8064:	f54fa0ef          	jal	ra,27b8 <whisperPrintf>

00008068 <.LVL2718>:
                                results[i].err++;
    8068:	ffc4de03          	lhu	t3,-4(s1)
    806c:	001e0e93          	addi	t4,t3,1
    8070:	010e9f13          	slli	t5,t4,0x10
    8074:	010f5f93          	srli	t6,t5,0x10
    8078:	fff49e23          	sh	t6,-4(s1)

0000807c <.L2983>:
                for (i=0 ; i<default_num_contexts; i++) {
    807c:	0d05                	addi	s10,s10,1

0000807e <.LVL2719>:
    807e:	0e8ca783          	lw	a5,232(s9)
                        total_errors+=results[i].err;
    8082:	997e                	add	s2,s2,t6

00008084 <.LVL2720>:
                for (i=0 ; i<default_num_contexts; i++) {
    8084:	010d1693          	slli	a3,s10,0x10
                        total_errors+=results[i].err;
    8088:	01091713          	slli	a4,s2,0x10
    808c:	01091293          	slli	t0,s2,0x10
                for (i=0 ; i<default_num_contexts; i++) {
    8090:	0106dd13          	srli	s10,a3,0x10
                        total_errors+=results[i].err;
    8094:	01075413          	srli	s0,a4,0x10
    8098:	4102d913          	srai	s2,t0,0x10

0000809c <.LVL2721>:
                for (i=0 ; i<default_num_contexts; i++) {
    809c:	0efd7963          	bgeu	s10,a5,818e <.L3073>

000080a0 <.L2985>:
                        results[i].err=0;
    80a0:	004d1413          	slli	s0,s10,0x4
    80a4:	01a405b3          	add	a1,s0,s10
    80a8:	00259813          	slli	a6,a1,0x2
    80ac:	05010893          	addi	a7,sp,80
    80b0:	010884b3          	add	s1,a7,a6
                        if ((results[i].execs & ID_LIST) &&
    80b4:	fdc4ae03          	lw	t3,-36(s1)
                        results[i].err=0;
    80b8:	fe049e23          	sh	zero,-4(s1)
                        if ((results[i].execs & ID_LIST) &&
    80bc:	001e7e93          	andi	t4,t3,1
    80c0:	020e8263          	beqz	t4,80e4 <.L2980>
                                (results[i].crclist!=list_known_crc[known_id])) {
    80c4:	ff64d603          	lhu	a2,-10(s1)
                        if ((results[i].execs & ID_LIST) &&
    80c8:	01660e63          	beq	a2,s6,80e4 <.L2980>
                                ee_printf("[%u]ERROR! list crc 0x%04x - should be 0x%04x\n",i,results[i].crclist,list_known_crc[known_id]);
    80cc:	86da                	mv	a3,s6
    80ce:	85ea                	mv	a1,s10
    80d0:	2fcd8513          	addi	a0,s11,764 # 102fc <.LC24>
    80d4:	ee4fa0ef          	jal	ra,27b8 <whisperPrintf>

000080d8 <.LVL2723>:
                                results[i].err++;
    80d8:	ffc4df03          	lhu	t5,-4(s1)
    80dc:	001f0f93          	addi	t6,t5,1
    80e0:	fff49e23          	sh	t6,-4(s1)

000080e4 <.L2980>:
                        if ((results[i].execs & ID_MATRIX) &&
    80e4:	01a407b3          	add	a5,s0,s10
    80e8:	00279693          	slli	a3,a5,0x2
    80ec:	0898                	addi	a4,sp,80
    80ee:	00d704b3          	add	s1,a4,a3
    80f2:	fdc4a383          	lw	t2,-36(s1)
    80f6:	0023f293          	andi	t0,t2,2
    80fa:	02028563          	beqz	t0,8124 <.L2981>
                                (results[i].crcmatrix!=matrix_known_crc[known_id])) {
    80fe:	ff84d603          	lhu	a2,-8(s1)
                        if ((results[i].execs & ID_MATRIX) &&
    8102:	03860163          	beq	a2,s8,8124 <.L2981>
                                ee_printf("[%u]ERROR! matrix crc 0x%04x - should be 0x%04x\n",i,results[i].crcmatrix,matrix_known_crc[known_id]);
    8106:	60c1                	lui	ra,0x10
    8108:	86de                	mv	a3,s7
    810a:	85ea                	mv	a1,s10
    810c:	32c08513          	addi	a0,ra,812 # 1032c <.LC25>
    8110:	ea8fa0ef          	jal	ra,27b8 <whisperPrintf>

00008114 <.LVL2724>:
                                results[i].err++;
    8114:	ffc4d303          	lhu	t1,-4(s1)
                        if ((results[i].execs & ID_STATE) &&
    8118:	fdc4a383          	lw	t2,-36(s1)
                                results[i].err++;
    811c:	00130513          	addi	a0,t1,1
    8120:	fea49e23          	sh	a0,-4(s1)

00008124 <.L2981>:
                                (results[i].crcstate!=state_known_crc[known_id])) {
    8124:	946a                	add	s0,s0,s10
    8126:	00241593          	slli	a1,s0,0x2
    812a:	05010813          	addi	a6,sp,80
                        if ((results[i].execs & ID_STATE) &&
    812e:	0043f613          	andi	a2,t2,4
                                (results[i].crcstate!=state_known_crc[known_id])) {
    8132:	00b804b3          	add	s1,a6,a1
                        if ((results[i].execs & ID_STATE) &&
    8136:	fe11                	bnez	a2,8052 <.L2982>

00008138 <.L3070>:
                        total_errors+=results[i].err;
    8138:	ffc4df83          	lhu	t6,-4(s1)
    813c:	b781                	j	807c <.L2983>

0000813e <.L3072>:
                        core_init_matrix(results[0].size, results[i].memblock[2], (ee_s32)results[i].seed1 | (((ee_s32)results[i].seed2) << 16), &(results[i].mat) );
    813e:	00e11c03          	lh	s8,14(sp)
    8142:	00c11c83          	lh	s9,12(sp)
    8146:	45f2                	lw	a1,28(sp)
    8148:	5512                	lw	a0,36(sp)
    814a:	010c1d13          	slli	s10,s8,0x10
    814e:	1854                	addi	a3,sp,52
    8150:	019d6633          	or	a2,s10,s9
    8154:	9f9fb0ef          	jal	ra,3b4c <core_init_matrix>

00008158 <.LVL2726>:
                if (results[i].execs & ID_STATE) {
    8158:	5db2                	lw	s11,44(sp)
    815a:	bd25                	j	7f92 <.L2968>

0000815c <.L2973>:
        switch (seedcrc) { /* test known output for common seeds */
    815c:	6b25                	lui	s6,0x9
    815e:	a02b0b93          	addi	s7,s6,-1534 # 8a02 <.LLST121+0x5>
    8162:	65798263          	beq	s3,s7,87a6 <.L2977>
    8166:	6e3d                	lui	t3,0xf
    8168:	9f5e0a13          	addi	s4,t3,-1547 # e9f5 <.LLST604+0x2758>
    816c:	67499163          	bne	s3,s4,87ce <.L3071>

00008170 <.LVL2728>:
                        ee_printf("2K performance run parameters for coremark.\n");
    8170:	6ec1                	lui	t4,0x10
    8172:	2a0e8513          	addi	a0,t4,672 # 102a0 <.LC22>
    8176:	e42fa0ef          	jal	ra,27b8 <whisperPrintf>

0000817a <.LVL2729>:
    817a:	6f09                	lui	t5,0x2
    817c:	fd7f0b93          	addi	s7,t5,-41 # 1fd7 <.L892+0x9>
    8180:	6939                	lui	s2,0xe
    8182:	e3ab0a13          	addi	s4,s6,-454
    8186:	8c5e                	mv	s8,s7
    8188:	71490b13          	addi	s6,s2,1812 # e714 <.LLST604+0x2477>
    818c:	bd55                	j	8040 <.L2979>

0000818e <.L3073>:
    818e:	5492                	lw	s1,36(sp)

00008190 <.L2976>:
        ee_printf("CoreMark Size    : %u\n",(ee_u32)results[0].size);
    8190:	6bc1                	lui	s7,0x10
    8192:	85a6                	mv	a1,s1
    8194:	390b8513          	addi	a0,s7,912 # 10390 <.LC27>
    8198:	e20fa0ef          	jal	ra,27b8 <whisperPrintf>

0000819c <.LVL2732>:
        ee_printf("Total ticks      : %u\n",(ee_u32)total_time);
    819c:	6c41                	lui	s8,0x10
    819e:	85d6                	mv	a1,s5
    81a0:	3a8c0513          	addi	a0,s8,936 # 103a8 <.LC28>

000081a4 <.LBB1268>:
        secs_ret retval=((secs_ret)ticks) / (secs_ret)EE_TICKS_PER_SEC;
    81a4:	3e800b13          	li	s6,1000

000081a8 <.LBE1268>:
        ee_printf("Total ticks      : %u\n",(ee_u32)total_time);
    81a8:	e10fa0ef          	jal	ra,27b8 <whisperPrintf>

000081ac <.LBB1271>:
        secs_ret retval=((secs_ret)ticks) / (secs_ret)EE_TICKS_PER_SEC;
    81ac:	036addb3          	divu	s11,s5,s6

000081b0 <.LBE1271>:
        ee_printf("Total time (secs): %d\n",time_in_secs(total_time));
    81b0:	6341                	lui	t1,0x10
    81b2:	3c030513          	addi	a0,t1,960 # 103c0 <.LC29>
    81b6:	85ee                	mv	a1,s11
    81b8:	e00fa0ef          	jal	ra,27b8 <whisperPrintf>

000081bc <.LVL2735>:
        if (time_in_secs(total_time) > 0)
    81bc:	3e700393          	li	t2,999
    81c0:	4353ef63          	bltu	t2,s5,85fe <.L2986>

000081c4 <.L2988>:
                ee_printf("ERROR! Must execute for at least 10 secs for a valid result!\n");
    81c4:	6ac1                	lui	s5,0x10

000081c6 <.LVL2736>:
                total_errors++;
    81c6:	0405                	addi	s0,s0,1
                ee_printf("ERROR! Must execute for at least 10 secs for a valid result!\n");
    81c8:	3d8a8513          	addi	a0,s5,984 # 103d8 <.LC30>
                total_errors++;
    81cc:	01041d13          	slli	s10,s0,0x10
                ee_printf("ERROR! Must execute for at least 10 secs for a valid result!\n");
    81d0:	de8fa0ef          	jal	ra,27b8 <whisperPrintf>

000081d4 <.LVL2737>:
                total_errors++;
    81d4:	410d5913          	srai	s2,s10,0x10

000081d8 <.L2987>:
        ee_printf("Iterations       : %u\n",(ee_u32)default_num_contexts*results[0].iterations);
    81d8:	0e8ca683          	lw	a3,232(s9)
    81dc:	52a2                	lw	t0,40(sp)
    81de:	6741                	lui	a4,0x10
    81e0:	43470513          	addi	a0,a4,1076 # 10434 <.LC32>
    81e4:	02d285b3          	mul	a1,t0,a3
        ee_printf("Compiler version : %s\n",COMPILER_VERSION);
    81e8:	6a41                	lui	s4,0x10
    81ea:	6bc1                	lui	s7,0x10
        ee_printf("Compiler flags   : %s\n",COMPILER_FLAGS);
    81ec:	6c41                	lui	s8,0x10
    81ee:	6b41                	lui	s6,0x10
        ee_printf("Memory location  : %s\n",MEM_LOCATION);
    81f0:	6dc1                	lui	s11,0x10
        ee_printf("Iterations       : %u\n",(ee_u32)default_num_contexts*results[0].iterations);
    81f2:	dc6fa0ef          	jal	ra,27b8 <whisperPrintf>

000081f6 <.LVL2739>:
        ee_printf("Compiler version : %s\n",COMPILER_VERSION);
    81f6:	44ca0593          	addi	a1,s4,1100 # 1044c <.LC33>
    81fa:	458b8513          	addi	a0,s7,1112 # 10458 <.LC34>
    81fe:	dbafa0ef          	jal	ra,27b8 <whisperPrintf>

00008202 <.LVL2740>:
        ee_printf("Compiler flags   : %s\n",COMPILER_FLAGS);
    8202:	470c0593          	addi	a1,s8,1136 # 10470 <.LC35>
    8206:	474b0513          	addi	a0,s6,1140 # 10474 <.LC36>
    820a:	daefa0ef          	jal	ra,27b8 <whisperPrintf>

0000820e <.LVL2741>:
        ee_printf("Memory location  : %s\n",MEM_LOCATION);
    820e:	6341                	lui	t1,0x10
    8210:	48cd8593          	addi	a1,s11,1164 # 1048c <.LC37>
    8214:	49430513          	addi	a0,t1,1172 # 10494 <.LC38>
    8218:	da0fa0ef          	jal	ra,27b8 <whisperPrintf>

0000821c <.LVL2742>:
        ee_printf("seedcrc          : 0x%04x\n",seedcrc);
    821c:	85ce                	mv	a1,s3
    821e:	69c1                	lui	s3,0x10

00008220 <.LVL2743>:
    8220:	4ac98513          	addi	a0,s3,1196 # 104ac <.LC39>
    8224:	d94fa0ef          	jal	ra,27b8 <whisperPrintf>

00008228 <.LVL2744>:
        if (results[0].execs & ID_LIST)
    8228:	5a32                	lw	s4,44(sp)
    822a:	001a7393          	andi	t2,s4,1
    822e:	0e038563          	beqz	t2,8318 <.L2992>

00008232 <.LVL2745>:
                for (i=0 ; i<default_num_contexts; i++)
    8232:	0e8ca083          	lw	ra,232(s9)
    8236:	0e008163          	beqz	ra,8318 <.L2992>
    823a:	4401                	li	s0,0
    823c:	64c1                	lui	s1,0x10

0000823e <.L2993>:
                        ee_printf("[%d]crclist       : 0x%04x\n",i,results[i].crclist);
    823e:	00441513          	slli	a0,s0,0x4
    8242:	00850633          	add	a2,a0,s0
    8246:	00261593          	slli	a1,a2,0x2
    824a:	05010813          	addi	a6,sp,80
    824e:	00b808b3          	add	a7,a6,a1
    8252:	ff68d603          	lhu	a2,-10(a7)
    8256:	85a2                	mv	a1,s0
    8258:	4c848513          	addi	a0,s1,1224 # 104c8 <.LC40>
    825c:	d5cfa0ef          	jal	ra,27b8 <whisperPrintf>

00008260 <.LVL2747>:
                for (i=0 ; i<default_num_contexts; i++)
    8260:	00140e93          	addi	t4,s0,1
    8264:	010e9f13          	slli	t5,t4,0x10
    8268:	010f5a93          	srli	s5,t5,0x10
                        ee_printf("[%d]crclist       : 0x%04x\n",i,results[i].crclist);
    826c:	004a9f93          	slli	t6,s5,0x4
                for (i=0 ; i<default_num_contexts; i++)
    8270:	0e8cae03          	lw	t3,232(s9)
                        ee_printf("[%d]crclist       : 0x%04x\n",i,results[i].crclist);
    8274:	015f87b3          	add	a5,t6,s5
    8278:	00279413          	slli	s0,a5,0x2
    827c:	05010d13          	addi	s10,sp,80
    8280:	4c848513          	addi	a0,s1,1224
    8284:	008d06b3          	add	a3,s10,s0
    8288:	85d6                	mv	a1,s5
                for (i=0 ; i<default_num_contexts; i++)
    828a:	09caf663          	bgeu	s5,t3,8316 <.L3066>
                        ee_printf("[%d]crclist       : 0x%04x\n",i,results[i].crclist);
    828e:	ff66d603          	lhu	a2,-10(a3)
    8292:	d26fa0ef          	jal	ra,27b8 <whisperPrintf>

00008296 <.LVL2748>:
                for (i=0 ; i<default_num_contexts; i++)
    8296:	001a8713          	addi	a4,s5,1
    829a:	01071a13          	slli	s4,a4,0x10
    829e:	010a5b93          	srli	s7,s4,0x10
                        ee_printf("[%d]crclist       : 0x%04x\n",i,results[i].crclist);
    82a2:	004b9c13          	slli	s8,s7,0x4
                for (i=0 ; i<default_num_contexts; i++)
    82a6:	0e8ca283          	lw	t0,232(s9)
                        ee_printf("[%d]crclist       : 0x%04x\n",i,results[i].crclist);
    82aa:	017c0b33          	add	s6,s8,s7
    82ae:	002b1d93          	slli	s11,s6,0x2
    82b2:	05010313          	addi	t1,sp,80
    82b6:	4c848513          	addi	a0,s1,1224
    82ba:	01b309b3          	add	s3,t1,s11
    82be:	85de                	mv	a1,s7
                for (i=0 ; i<default_num_contexts; i++)
    82c0:	045bfb63          	bgeu	s7,t0,8316 <.L3066>
                        ee_printf("[%d]crclist       : 0x%04x\n",i,results[i].crclist);
    82c4:	ff69d603          	lhu	a2,-10(s3)
    82c8:	cf0fa0ef          	jal	ra,27b8 <whisperPrintf>

000082cc <.LVL2749>:
                for (i=0 ; i<default_num_contexts; i++)
    82cc:	001b8613          	addi	a2,s7,1
    82d0:	01061593          	slli	a1,a2,0x10
    82d4:	0105da93          	srli	s5,a1,0x10
                        ee_printf("[%d]crclist       : 0x%04x\n",i,results[i].crclist);
    82d8:	004a9813          	slli	a6,s5,0x4
                for (i=0 ; i<default_num_contexts; i++)
    82dc:	0e8ca383          	lw	t2,232(s9)
                        ee_printf("[%d]crclist       : 0x%04x\n",i,results[i].crclist);
    82e0:	015808b3          	add	a7,a6,s5
    82e4:	00289e13          	slli	t3,a7,0x2
    82e8:	05010e93          	addi	t4,sp,80
    82ec:	4c848513          	addi	a0,s1,1224
    82f0:	01ce8f33          	add	t5,t4,t3
    82f4:	85d6                	mv	a1,s5
                for (i=0 ; i<default_num_contexts; i++)
    82f6:	027af063          	bgeu	s5,t2,8316 <.L3066>
                        ee_printf("[%d]crclist       : 0x%04x\n",i,results[i].crclist);
    82fa:	ff6f5603          	lhu	a2,-10(t5)
    82fe:	cbafa0ef          	jal	ra,27b8 <whisperPrintf>

00008302 <.LVL2750>:
                for (i=0 ; i<default_num_contexts; i++)
    8302:	001a8f93          	addi	t6,s5,1

00008306 <.LVL2751>:
    8306:	0e8ca503          	lw	a0,232(s9)
    830a:	010f9793          	slli	a5,t6,0x10
    830e:	0107d413          	srli	s0,a5,0x10
    8312:	f2a466e3          	bltu	s0,a0,823e <.L2993>

00008316 <.L3066>:
    8316:	5a32                	lw	s4,44(sp)

00008318 <.L2992>:
        if (results[0].execs & ID_MATRIX)
    8318:	002a7093          	andi	ra,s4,2
    831c:	0e008463          	beqz	ra,8404 <.L2991>

00008320 <.LVL2753>:
                for (i=0 ; i<default_num_contexts; i++)
    8320:	0e8ca483          	lw	s1,232(s9)
    8324:	42048a63          	beqz	s1,8758 <.L2996>
    8328:	4a81                	li	s5,0
    832a:	6a41                	lui	s4,0x10

0000832c <.L2997>:
                        ee_printf("[%d]crcmatrix     : 0x%04x\n",i,results[i].crcmatrix);
    832c:	004a9693          	slli	a3,s5,0x4
    8330:	015682b3          	add	t0,a3,s5
    8334:	00229713          	slli	a4,t0,0x2
    8338:	05010b93          	addi	s7,sp,80
    833c:	00eb8c33          	add	s8,s7,a4
    8340:	ff8c5603          	lhu	a2,-8(s8)
    8344:	85d6                	mv	a1,s5
    8346:	4e4a0513          	addi	a0,s4,1252 # 104e4 <.LC41>
    834a:	c6efa0ef          	jal	ra,27b8 <whisperPrintf>

0000834e <.LVL2755>:
                for (i=0 ; i<default_num_contexts; i++)
    834e:	001a8d93          	addi	s11,s5,1
    8352:	010d9313          	slli	t1,s11,0x10
    8356:	01035993          	srli	s3,t1,0x10
                        ee_printf("[%d]crcmatrix     : 0x%04x\n",i,results[i].crcmatrix);
    835a:	00499393          	slli	t2,s3,0x4
                for (i=0 ; i<default_num_contexts; i++)
    835e:	0e8cab03          	lw	s6,232(s9)
                        ee_printf("[%d]crcmatrix     : 0x%04x\n",i,results[i].crcmatrix);
    8362:	01338633          	add	a2,t2,s3
    8366:	00261593          	slli	a1,a2,0x2
    836a:	05010a93          	addi	s5,sp,80
    836e:	00ba8833          	add	a6,s5,a1
    8372:	4e4a0513          	addi	a0,s4,1252
    8376:	85ce                	mv	a1,s3
                for (i=0 ; i<default_num_contexts; i++)
    8378:	0969f563          	bgeu	s3,s6,8402 <.L3065>
                        ee_printf("[%d]crcmatrix     : 0x%04x\n",i,results[i].crcmatrix);
    837c:	ff885603          	lhu	a2,-8(a6)
    8380:	c38fa0ef          	jal	ra,27b8 <whisperPrintf>

00008384 <.LVL2756>:
                for (i=0 ; i<default_num_contexts; i++)
    8384:	00198e13          	addi	t3,s3,1
    8388:	010e1e93          	slli	t4,t3,0x10
    838c:	010ed413          	srli	s0,t4,0x10
                        ee_printf("[%d]crcmatrix     : 0x%04x\n",i,results[i].crcmatrix);
    8390:	00441f13          	slli	t5,s0,0x4
                for (i=0 ; i<default_num_contexts; i++)
    8394:	0e8ca883          	lw	a7,232(s9)
                        ee_printf("[%d]crcmatrix     : 0x%04x\n",i,results[i].crcmatrix);
    8398:	008f0fb3          	add	t6,t5,s0
    839c:	002f9493          	slli	s1,t6,0x2
    83a0:	089c                	addi	a5,sp,80
    83a2:	4e4a0513          	addi	a0,s4,1252
    83a6:	00978d33          	add	s10,a5,s1
    83aa:	85a2                	mv	a1,s0
                for (i=0 ; i<default_num_contexts; i++)
    83ac:	05147b63          	bgeu	s0,a7,8402 <.L3065>
                        ee_printf("[%d]crcmatrix     : 0x%04x\n",i,results[i].crcmatrix);
    83b0:	ff8d5603          	lhu	a2,-8(s10)
    83b4:	c04fa0ef          	jal	ra,27b8 <whisperPrintf>

000083b8 <.LVL2757>:
                for (i=0 ; i<default_num_contexts; i++)
    83b8:	00140293          	addi	t0,s0,1
    83bc:	01029713          	slli	a4,t0,0x10
    83c0:	01075b93          	srli	s7,a4,0x10
                        ee_printf("[%d]crcmatrix     : 0x%04x\n",i,results[i].crcmatrix);
    83c4:	004b9c13          	slli	s8,s7,0x4
                for (i=0 ; i<default_num_contexts; i++)
    83c8:	0e8ca683          	lw	a3,232(s9)
                        ee_printf("[%d]crcmatrix     : 0x%04x\n",i,results[i].crcmatrix);
    83cc:	017c0b33          	add	s6,s8,s7
    83d0:	002b1d93          	slli	s11,s6,0x2
    83d4:	05010313          	addi	t1,sp,80
    83d8:	4e4a0513          	addi	a0,s4,1252
    83dc:	01b309b3          	add	s3,t1,s11
    83e0:	85de                	mv	a1,s7
                for (i=0 ; i<default_num_contexts; i++)
    83e2:	02dbf063          	bgeu	s7,a3,8402 <.L3065>
                        ee_printf("[%d]crcmatrix     : 0x%04x\n",i,results[i].crcmatrix);
    83e6:	ff89d603          	lhu	a2,-8(s3)
    83ea:	bcefa0ef          	jal	ra,27b8 <whisperPrintf>

000083ee <.LVL2758>:
                for (i=0 ; i<default_num_contexts; i++)
    83ee:	001b8393          	addi	t2,s7,1

000083f2 <.LVL2759>:
    83f2:	0e8ca503          	lw	a0,232(s9)
    83f6:	01039613          	slli	a2,t2,0x10
    83fa:	01065a93          	srli	s5,a2,0x10
    83fe:	f2aae7e3          	bltu	s5,a0,832c <.L2997>

00008402 <.L3065>:
    8402:	5a32                	lw	s4,44(sp)

00008404 <.L2991>:
        if (results[0].execs & ID_STATE)
    8404:	004a7093          	andi	ra,s4,4
    8408:	0e008363          	beqz	ra,84ee <.L2995>

0000840c <.LVL2761>:
                for (i=0 ; i<default_num_contexts; i++)
    840c:	0e8ca583          	lw	a1,232(s9)
    8410:	1a058f63          	beqz	a1,85ce <.L2999>
    8414:	4b81                	li	s7,0
    8416:	64c1                	lui	s1,0x10

00008418 <.L3000>:
                        ee_printf("[%d]crcstate      : 0x%04x\n",i,results[i].crcstate);
    8418:	004b9813          	slli	a6,s7,0x4
    841c:	017808b3          	add	a7,a6,s7
    8420:	00289e13          	slli	t3,a7,0x2
    8424:	05010e93          	addi	t4,sp,80
    8428:	01ce8f33          	add	t5,t4,t3
    842c:	ffaf5603          	lhu	a2,-6(t5)
    8430:	85de                	mv	a1,s7
    8432:	50048513          	addi	a0,s1,1280 # 10500 <.LC42>
    8436:	b82fa0ef          	jal	ra,27b8 <whisperPrintf>

0000843a <.LVL2763>:
                for (i=0 ; i<default_num_contexts; i++)
    843a:	001b8413          	addi	s0,s7,1
    843e:	01041793          	slli	a5,s0,0x10
    8442:	0107dd13          	srli	s10,a5,0x10
                        ee_printf("[%d]crcstate      : 0x%04x\n",i,results[i].crcstate);
    8446:	004d1693          	slli	a3,s10,0x4
                for (i=0 ; i<default_num_contexts; i++)
    844a:	0e8caf83          	lw	t6,232(s9)
                        ee_printf("[%d]crcstate      : 0x%04x\n",i,results[i].crcstate);
    844e:	01a682b3          	add	t0,a3,s10
    8452:	00229713          	slli	a4,t0,0x2
    8456:	05010b93          	addi	s7,sp,80
    845a:	50048513          	addi	a0,s1,1280
    845e:	00eb8c33          	add	s8,s7,a4
    8462:	85ea                	mv	a1,s10
                for (i=0 ; i<default_num_contexts; i++)
    8464:	09fd7563          	bgeu	s10,t6,84ee <.L2995>
                        ee_printf("[%d]crcstate      : 0x%04x\n",i,results[i].crcstate);
    8468:	ffac5603          	lhu	a2,-6(s8)
                for (i=0 ; i<default_num_contexts; i++)
    846c:	001d0d93          	addi	s11,s10,1
                        ee_printf("[%d]crcstate      : 0x%04x\n",i,results[i].crcstate);
    8470:	05010a13          	addi	s4,sp,80
    8474:	b44fa0ef          	jal	ra,27b8 <whisperPrintf>

00008478 <.LVL2764>:
                for (i=0 ; i<default_num_contexts; i++)
    8478:	010d9313          	slli	t1,s11,0x10
    847c:	01035993          	srli	s3,t1,0x10
                        ee_printf("[%d]crcstate      : 0x%04x\n",i,results[i].crcstate);
    8480:	00499393          	slli	t2,s3,0x4
                for (i=0 ; i<default_num_contexts; i++)
    8484:	0e8cab03          	lw	s6,232(s9)
                        ee_printf("[%d]crcstate      : 0x%04x\n",i,results[i].crcstate);
    8488:	01338633          	add	a2,t2,s3
    848c:	00261a93          	slli	s5,a2,0x2
    8490:	50048513          	addi	a0,s1,1280
    8494:	015a0833          	add	a6,s4,s5
    8498:	85ce                	mv	a1,s3
                for (i=0 ; i<default_num_contexts; i++)
    849a:	0569fa63          	bgeu	s3,s6,84ee <.L2995>
                        ee_printf("[%d]crcstate      : 0x%04x\n",i,results[i].crcstate);
    849e:	ffa85603          	lhu	a2,-6(a6)
    84a2:	b16fa0ef          	jal	ra,27b8 <whisperPrintf>

000084a6 <.LVL2765>:
                for (i=0 ; i<default_num_contexts; i++)
    84a6:	00198593          	addi	a1,s3,1
    84aa:	01059e13          	slli	t3,a1,0x10
    84ae:	010e5413          	srli	s0,t3,0x10
                        ee_printf("[%d]crcstate      : 0x%04x\n",i,results[i].crcstate);
    84b2:	00441e93          	slli	t4,s0,0x4
                for (i=0 ; i<default_num_contexts; i++)
    84b6:	0e8ca883          	lw	a7,232(s9)
                        ee_printf("[%d]crcstate      : 0x%04x\n",i,results[i].crcstate);
    84ba:	008e8f33          	add	t5,t4,s0
    84be:	002f1f93          	slli	t6,t5,0x2
    84c2:	089c                	addi	a5,sp,80
    84c4:	50048513          	addi	a0,s1,1280
    84c8:	01f78d33          	add	s10,a5,t6
    84cc:	85a2                	mv	a1,s0
                for (i=0 ; i<default_num_contexts; i++)
    84ce:	03147063          	bgeu	s0,a7,84ee <.L2995>
                        ee_printf("[%d]crcstate      : 0x%04x\n",i,results[i].crcstate);
    84d2:	ffad5603          	lhu	a2,-6(s10)
    84d6:	ae2fa0ef          	jal	ra,27b8 <whisperPrintf>

000084da <.LVL2766>:
                for (i=0 ; i<default_num_contexts; i++)
    84da:	00140693          	addi	a3,s0,1

000084de <.LVL2767>:
    84de:	0e8ca503          	lw	a0,232(s9)
    84e2:	01069293          	slli	t0,a3,0x10
    84e6:	0102db93          	srli	s7,t0,0x10
    84ea:	f2abe7e3          	bltu	s7,a0,8418 <.L3000>

000084ee <.L2995>:
        for (i=0 ; i<default_num_contexts; i++)
    84ee:	0e8ca083          	lw	ra,232(s9)
    84f2:	4401                	li	s0,0
    84f4:	64c1                	lui	s1,0x10
    84f6:	0c008c63          	beqz	ra,85ce <.L2999>

000084fa <.L2998>:
                ee_printf("[%d]crcfinal      : 0x%04x\n",i,results[i].crc);
    84fa:	00441713          	slli	a4,s0,0x4
    84fe:	00870c33          	add	s8,a4,s0
    8502:	002c1b13          	slli	s6,s8,0x2
    8506:	05010d93          	addi	s11,sp,80
    850a:	016d8333          	add	t1,s11,s6
    850e:	ff435603          	lhu	a2,-12(t1)
    8512:	85a2                	mv	a1,s0
    8514:	51c48513          	addi	a0,s1,1308 # 1051c <.LC43>
    8518:	aa0fa0ef          	jal	ra,27b8 <whisperPrintf>

0000851c <.LVL2770>:
        for (i=0 ; i<default_num_contexts; i++)
    851c:	00140393          	addi	t2,s0,1
    8520:	01039613          	slli	a2,t2,0x10
    8524:	01065a93          	srli	s5,a2,0x10
                ee_printf("[%d]crcfinal      : 0x%04x\n",i,results[i].crc);
    8528:	004a9a13          	slli	s4,s5,0x4
        for (i=0 ; i<default_num_contexts; i++)
    852c:	0e8ca983          	lw	s3,232(s9)
                ee_printf("[%d]crcfinal      : 0x%04x\n",i,results[i].crc);
    8530:	015a0833          	add	a6,s4,s5
    8534:	088c                	addi	a1,sp,80
    8536:	00281893          	slli	a7,a6,0x2
    853a:	01158e33          	add	t3,a1,a7
    853e:	51c48513          	addi	a0,s1,1308
    8542:	85d6                	mv	a1,s5
        for (i=0 ; i<default_num_contexts; i++)
    8544:	093af563          	bgeu	s5,s3,85ce <.L2999>
                ee_printf("[%d]crcfinal      : 0x%04x\n",i,results[i].crc);
    8548:	ff4e5603          	lhu	a2,-12(t3)
        for (i=0 ; i<default_num_contexts; i++)
    854c:	001a8413          	addi	s0,s5,1
                ee_printf("[%d]crcfinal      : 0x%04x\n",i,results[i].crc);
    8550:	a68fa0ef          	jal	ra,27b8 <whisperPrintf>

00008554 <.LVL2771>:
        for (i=0 ; i<default_num_contexts; i++)
    8554:	01041f13          	slli	t5,s0,0x10
    8558:	010f5d13          	srli	s10,t5,0x10
                ee_printf("[%d]crcfinal      : 0x%04x\n",i,results[i].crc);
    855c:	004d1f93          	slli	t6,s10,0x4
        for (i=0 ; i<default_num_contexts; i++)
    8560:	0e8cae83          	lw	t4,232(s9)
                ee_printf("[%d]crcfinal      : 0x%04x\n",i,results[i].crc);
    8564:	01af87b3          	add	a5,t6,s10
    8568:	00279693          	slli	a3,a5,0x2
    856c:	05010293          	addi	t0,sp,80
    8570:	51c48513          	addi	a0,s1,1308
    8574:	00d28bb3          	add	s7,t0,a3
    8578:	85ea                	mv	a1,s10
        for (i=0 ; i<default_num_contexts; i++)
    857a:	05dd7a63          	bgeu	s10,t4,85ce <.L2999>
                ee_printf("[%d]crcfinal      : 0x%04x\n",i,results[i].crc);
    857e:	ff4bd603          	lhu	a2,-12(s7)
    8582:	a36fa0ef          	jal	ra,27b8 <whisperPrintf>

00008586 <.LVL2772>:
        for (i=0 ; i<default_num_contexts; i++)
    8586:	001d0713          	addi	a4,s10,1
    858a:	01071b13          	slli	s6,a4,0x10
    858e:	010b5d93          	srli	s11,s6,0x10
                ee_printf("[%d]crcfinal      : 0x%04x\n",i,results[i].crc);
    8592:	004d9313          	slli	t1,s11,0x4
        for (i=0 ; i<default_num_contexts; i++)
    8596:	0e8cac03          	lw	s8,232(s9)
                ee_printf("[%d]crcfinal      : 0x%04x\n",i,results[i].crc);
    859a:	01b309b3          	add	s3,t1,s11
    859e:	00299393          	slli	t2,s3,0x2
    85a2:	0890                	addi	a2,sp,80
    85a4:	51c48513          	addi	a0,s1,1308
    85a8:	00760ab3          	add	s5,a2,t2
    85ac:	85ee                	mv	a1,s11
        for (i=0 ; i<default_num_contexts; i++)
    85ae:	038df063          	bgeu	s11,s8,85ce <.L2999>
                ee_printf("[%d]crcfinal      : 0x%04x\n",i,results[i].crc);
    85b2:	ff4ad603          	lhu	a2,-12(s5)
        for (i=0 ; i<default_num_contexts; i++)
    85b6:	001d8a13          	addi	s4,s11,1
                ee_printf("[%d]crcfinal      : 0x%04x\n",i,results[i].crc);
    85ba:	9fefa0ef          	jal	ra,27b8 <whisperPrintf>

000085be <.LVL2773>:
        for (i=0 ; i<default_num_contexts; i++)
    85be:	0e8ca503          	lw	a0,232(s9)
    85c2:	010a1813          	slli	a6,s4,0x10
    85c6:	01085413          	srli	s0,a6,0x10
    85ca:	f2a468e3          	bltu	s0,a0,84fa <.L2998>

000085ce <.L2999>:
        if (total_errors==0) {
    85ce:	16090f63          	beqz	s2,874c <.L3074>
        if (total_errors>0)
    85d2:	17205763          	blez	s2,8740 <.L3004>
                ee_printf("Errors detected\n");
    85d6:	6941                	lui	s2,0x10

000085d8 <.LVL2775>:
    85d8:	58490513          	addi	a0,s2,1412 # 10584 <.LC45>
    85dc:	9dcfa0ef          	jal	ra,27b8 <whisperPrintf>

000085e0 <.L2965>:
}
    85e0:	40ba                	lw	ra,140(sp)
    85e2:	442a                	lw	s0,136(sp)
    85e4:	449a                	lw	s1,132(sp)
    85e6:	490a                	lw	s2,128(sp)
    85e8:	59f6                	lw	s3,124(sp)
    85ea:	5a66                	lw	s4,120(sp)
    85ec:	5ad6                	lw	s5,116(sp)
    85ee:	5b46                	lw	s6,112(sp)
    85f0:	5bb6                	lw	s7,108(sp)
    85f2:	5c26                	lw	s8,104(sp)
    85f4:	5c96                	lw	s9,100(sp)
    85f6:	5d06                	lw	s10,96(sp)
    85f8:	4df6                	lw	s11,92(sp)
    85fa:	6149                	addi	sp,sp,144
    85fc:	8082                	ret

000085fe <.L2986>:
                ee_printf("Iterat/Sec/MHz   : %d.%d\n",1000*default_num_contexts*results[0].iterations/time_in_secs(total_time),
    85fe:	5522                	lw	a0,40(sp)
    8600:	0e8ca083          	lw	ra,232(s9)
                             100000*default_num_contexts*results[0].iterations/time_in_secs(total_time) % 100);
    8604:	6861                	lui	a6,0x18
    8606:	6a080493          	addi	s1,a6,1696 # 186a0 <seed1_volatile+0x77f8>
                ee_printf("Iterat/Sec/MHz   : %d.%d\n",1000*default_num_contexts*results[0].iterations/time_in_secs(total_time),
    860a:	02150633          	mul	a2,a0,ra
    860e:	65c1                	lui	a1,0x10
    8610:	06400f13          	li	t5,100
    8614:	41858513          	addi	a0,a1,1048 # 10418 <.LC31>
                             100000*default_num_contexts*results[0].iterations/time_in_secs(total_time) % 100);
    8618:	029608b3          	mul	a7,a2,s1
    861c:	03b8de33          	divu	t3,a7,s11
                ee_printf("Iterat/Sec/MHz   : %d.%d\n",1000*default_num_contexts*results[0].iterations/time_in_secs(total_time),
    8620:	03660eb3          	mul	t4,a2,s6
    8624:	03ee7633          	remu	a2,t3,t5
    8628:	03bed5b3          	divu	a1,t4,s11
    862c:	98cfa0ef          	jal	ra,27b8 <whisperPrintf>

00008630 <.LVL2779>:
        if (time_in_secs(total_time) < 10) {
    8630:	6f89                	lui	t6,0x2
    8632:	70ff8793          	addi	a5,t6,1807 # 270f <.LBB560+0x1>
    8636:	bb57e1e3          	bltu	a5,s5,81d8 <.L2987>
    863a:	b669                	j	81c4 <.L2988>

0000863c <.L3062>:
                results[0].iterations=1;
    863c:	4f05                	li	t5,1
    863e:	d47a                	sw	t5,40(sp)
                while (secs_passed < (secs_ret)1) {
    8640:	6445                	lui	s0,0x11
    8642:	00c10993          	addi	s3,sp,12
    8646:	64c5                	lui	s1,0x11
    8648:	3e700913          	li	s2,999

0000864c <.L2971>:
                        results[0].iterations*=10;
    864c:	5fa2                	lw	t6,40(sp)
    864e:	002f9793          	slli	a5,t6,0x2
    8652:	01f786b3          	add	a3,a5,t6
    8656:	00169093          	slli	ra,a3,0x1
    865a:	d406                	sw	ra,40(sp)

0000865c <.LBB1273>:
        asm volatile ("csrr %0,mcycle"  : "=r" (mcyclel) );
    865c:	b0002a73          	csrr	s4,mcycle

00008660 <.LBE1273>:
                        iterate(&results[0]);
    8660:	854e                	mv	a0,s3

00008662 <.LBB1282>:
        start_time_val = mcyclel;
    8662:	e9442e23          	sw	s4,-356(s0) # 10e9c <start_time_val>

00008666 <.LBE1282>:
                        iterate(&results[0]);
    8666:	9a9fe0ef          	jal	ra,700e <iterate>

0000866a <.LBB1283>:
        asm volatile ("csrr %0,mcycle"  : "=r" (mcyclel) );
    866a:	b0002773          	csrr	a4,mcycle

0000866e <.LBB1291>:
        stop_time_val = mcyclel;
    866e:	e8e4ac23          	sw	a4,-360(s1) # 10e98 <stop_time_val>

00008672 <.LBB1292>:
        CORE_TICKS elapsed=(CORE_TICKS)(MYTIMEDIFF(stop_time_val, start_time_val));
    8672:	41470f33          	sub	t5,a4,s4

00008676 <.LBB1297>:
                while (secs_passed < (secs_ret)1) {
    8676:	09e96763          	bltu	s2,t5,8704 <.L3067>
                        results[0].iterations*=10;
    867a:	52a2                	lw	t0,40(sp)
    867c:	00229313          	slli	t1,t0,0x2
    8680:	005303b3          	add	t2,t1,t0
    8684:	00139513          	slli	a0,t2,0x1
    8688:	d42a                	sw	a0,40(sp)

0000868a <.LBB1303>:
        asm volatile ("csrr %0,mcycle"  : "=r" (mcyclel) );
    868a:	b0002af3          	csrr	s5,mcycle

0000868e <.LBE1303>:
                        iterate(&results[0]);
    868e:	854e                	mv	a0,s3

00008690 <.LBB1304>:
        start_time_val = mcyclel;
    8690:	e9542e23          	sw	s5,-356(s0)

00008694 <.LBE1304>:
                        iterate(&results[0]);
    8694:	97bfe0ef          	jal	ra,700e <iterate>

00008698 <.LBB1305>:
        asm volatile ("csrr %0,mcycle"  : "=r" (mcyclel) );
    8698:	b0002673          	csrr	a2,mcycle

0000869c <.LBB1306>:
        stop_time_val = mcyclel;
    869c:	e8c4ac23          	sw	a2,-360(s1)

000086a0 <.LBB1307>:
        CORE_TICKS elapsed=(CORE_TICKS)(MYTIMEDIFF(stop_time_val, start_time_val));
    86a0:	41560f33          	sub	t5,a2,s5

000086a4 <.LBB1308>:
                while (secs_passed < (secs_ret)1) {
    86a4:	07e96063          	bltu	s2,t5,8704 <.L3067>
                        results[0].iterations*=10;
    86a8:	55a2                	lw	a1,40(sp)
    86aa:	00259813          	slli	a6,a1,0x2
    86ae:	00b808b3          	add	a7,a6,a1
    86b2:	00189b13          	slli	s6,a7,0x1
    86b6:	d45a                	sw	s6,40(sp)

000086b8 <.LBB1309>:
        asm volatile ("csrr %0,mcycle"  : "=r" (mcyclel) );
    86b8:	b0002bf3          	csrr	s7,mcycle

000086bc <.LBE1309>:
                        iterate(&results[0]);
    86bc:	854e                	mv	a0,s3

000086be <.LBB1310>:
        start_time_val = mcyclel;
    86be:	e9742e23          	sw	s7,-356(s0)

000086c2 <.LBE1310>:
                        iterate(&results[0]);
    86c2:	94dfe0ef          	jal	ra,700e <iterate>

000086c6 <.LBB1311>:
        asm volatile ("csrr %0,mcycle"  : "=r" (mcyclel) );
    86c6:	b0002c73          	csrr	s8,mcycle

000086ca <.LBB1312>:
        stop_time_val = mcyclel;
    86ca:	e984ac23          	sw	s8,-360(s1)

000086ce <.LBB1313>:
        CORE_TICKS elapsed=(CORE_TICKS)(MYTIMEDIFF(stop_time_val, start_time_val));
    86ce:	417c0f33          	sub	t5,s8,s7

000086d2 <.LBB1314>:
                while (secs_passed < (secs_ret)1) {
    86d2:	03e96963          	bltu	s2,t5,8704 <.L3067>
                        results[0].iterations*=10;
    86d6:	5ca2                	lw	s9,40(sp)
    86d8:	002c9d13          	slli	s10,s9,0x2
    86dc:	019d0db3          	add	s11,s10,s9
    86e0:	001d9e13          	slli	t3,s11,0x1
    86e4:	d472                	sw	t3,40(sp)

000086e6 <.LBB1315>:
        asm volatile ("csrr %0,mcycle"  : "=r" (mcyclel) );
    86e6:	b0002a73          	csrr	s4,mcycle

000086ea <.LBE1315>:
                        iterate(&results[0]);
    86ea:	854e                	mv	a0,s3

000086ec <.LBB1316>:
        start_time_val = mcyclel;
    86ec:	e9442e23          	sw	s4,-356(s0)

000086f0 <.LBE1316>:
                        iterate(&results[0]);
    86f0:	91ffe0ef          	jal	ra,700e <iterate>

000086f4 <.LBB1317>:
        asm volatile ("csrr %0,mcycle"  : "=r" (mcyclel) );
    86f4:	b0002ef3          	csrr	t4,mcycle
        stop_time_val = mcyclel;
    86f8:	e9d4ac23          	sw	t4,-360(s1)

000086fc <.LBB1318>:
        CORE_TICKS elapsed=(CORE_TICKS)(MYTIMEDIFF(stop_time_val, start_time_val));
    86fc:	414e8f33          	sub	t5,t4,s4

00008700 <.LBB1319>:
                while (secs_passed < (secs_ret)1) {
    8700:	f5e976e3          	bgeu	s2,t5,864c <.L2971>

00008704 <.L3067>:
        secs_ret retval=((secs_ret)ticks) / (secs_ret)EE_TICKS_PER_SEC;
    8704:	3e800913          	li	s2,1000
    8708:	032f5fb3          	divu	t6,t5,s2

0000870c <.LBE1320>:
                results[0].iterations*=1+10/divisor;
    870c:	47a9                	li	a5,10
    870e:	5722                	lw	a4,40(sp)
    8710:	03f7d6b3          	divu	a3,a5,t6
    8714:	00168093          	addi	ra,a3,1
    8718:	021702b3          	mul	t0,a4,ra
    871c:	d416                	sw	t0,40(sp)
    871e:	897ff06f          	j	7fb4 <.L2970>

00008722 <.L2966>:
        if ((results[0].seed1==1) && (results[0].seed2==0) && (results[0].seed3==0)) { /* perfromance run */
    8722:	82839de3          	bne	t2,s0,7f5c <.L2967>
    8726:	82051be3          	bnez	a0,7f5c <.L2967>
                results[0].seed1=0x3415;
    872a:	34153837          	lui	a6,0x34153
    872e:	41580893          	addi	a7,a6,1045 # 34153415 <STACK+0x3413ad45>
    8732:	c646                	sw	a7,12(sp)

00008734 <.L3069>:
                results[0].seed3=0x66;
    8734:	06600913          	li	s2,102
    8738:	01211823          	sh	s2,16(sp)
    873c:	821ff06f          	j	7f5c <.L2967>

00008740 <.L3004>:
                ee_printf("Cannot validate operation for these seed values, please compare with results on a known platform.\n");
    8740:	6cc1                	lui	s9,0x10
    8742:	598c8513          	addi	a0,s9,1432 # 10598 <.LC46>
    8746:	872fa0ef          	jal	ra,27b8 <whisperPrintf>

0000874a <.LVL2797>:
        return MAIN_RETURN_VAL;
    874a:	bd59                	j	85e0 <.L2965>

0000874c <.L3074>:
                ee_printf("Correct operation validated. See readme.txt for run and reporting rules.\n");
    874c:	60c1                	lui	ra,0x10
    874e:	53808513          	addi	a0,ra,1336 # 10538 <.LC44>
    8752:	866fa0ef          	jal	ra,27b8 <whisperPrintf>

00008756 <.LVL2799>:
        if (total_errors<0)
    8756:	b569                	j	85e0 <.L2965>

00008758 <.L2996>:
        if (results[0].execs & ID_STATE)
    8758:	004a7d13          	andi	s10,s4,4
    875c:	d80d09e3          	beqz	s10,84ee <.L2995>
    8760:	b5bd                	j	85ce <.L2999>

00008762 <.L2972>:
                        ee_printf("6k validation run parameters for coremark.\n");
    8762:	64c1                	lui	s1,0x10
    8764:	24048513          	addi	a0,s1,576 # 10240 <.LC20>
    8768:	850fa0ef          	jal	ra,27b8 <whisperPrintf>

0000876c <.LVL2802>:
    876c:	6585                	lui	a1,0x1
    876e:	19958b93          	addi	s7,a1,409 # 1199 <.LLST81+0x1>
    8772:	6811                	lui	a6,0x4
    8774:	688d                	lui	a7,0x3
    8776:	9bf80a13          	addi	s4,a6,-1601 # 39bf <.L1378+0x13>
    877a:	8c5e                	mv	s8,s7
    877c:	34088b13          	addi	s6,a7,832 # 3340 <.L1326+0x8>
    8780:	8c1ff06f          	j	8040 <.L2979>

00008784 <.L2974>:
                        ee_printf("2K validation run parameters for coremark.\n");
    8784:	66c1                	lui	a3,0x10
    8786:	2d068513          	addi	a0,a3,720 # 102d0 <.LC23>
    878a:	82efa0ef          	jal	ra,27b8 <whisperPrintf>

0000878e <.LVL2804>:
    878e:	6725                	lui	a4,0x9
    8790:	62b9                	lui	t0,0xe
    8792:	d8470a13          	addi	s4,a4,-636 # 8d84 <.LLST126+0x5>
    8796:	74700b93          	li	s7,1863
    879a:	74700c13          	li	s8,1863
    879e:	3c128b13          	addi	s6,t0,961 # e3c1 <.LLST604+0x2124>
    87a2:	89fff06f          	j	8040 <.L2979>

000087a6 <.L2977>:
                        ee_printf("6k performance run parameters for coremark.\n");
    87a6:	6c41                	lui	s8,0x10
    87a8:	6cb1                	lui	s9,0xc
    87aa:	210c0513          	addi	a0,s8,528 # 10210 <.LC19>
    87ae:	e52c8b93          	addi	s7,s9,-430 # be52 <.LLST595+0x1b>
    87b2:	6d19                	lui	s10,0x6
    87b4:	6db5                	lui	s11,0xd
    87b6:	802fa0ef          	jal	ra,27b8 <whisperPrintf>

000087ba <.LVL2806>:
    87ba:	e47d0a13          	addi	s4,s10,-441 # 5e47 <.L1799+0x11>
    87be:	8c5e                	mv	s8,s7
    87c0:	4b0d8b13          	addi	s6,s11,1200 # d4b0 <.LLST604+0x1213>
    87c4:	87dff06f          	j	8040 <.L2979>

000087c8 <.L3063>:
    87c8:	5492                	lw	s1,36(sp)
                for (i=0 ; i<default_num_contexts; i++) {
    87ca:	4401                	li	s0,0
    87cc:	b2d1                	j	8190 <.L2976>

000087ce <.L3071>:
        switch (seedcrc) { /* test known output for common seeds */
    87ce:	6a41                	lui	s4,0x10
    87d0:	fffa0413          	addi	s0,s4,-1 # ffff <.LLST604+0x3d62>
    87d4:	597d                	li	s2,-1
    87d6:	6cc1                	lui	s9,0x10
    87d8:	ba65                	j	8190 <.L2976>
